
SSCI824/mbedApp.elf:     file format elf32-littlearm
architecture: arm, flags 0x00000112:
EXEC_P, HAS_SYMS, D_PAGED
start address 0x000000c1


Disassembly of section .text:

00000000 <__isr_vector>:
       0:	10002000 	.word	0x10002000
       4:	000000c1 	.word	0x000000c1
       8:	00002339 	.word	0x00002339
       c:	0000233b 	.word	0x0000233b
	...
      2c:	0000233d 	.word	0x0000233d
	...
      38:	0000233f 	.word	0x0000233f
      3c:	00002341 	.word	0x00002341
      40:	00002343 	.word	0x00002343
      44:	00002343 	.word	0x00002343
      48:	00000000 	.word	0x00000000
      4c:	00002343 	.word	0x00002343
      50:	00002343 	.word	0x00002343
      54:	00002343 	.word	0x00002343
      58:	00000000 	.word	0x00000000
      5c:	00002343 	.word	0x00002343
      60:	00002343 	.word	0x00002343
      64:	00002343 	.word	0x00002343
      68:	00002343 	.word	0x00002343
      6c:	00002343 	.word	0x00002343
      70:	00002343 	.word	0x00002343
      74:	00002343 	.word	0x00002343
      78:	00002343 	.word	0x00002343
      7c:	00002343 	.word	0x00002343
      80:	00002343 	.word	0x00002343
      84:	00002343 	.word	0x00002343
      88:	00002343 	.word	0x00002343
      8c:	00002343 	.word	0x00002343
      90:	00002343 	.word	0x00002343
      94:	00002343 	.word	0x00002343
      98:	00002343 	.word	0x00002343
      9c:	00000000 	.word	0x00000000
      a0:	00002343 	.word	0x00002343
      a4:	00002343 	.word	0x00002343
      a8:	00002343 	.word	0x00002343
      ac:	00002343 	.word	0x00002343
      b0:	00002343 	.word	0x00002343
      b4:	00002343 	.word	0x00002343
      b8:	00002343 	.word	0x00002343
      bc:	00002343 	.word	0x00002343

000000c0 <Reset_Handler>:
      c0:	4907      	ldr	r1, [pc, #28]	; (e0 <Reset_Handler+0x20>)
      c2:	4a08      	ldr	r2, [pc, #32]	; (e4 <Reset_Handler+0x24>)
      c4:	4b08      	ldr	r3, [pc, #32]	; (e8 <Reset_Handler+0x28>)
      c6:	1a9b      	subs	r3, r3, r2
      c8:	dd05      	ble.n	d6 <Reset_Handler+0x16>
      ca:	2400      	movs	r4, #0
      cc:	5908      	ldr	r0, [r1, r4]
      ce:	5110      	str	r0, [r2, r4]
      d0:	3404      	adds	r4, #4
      d2:	429c      	cmp	r4, r3
      d4:	dbfa      	blt.n	cc <Reset_Handler+0xc>
      d6:	4805      	ldr	r0, [pc, #20]	; (ec <Reset_Handler+0x2c>)
      d8:	4780      	blx	r0
      da:	4805      	ldr	r0, [pc, #20]	; (f0 <Reset_Handler+0x30>)
      dc:	4700      	bx	r0
      de:	0000      	.short	0x0000
      e0:	00007d98 	.word	0x00007d98
      e4:	100000c0 	.word	0x100000c0
      e8:	10000144 	.word	0x10000144
      ec:	000000f5 	.word	0x000000f5
      f0:	00001859 	.word	0x00001859

000000f4 <SystemInit>:
      f4:	4b2b      	ldr	r3, [pc, #172]	; (1a4 <SystemInit+0xb0>)
      f6:	2280      	movs	r2, #128	; 0x80
      f8:	5899      	ldr	r1, [r3, r2]
      fa:	482b      	ldr	r0, [pc, #172]	; (1a8 <SystemInit+0xb4>)
      fc:	b510      	push	{r4, lr}
      fe:	4301      	orrs	r1, r0
     100:	5099      	str	r1, [r3, r2]
     102:	4a2a      	ldr	r2, [pc, #168]	; (1ac <SystemInit+0xb8>)
     104:	2118      	movs	r1, #24
     106:	6b90      	ldr	r0, [r2, #56]	; 0x38
     108:	24c0      	movs	r4, #192	; 0xc0
     10a:	4388      	bics	r0, r1
     10c:	6390      	str	r0, [r2, #56]	; 0x38
     10e:	6b50      	ldr	r0, [r2, #52]	; 0x34
     110:	b082      	sub	sp, #8
     112:	4388      	bics	r0, r1
     114:	6350      	str	r0, [r2, #52]	; 0x34
     116:	4926      	ldr	r1, [pc, #152]	; (1b0 <SystemInit+0xbc>)
     118:	22e0      	movs	r2, #224	; 0xe0
     11a:	0052      	lsls	r2, r2, #1
     11c:	5888      	ldr	r0, [r1, r2]
     11e:	43a0      	bics	r0, r4
     120:	5088      	str	r0, [r1, r2]
     122:	228e      	movs	r2, #142	; 0x8e
     124:	0092      	lsls	r2, r2, #2
     126:	5899      	ldr	r1, [r3, r2]
     128:	2020      	movs	r0, #32
     12a:	4381      	bics	r1, r0
     12c:	5099      	str	r1, [r3, r2]
     12e:	2300      	movs	r3, #0
     130:	9301      	str	r3, [sp, #4]
     132:	9b01      	ldr	r3, [sp, #4]
     134:	2bc7      	cmp	r3, #199	; 0xc7
     136:	d806      	bhi.n	146 <SystemInit+0x52>
     138:	46c0      	nop			; (mov r8, r8)
     13a:	9b01      	ldr	r3, [sp, #4]
     13c:	3301      	adds	r3, #1
     13e:	9301      	str	r3, [sp, #4]
     140:	9b01      	ldr	r3, [sp, #4]
     142:	2bc7      	cmp	r3, #199	; 0xc7
     144:	d9f8      	bls.n	138 <SystemInit+0x44>
     146:	4817      	ldr	r0, [pc, #92]	; (1a4 <SystemInit+0xb0>)
     148:	2200      	movs	r2, #0
     14a:	238e      	movs	r3, #142	; 0x8e
     14c:	6202      	str	r2, [r0, #32]
     14e:	009b      	lsls	r3, r3, #2
     150:	58c1      	ldr	r1, [r0, r3]
     152:	2480      	movs	r4, #128	; 0x80
     154:	43a1      	bics	r1, r4
     156:	50c1      	str	r1, [r0, r3]
     158:	2301      	movs	r3, #1
     15a:	6403      	str	r3, [r0, #64]	; 0x40
     15c:	2101      	movs	r1, #1
     15e:	6442      	str	r2, [r0, #68]	; 0x44
     160:	6443      	str	r3, [r0, #68]	; 0x44
     162:	6c43      	ldr	r3, [r0, #68]	; 0x44
     164:	4a0f      	ldr	r2, [pc, #60]	; (1a4 <SystemInit+0xb0>)
     166:	4219      	tst	r1, r3
     168:	d0fb      	beq.n	162 <SystemInit+0x6e>
     16a:	2324      	movs	r3, #36	; 0x24
     16c:	6093      	str	r3, [r2, #8]
     16e:	238e      	movs	r3, #142	; 0x8e
     170:	009b      	lsls	r3, r3, #2
     172:	58d1      	ldr	r1, [r2, r3]
     174:	2080      	movs	r0, #128	; 0x80
     176:	4381      	bics	r1, r0
     178:	50d1      	str	r1, [r2, r3]
     17a:	1c10      	adds	r0, r2, #0
     17c:	2101      	movs	r1, #1
     17e:	68c3      	ldr	r3, [r0, #12]
     180:	4a08      	ldr	r2, [pc, #32]	; (1a4 <SystemInit+0xb0>)
     182:	4219      	tst	r1, r3
     184:	d0fb      	beq.n	17e <SystemInit+0x8a>
     186:	2303      	movs	r3, #3
     188:	6713      	str	r3, [r2, #112]	; 0x70
     18a:	2300      	movs	r3, #0
     18c:	6753      	str	r3, [r2, #116]	; 0x74
     18e:	2301      	movs	r3, #1
     190:	6753      	str	r3, [r2, #116]	; 0x74
     192:	2101      	movs	r1, #1
     194:	6f53      	ldr	r3, [r2, #116]	; 0x74
     196:	4219      	tst	r1, r3
     198:	d0fc      	beq.n	194 <SystemInit+0xa0>
     19a:	4b02      	ldr	r3, [pc, #8]	; (1a4 <SystemInit+0xb0>)
     19c:	2202      	movs	r2, #2
     19e:	679a      	str	r2, [r3, #120]	; 0x78
     1a0:	b002      	add	sp, #8
     1a2:	bd10      	pop	{r4, pc}
     1a4:	40048000 	.word	0x40048000
     1a8:	00040080 	.word	0x00040080
     1ac:	40044000 	.word	0x40044000
     1b0:	4000c000 	.word	0x4000c000

000001b4 <__do_global_dtors_aux>:
     1b4:	b510      	push	{r4, lr}
     1b6:	4c06      	ldr	r4, [pc, #24]	; (1d0 <__do_global_dtors_aux+0x1c>)
     1b8:	7823      	ldrb	r3, [r4, #0]
     1ba:	2b00      	cmp	r3, #0
     1bc:	d107      	bne.n	1ce <__do_global_dtors_aux+0x1a>
     1be:	4b05      	ldr	r3, [pc, #20]	; (1d4 <__do_global_dtors_aux+0x20>)
     1c0:	2b00      	cmp	r3, #0
     1c2:	d002      	beq.n	1ca <__do_global_dtors_aux+0x16>
     1c4:	4804      	ldr	r0, [pc, #16]	; (1d8 <__do_global_dtors_aux+0x24>)
     1c6:	e000      	b.n	1ca <__do_global_dtors_aux+0x16>
     1c8:	bf00      	nop
     1ca:	2301      	movs	r3, #1
     1cc:	7023      	strb	r3, [r4, #0]
     1ce:	bd10      	pop	{r4, pc}
     1d0:	10000144 	.word	0x10000144
     1d4:	00000000 	.word	0x00000000
     1d8:	00007d94 	.word	0x00007d94

000001dc <frame_dummy>:
     1dc:	b508      	push	{r3, lr}
     1de:	4b08      	ldr	r3, [pc, #32]	; (200 <frame_dummy+0x24>)
     1e0:	2b00      	cmp	r3, #0
     1e2:	d003      	beq.n	1ec <frame_dummy+0x10>
     1e4:	4807      	ldr	r0, [pc, #28]	; (204 <frame_dummy+0x28>)
     1e6:	4908      	ldr	r1, [pc, #32]	; (208 <frame_dummy+0x2c>)
     1e8:	e000      	b.n	1ec <frame_dummy+0x10>
     1ea:	bf00      	nop
     1ec:	4807      	ldr	r0, [pc, #28]	; (20c <frame_dummy+0x30>)
     1ee:	6803      	ldr	r3, [r0, #0]
     1f0:	2b00      	cmp	r3, #0
     1f2:	d003      	beq.n	1fc <frame_dummy+0x20>
     1f4:	4b06      	ldr	r3, [pc, #24]	; (210 <frame_dummy+0x34>)
     1f6:	2b00      	cmp	r3, #0
     1f8:	d000      	beq.n	1fc <frame_dummy+0x20>
     1fa:	4798      	blx	r3
     1fc:	bd08      	pop	{r3, pc}
     1fe:	46c0      	nop			; (mov r8, r8)
     200:	00000000 	.word	0x00000000
     204:	00007d94 	.word	0x00007d94
     208:	10000148 	.word	0x10000148
     20c:	10000144 	.word	0x10000144
     210:	00000000 	.word	0x00000000

00000214 <mbed::SerialBase::~SerialBase()>:
     214:	4b01      	ldr	r3, [pc, #4]	; (21c <mbed::SerialBase::~SerialBase()+0x8>)
     216:	6003      	str	r3, [r0, #0]
     218:	4770      	bx	lr
     21a:	46c0      	nop			; (mov r8, r8)
     21c:	000077a0 	.word	0x000077a0

00000220 <mbed::SerialBase::~SerialBase()>:
     220:	b510      	push	{r4, lr}
     222:	4b03      	ldr	r3, [pc, #12]	; (230 <mbed::SerialBase::~SerialBase()+0x10>)
     224:	1c04      	adds	r4, r0, #0
     226:	6003      	str	r3, [r0, #0]
     228:	f002 fc90 	bl	2b4c <operator delete(void*)>
     22c:	1c20      	adds	r0, r4, #0
     22e:	bd10      	pop	{r4, pc}
     230:	000077a0 	.word	0x000077a0

00000234 <mbed::Serial::~Serial()>:
     234:	4b07      	ldr	r3, [pc, #28]	; (254 <mbed::Serial::~Serial()+0x20>)
     236:	b510      	push	{r4, lr}
     238:	1c1a      	adds	r2, r3, #0
     23a:	6003      	str	r3, [r0, #0]
     23c:	3218      	adds	r2, #24
     23e:	334c      	adds	r3, #76	; 0x4c
     240:	1c04      	adds	r4, r0, #0
     242:	6402      	str	r2, [r0, #64]	; 0x40
     244:	6443      	str	r3, [r0, #68]	; 0x44
     246:	3040      	adds	r0, #64	; 0x40
     248:	f002 f814 	bl	2274 <mbed::Stream::~Stream()>
     24c:	4b02      	ldr	r3, [pc, #8]	; (258 <mbed::Serial::~Serial()+0x24>)
     24e:	1c20      	adds	r0, r4, #0
     250:	6023      	str	r3, [r4, #0]
     252:	bd10      	pop	{r4, pc}
     254:	00007998 	.word	0x00007998
     258:	000077a0 	.word	0x000077a0

0000025c <non-virtual thunk to mbed::Serial::~Serial()>:
     25c:	b408      	push	{r3}
     25e:	4b02      	ldr	r3, [pc, #8]	; (268 <non-virtual thunk to mbed::Serial::~Serial()+0xc>)
     260:	469c      	mov	r12, r3
     262:	3844      	subs	r0, #68	; 0x44
     264:	bc08      	pop	{r3}
     266:	4760      	bx	r12
     268:	00000235 	.word	0x00000235

0000026c <non-virtual thunk to mbed::Serial::~Serial()>:
     26c:	b408      	push	{r3}
     26e:	4b02      	ldr	r3, [pc, #8]	; (278 <non-virtual thunk to mbed::Serial::~Serial()+0xc>)
     270:	469c      	mov	r12, r3
     272:	3840      	subs	r0, #64	; 0x40
     274:	bc08      	pop	{r3}
     276:	4760      	bx	r12
     278:	00000235 	.word	0x00000235

0000027c <mbed::Serial::~Serial()>:
     27c:	4b09      	ldr	r3, [pc, #36]	; (2a4 <mbed::Serial::~Serial()+0x28>)
     27e:	b510      	push	{r4, lr}
     280:	1c1a      	adds	r2, r3, #0
     282:	3218      	adds	r2, #24
     284:	6003      	str	r3, [r0, #0]
     286:	334c      	adds	r3, #76	; 0x4c
     288:	1c04      	adds	r4, r0, #0
     28a:	6402      	str	r2, [r0, #64]	; 0x40
     28c:	6443      	str	r3, [r0, #68]	; 0x44
     28e:	3040      	adds	r0, #64	; 0x40
     290:	f001 fff0 	bl	2274 <mbed::Stream::~Stream()>
     294:	4b04      	ldr	r3, [pc, #16]	; (2a8 <mbed::Serial::~Serial()+0x2c>)
     296:	1c20      	adds	r0, r4, #0
     298:	6023      	str	r3, [r4, #0]
     29a:	f002 fc57 	bl	2b4c <operator delete(void*)>
     29e:	1c20      	adds	r0, r4, #0
     2a0:	bd10      	pop	{r4, pc}
     2a2:	46c0      	nop			; (mov r8, r8)
     2a4:	00007998 	.word	0x00007998
     2a8:	000077a0 	.word	0x000077a0

000002ac <non-virtual thunk to mbed::Serial::~Serial()>:
     2ac:	b408      	push	{r3}
     2ae:	4b02      	ldr	r3, [pc, #8]	; (2b8 <non-virtual thunk to mbed::Serial::~Serial()+0xc>)
     2b0:	469c      	mov	r12, r3
     2b2:	3844      	subs	r0, #68	; 0x44
     2b4:	bc08      	pop	{r3}
     2b6:	4760      	bx	r12
     2b8:	0000027d 	.word	0x0000027d

000002bc <non-virtual thunk to mbed::Serial::~Serial()>:
     2bc:	b408      	push	{r3}
     2be:	4b02      	ldr	r3, [pc, #8]	; (2c8 <non-virtual thunk to mbed::Serial::~Serial()+0xc>)
     2c0:	469c      	mov	r12, r3
     2c2:	3840      	subs	r0, #64	; 0x40
     2c4:	bc08      	pop	{r3}
     2c6:	4760      	bx	r12
     2c8:	0000027d 	.word	0x0000027d
     2cc:	00000000 	.word	0x00000000

000002d0 <main>:
     2d0:	b5f0      	push	{r4, r5, r6, r7, lr}
     2d2:	465f      	mov	r7, r11
     2d4:	4656      	mov	r6, r10
     2d6:	464d      	mov	r5, r9
     2d8:	4644      	mov	r4, r8
     2da:	b4f0      	push	{r4, r5, r6, r7}
     2dc:	48ae      	ldr	r0, [pc, #696]	; (598 <main+0x2c8>)
     2de:	b089      	sub	sp, #36	; 0x24
     2e0:	2114      	movs	r1, #20
     2e2:	f001 fce9 	bl	1cb8 <pwmout_period_ms>
     2e6:	48ad      	ldr	r0, [pc, #692]	; (59c <main+0x2cc>)
     2e8:	2114      	movs	r1, #20
     2ea:	f001 fce5 	bl	1cb8 <pwmout_period_ms>
     2ee:	2114      	movs	r1, #20
     2f0:	48ab      	ldr	r0, [pc, #684]	; (5a0 <main+0x2d0>)
     2f2:	f001 fce1 	bl	1cb8 <pwmout_period_ms>
     2f6:	2100      	movs	r1, #0
     2f8:	4aaa      	ldr	r2, [pc, #680]	; (5a4 <main+0x2d4>)
     2fa:	9103      	str	r1, [sp, #12]
     2fc:	9106      	str	r1, [sp, #24]
     2fe:	49aa      	ldr	r1, [pc, #680]	; (5a8 <main+0x2d8>)
     300:	4693      	mov	r11, r2
     302:	468a      	mov	r10, r1
     304:	4aa9      	ldr	r2, [pc, #676]	; (5ac <main+0x2dc>)
     306:	49aa      	ldr	r1, [pc, #680]	; (5b0 <main+0x2e0>)
     308:	2300      	movs	r3, #0
     30a:	4691      	mov	r9, r2
     30c:	4688      	mov	r8, r1
     30e:	49a9      	ldr	r1, [pc, #676]	; (5b4 <main+0x2e4>)
     310:	694a      	ldr	r2, [r1, #20]
     312:	6849      	ldr	r1, [r1, #4]
     314:	6812      	ldr	r2, [r2, #0]
     316:	4211      	tst	r1, r2
     318:	d100      	bne.n	31c <main+0x4c>
     31a:	e112      	b.n	542 <main+0x272>
     31c:	2b01      	cmp	r3, #1
     31e:	d101      	bne.n	324 <main+0x54>
     320:	f000 fce9 	bl	cf6 <main+0xa26>
     324:	2b02      	cmp	r3, #2
     326:	d100      	bne.n	32a <main+0x5a>
     328:	e3cf      	b.n	aca <main+0x7fa>
     32a:	2b03      	cmp	r3, #3
     32c:	d049      	beq.n	3c2 <main+0xf2>
     32e:	2b04      	cmp	r3, #4
     330:	d101      	bne.n	336 <main+0x66>
     332:	f000 fdf7 	bl	f24 <main+0xc54>
     336:	2b05      	cmp	r3, #5
     338:	d101      	bne.n	33e <main+0x6e>
     33a:	f000 ff3f 	bl	11bc <main+0xeec>
     33e:	2b06      	cmp	r3, #6
     340:	d101      	bne.n	346 <main+0x76>
     342:	f001 f86c 	bl	141e <main+0x114e>
     346:	2b07      	cmp	r3, #7
     348:	d100      	bne.n	34c <main+0x7c>
     34a:	e1e9      	b.n	720 <main+0x450>
     34c:	2b08      	cmp	r3, #8
     34e:	d100      	bne.n	352 <main+0x82>
     350:	e1a2      	b.n	698 <main+0x3c8>
     352:	2b09      	cmp	r3, #9
     354:	d101      	bne.n	35a <main+0x8a>
     356:	f001 f968 	bl	162a <main+0x135a>
     35a:	2b0a      	cmp	r3, #10
     35c:	d100      	bne.n	360 <main+0x90>
     35e:	e28b      	b.n	878 <main+0x5a8>
     360:	2b0b      	cmp	r3, #11
     362:	d1d4      	bne.n	30e <main+0x3e>
     364:	4c94      	ldr	r4, [pc, #592]	; (5b8 <main+0x2e8>)
     366:	2196      	movs	r1, #150	; 0x96
     368:	488d      	ldr	r0, [pc, #564]	; (5a0 <main+0x2d0>)
     36a:	0109      	lsls	r1, r1, #4
     36c:	f001 fcce 	bl	1d0c <pwmout_pulsewidth_us>
     370:	4659      	mov	r1, r11
     372:	68cb      	ldr	r3, [r1, #12]
     374:	684a      	ldr	r2, [r1, #4]
     376:	4651      	mov	r1, r10
     378:	601a      	str	r2, [r3, #0]
     37a:	684a      	ldr	r2, [r1, #4]
     37c:	68cb      	ldr	r3, [r1, #12]
     37e:	21fe      	movs	r1, #254	; 0xfe
     380:	601a      	str	r2, [r3, #0]
     382:	4885      	ldr	r0, [pc, #532]	; (598 <main+0x2c8>)
     384:	0589      	lsls	r1, r1, #22
     386:	f001 fc71 	bl	1c6c <pwmout_write>
     38a:	4649      	mov	r1, r9
     38c:	68cb      	ldr	r3, [r1, #12]
     38e:	684a      	ldr	r2, [r1, #4]
     390:	4641      	mov	r1, r8
     392:	601a      	str	r2, [r3, #0]
     394:	684a      	ldr	r2, [r1, #4]
     396:	68cb      	ldr	r3, [r1, #12]
     398:	21fe      	movs	r1, #254	; 0xfe
     39a:	601a      	str	r2, [r3, #0]
     39c:	0589      	lsls	r1, r1, #22
     39e:	487f      	ldr	r0, [pc, #508]	; (59c <main+0x2cc>)
     3a0:	f001 fc64 	bl	1c6c <pwmout_write>
     3a4:	4885      	ldr	r0, [pc, #532]	; (5bc <main+0x2ec>)
     3a6:	f001 fd09 	bl	1dbc <wait>
     3aa:	4885      	ldr	r0, [pc, #532]	; (5c0 <main+0x2f0>)
     3ac:	1c21      	adds	r1, r4, #0
     3ae:	3040      	adds	r0, #64	; 0x40
     3b0:	f001 ffae 	bl	2310 <mbed::Stream::printf(char const*, ...)>
     3b4:	e7d7      	b.n	366 <main+0x96>
     3b6:	4882      	ldr	r0, [pc, #520]	; (5c0 <main+0x2f0>)
     3b8:	4982      	ldr	r1, [pc, #520]	; (5c4 <main+0x2f4>)
     3ba:	3040      	adds	r0, #64	; 0x40
     3bc:	f001 ffa8 	bl	2310 <mbed::Stream::printf(char const*, ...)>
     3c0:	9706      	str	r7, [sp, #24]
     3c2:	4881      	ldr	r0, [pc, #516]	; (5c8 <main+0x2f8>)
     3c4:	f001 fad8 	bl	1978 <analogin_read>
     3c8:	1c06      	adds	r6, r0, #0
     3ca:	4880      	ldr	r0, [pc, #512]	; (5cc <main+0x2fc>)
     3cc:	f001 fad4 	bl	1978 <analogin_read>
     3d0:	9007      	str	r0, [sp, #28]
     3d2:	487f      	ldr	r0, [pc, #508]	; (5d0 <main+0x300>)
     3d4:	f001 fad0 	bl	1978 <analogin_read>
     3d8:	9004      	str	r0, [sp, #16]
     3da:	9904      	ldr	r1, [sp, #16]
     3dc:	1c30      	adds	r0, r6, #0
     3de:	f003 f915 	bl	360c <__aeabi_fsub>
     3e2:	f005 f88f 	bl	5504 <__aeabi_f2d>
     3e6:	4b5b      	ldr	r3, [pc, #364]	; (554 <main+0x284>)
     3e8:	4a59      	ldr	r2, [pc, #356]	; (550 <main+0x280>)
     3ea:	f003 fb4b 	bl	3a84 <__aeabi_dadd>
     3ee:	f005 f8db 	bl	55a8 <__aeabi_d2f>
     3f2:	1c07      	adds	r7, r0, #0
     3f4:	9803      	ldr	r0, [sp, #12]
     3f6:	f005 f885 	bl	5504 <__aeabi_f2d>
     3fa:	1c04      	adds	r4, r0, #0
     3fc:	1c0d      	adds	r5, r1, #0
     3fe:	1c38      	adds	r0, r7, #0
     400:	9906      	ldr	r1, [sp, #24]
     402:	f002 fc91 	bl	2d28 <__aeabi_fadd>
     406:	f005 f87d 	bl	5504 <__aeabi_f2d>
     40a:	4a53      	ldr	r2, [pc, #332]	; (558 <main+0x288>)
     40c:	4b53      	ldr	r3, [pc, #332]	; (55c <main+0x28c>)
     40e:	f004 fabf 	bl	4990 <__aeabi_dmul>
     412:	1c02      	adds	r2, r0, #0
     414:	1c0b      	adds	r3, r1, #0
     416:	1c20      	adds	r0, r4, #0
     418:	1c29      	adds	r1, r5, #0
     41a:	f003 fb33 	bl	3a84 <__aeabi_dadd>
     41e:	f005 f8c3 	bl	55a8 <__aeabi_d2f>
     422:	9003      	str	r0, [sp, #12]
     424:	1c38      	adds	r0, r7, #0
     426:	f005 f86d 	bl	5504 <__aeabi_f2d>
     42a:	4a4d      	ldr	r2, [pc, #308]	; (560 <main+0x290>)
     42c:	4b4d      	ldr	r3, [pc, #308]	; (564 <main+0x294>)
     42e:	9000      	str	r0, [sp, #0]
     430:	9101      	str	r1, [sp, #4]
     432:	f004 faad 	bl	4990 <__aeabi_dmul>
     436:	1c04      	adds	r4, r0, #0
     438:	9803      	ldr	r0, [sp, #12]
     43a:	1c0d      	adds	r5, r1, #0
     43c:	f005 f862 	bl	5504 <__aeabi_f2d>
     440:	4a49      	ldr	r2, [pc, #292]	; (568 <main+0x298>)
     442:	4b4a      	ldr	r3, [pc, #296]	; (56c <main+0x29c>)
     444:	f004 faa4 	bl	4990 <__aeabi_dmul>
     448:	1c02      	adds	r2, r0, #0
     44a:	1c0b      	adds	r3, r1, #0
     44c:	1c20      	adds	r0, r4, #0
     44e:	1c29      	adds	r1, r5, #0
     450:	f003 fb18 	bl	3a84 <__aeabi_dadd>
     454:	1c04      	adds	r4, r0, #0
     456:	1c0d      	adds	r5, r1, #0
     458:	1c38      	adds	r0, r7, #0
     45a:	9906      	ldr	r1, [sp, #24]
     45c:	f003 f8d6 	bl	360c <__aeabi_fsub>
     460:	f005 f850 	bl	5504 <__aeabi_f2d>
     464:	4a42      	ldr	r2, [pc, #264]	; (570 <main+0x2a0>)
     466:	4b43      	ldr	r3, [pc, #268]	; (574 <main+0x2a4>)
     468:	f003 fe28 	bl	40bc <__aeabi_ddiv>
     46c:	f005 f89c 	bl	55a8 <__aeabi_d2f>
     470:	0040      	lsls	r0, r0, #1
     472:	0840      	lsrs	r0, r0, #1
     474:	f005 f846 	bl	5504 <__aeabi_f2d>
     478:	4a3f      	ldr	r2, [pc, #252]	; (578 <main+0x2a8>)
     47a:	4b40      	ldr	r3, [pc, #256]	; (57c <main+0x2ac>)
     47c:	f004 fa88 	bl	4990 <__aeabi_dmul>
     480:	1c02      	adds	r2, r0, #0
     482:	1c0b      	adds	r3, r1, #0
     484:	1c20      	adds	r0, r4, #0
     486:	1c29      	adds	r1, r5, #0
     488:	f003 fafc 	bl	3a84 <__aeabi_dadd>
     48c:	f005 f88c 	bl	55a8 <__aeabi_d2f>
     490:	4a3b      	ldr	r2, [pc, #236]	; (580 <main+0x2b0>)
     492:	4b3c      	ldr	r3, [pc, #240]	; (584 <main+0x2b4>)
     494:	1c04      	adds	r4, r0, #0
     496:	9800      	ldr	r0, [sp, #0]
     498:	9901      	ldr	r1, [sp, #4]
     49a:	f002 fbdf 	bl	2c5c <__aeabi_dcmpgt>
     49e:	2800      	cmp	r0, #0
     4a0:	d000      	beq.n	4a4 <main+0x1d4>
     4a2:	e26f      	b.n	984 <main+0x6b4>
     4a4:	9800      	ldr	r0, [sp, #0]
     4a6:	9901      	ldr	r1, [sp, #4]
     4a8:	4a37      	ldr	r2, [pc, #220]	; (588 <main+0x2b8>)
     4aa:	4b38      	ldr	r3, [pc, #224]	; (58c <main+0x2bc>)
     4ac:	f002 fbc2 	bl	2c34 <__aeabi_dcmplt>
     4b0:	465a      	mov	r2, r11
     4b2:	68d3      	ldr	r3, [r2, #12]
     4b4:	6851      	ldr	r1, [r2, #4]
     4b6:	4652      	mov	r2, r10
     4b8:	6019      	str	r1, [r3, #0]
     4ba:	6851      	ldr	r1, [r2, #4]
     4bc:	6913      	ldr	r3, [r2, #16]
     4be:	6019      	str	r1, [r3, #0]
     4c0:	2800      	cmp	r0, #0
     4c2:	d100      	bne.n	4c6 <main+0x1f6>
     4c4:	e205      	b.n	8d2 <main+0x602>
     4c6:	21fe      	movs	r1, #254	; 0xfe
     4c8:	4833      	ldr	r0, [pc, #204]	; (598 <main+0x2c8>)
     4ca:	0589      	lsls	r1, r1, #22
     4cc:	f001 fbce 	bl	1c6c <pwmout_write>
     4d0:	464a      	mov	r2, r9
     4d2:	68d3      	ldr	r3, [r2, #12]
     4d4:	6851      	ldr	r1, [r2, #4]
     4d6:	4642      	mov	r2, r8
     4d8:	6019      	str	r1, [r3, #0]
     4da:	6851      	ldr	r1, [r2, #4]
     4dc:	6913      	ldr	r3, [r2, #16]
     4de:	1c20      	adds	r0, r4, #0
     4e0:	6019      	str	r1, [r3, #0]
     4e2:	21fe      	movs	r1, #254	; 0xfe
     4e4:	0589      	lsls	r1, r1, #22
     4e6:	f002 fc1f 	bl	2d28 <__aeabi_fadd>
     4ea:	1c01      	adds	r1, r0, #0
     4ec:	482b      	ldr	r0, [pc, #172]	; (59c <main+0x2cc>)
     4ee:	f001 fbbd 	bl	1c6c <pwmout_write>
     4f2:	1c30      	adds	r0, r6, #0
     4f4:	f005 f806 	bl	5504 <__aeabi_f2d>
     4f8:	4a25      	ldr	r2, [pc, #148]	; (590 <main+0x2c0>)
     4fa:	4b26      	ldr	r3, [pc, #152]	; (594 <main+0x2c4>)
     4fc:	f002 fb9a 	bl	2c34 <__aeabi_dcmplt>
     500:	2800      	cmp	r0, #0
     502:	d100      	bne.n	506 <main+0x236>
     504:	e757      	b.n	3b6 <main+0xe6>
     506:	21fc      	movs	r1, #252	; 0xfc
     508:	9807      	ldr	r0, [sp, #28]
     50a:	0589      	lsls	r1, r1, #22
     50c:	f002 fbcc 	bl	2ca8 <__aeabi_fcmplt>
     510:	2800      	cmp	r0, #0
     512:	d100      	bne.n	516 <main+0x246>
     514:	e74f      	b.n	3b6 <main+0xe6>
     516:	9804      	ldr	r0, [sp, #16]
     518:	f004 fff4 	bl	5504 <__aeabi_f2d>
     51c:	4a1c      	ldr	r2, [pc, #112]	; (590 <main+0x2c0>)
     51e:	4b1d      	ldr	r3, [pc, #116]	; (594 <main+0x2c4>)
     520:	f002 fb88 	bl	2c34 <__aeabi_dcmplt>
     524:	2800      	cmp	r0, #0
     526:	d100      	bne.n	52a <main+0x25a>
     528:	e745      	b.n	3b6 <main+0xe6>
     52a:	482a      	ldr	r0, [pc, #168]	; (5d4 <main+0x304>)
     52c:	9706      	str	r7, [sp, #24]
     52e:	f001 fc45 	bl	1dbc <wait>
     532:	4920      	ldr	r1, [pc, #128]	; (5b4 <main+0x2e4>)
     534:	2304      	movs	r3, #4
     536:	694a      	ldr	r2, [r1, #20]
     538:	6849      	ldr	r1, [r1, #4]
     53a:	6812      	ldr	r2, [r2, #0]
     53c:	4211      	tst	r1, r2
     53e:	d000      	beq.n	542 <main+0x272>
     540:	e6ec      	b.n	31c <main+0x4c>
     542:	4817      	ldr	r0, [pc, #92]	; (5a0 <main+0x2d0>)
     544:	4924      	ldr	r1, [pc, #144]	; (5d8 <main+0x308>)
     546:	f001 fbe1 	bl	1d0c <pwmout_pulsewidth_us>
     54a:	2301      	movs	r3, #1
     54c:	e6df      	b.n	30e <main+0x3e>
     54e:	46c0      	nop			; (mov r8, r8)
     550:	d2f1a9fc 	.word	0xd2f1a9fc
     554:	3f70624d 	.word	0x3f70624d
     558:	47ae147b 	.word	0x47ae147b
     55c:	3f847ae1 	.word	0x3f847ae1
     560:	1eb851ec 	.word	0x1eb851ec
     564:	3fe9eb85 	.word	0x3fe9eb85
     568:	d2f1a9fc 	.word	0xd2f1a9fc
     56c:	3f60624d 	.word	0x3f60624d
     570:	47ae147b 	.word	0x47ae147b
     574:	3f947ae1 	.word	0x3f947ae1
     578:	020c49ba 	.word	0x020c49ba
     57c:	3f96872b 	.word	0x3f96872b
     580:	9999999a 	.word	0x9999999a
     584:	3fa99999 	.word	0x3fa99999
     588:	9999999a 	.word	0x9999999a
     58c:	bfa99999 	.word	0xbfa99999
     590:	cccccccd 	.word	0xcccccccd
     594:	3fdccccc 	.word	0x3fdccccc
     598:	10000264 	.word	0x10000264
     59c:	1000026c 	.word	0x1000026c
     5a0:	10000198 	.word	0x10000198
     5a4:	10000200 	.word	0x10000200
     5a8:	10000218 	.word	0x10000218
     5ac:	10000274 	.word	0x10000274
     5b0:	10000230 	.word	0x10000230
     5b4:	10000248 	.word	0x10000248
     5b8:	00007820 	.word	0x00007820
     5bc:	41200000 	.word	0x41200000
     5c0:	100001a0 	.word	0x100001a0
     5c4:	000077c0 	.word	0x000077c0
     5c8:	100001fc 	.word	0x100001fc
     5cc:	10000194 	.word	0x10000194
     5d0:	10000260 	.word	0x10000260
     5d4:	3d4ccccd 	.word	0x3d4ccccd
     5d8:	000008fc 	.word	0x000008fc
     5dc:	1c20      	adds	r0, r4, #0
     5de:	1c29      	adds	r1, r5, #0
     5e0:	4bd2      	ldr	r3, [pc, #840]	; (92c <main+0x65c>)
     5e2:	4ad1      	ldr	r2, [pc, #836]	; (928 <main+0x658>)
     5e4:	f002 fb3a 	bl	2c5c <__aeabi_dcmpgt>
     5e8:	2800      	cmp	r0, #0
     5ea:	d100      	bne.n	5ee <main+0x31e>
     5ec:	e1e9      	b.n	9c2 <main+0x6f2>
     5ee:	21fc      	movs	r1, #252	; 0xfc
     5f0:	1c30      	adds	r0, r6, #0
     5f2:	0589      	lsls	r1, r1, #22
     5f4:	f002 fb6c 	bl	2cd0 <__aeabi_fcmpgt>
     5f8:	2800      	cmp	r0, #0
     5fa:	d100      	bne.n	5fe <main+0x32e>
     5fc:	e1e1      	b.n	9c2 <main+0x6f2>
     5fe:	1c38      	adds	r0, r7, #0
     600:	f004 ff80 	bl	5504 <__aeabi_f2d>
     604:	4bc9      	ldr	r3, [pc, #804]	; (92c <main+0x65c>)
     606:	4ac8      	ldr	r2, [pc, #800]	; (928 <main+0x658>)
     608:	9000      	str	r0, [sp, #0]
     60a:	9101      	str	r1, [sp, #4]
     60c:	f002 fb26 	bl	2c5c <__aeabi_dcmpgt>
     610:	2800      	cmp	r0, #0
     612:	d000      	beq.n	616 <main+0x346>
     614:	e1f6      	b.n	a04 <main+0x734>
     616:	1c20      	adds	r0, r4, #0
     618:	1c29      	adds	r1, r5, #0
     61a:	4bc4      	ldr	r3, [pc, #784]	; (92c <main+0x65c>)
     61c:	4ac2      	ldr	r2, [pc, #776]	; (928 <main+0x658>)
     61e:	f002 fb09 	bl	2c34 <__aeabi_dcmplt>
     622:	2800      	cmp	r0, #0
     624:	d011      	beq.n	64a <main+0x37a>
     626:	9800      	ldr	r0, [sp, #0]
     628:	9901      	ldr	r1, [sp, #4]
     62a:	4bc0      	ldr	r3, [pc, #768]	; (92c <main+0x65c>)
     62c:	4abe      	ldr	r2, [pc, #760]	; (928 <main+0x658>)
     62e:	f002 fb15 	bl	2c5c <__aeabi_dcmpgt>
     632:	2800      	cmp	r0, #0
     634:	d000      	beq.n	638 <main+0x368>
     636:	e1ee      	b.n	a16 <main+0x746>
     638:	1c20      	adds	r0, r4, #0
     63a:	1c29      	adds	r1, r5, #0
     63c:	4bbb      	ldr	r3, [pc, #748]	; (92c <main+0x65c>)
     63e:	4aba      	ldr	r2, [pc, #744]	; (928 <main+0x658>)
     640:	f002 fb0c 	bl	2c5c <__aeabi_dcmpgt>
     644:	2800      	cmp	r0, #0
     646:	d100      	bne.n	64a <main+0x37a>
     648:	e1d2      	b.n	9f0 <main+0x720>
     64a:	21fc      	movs	r1, #252	; 0xfc
     64c:	1c30      	adds	r0, r6, #0
     64e:	0589      	lsls	r1, r1, #22
     650:	f002 fb2a 	bl	2ca8 <__aeabi_fcmplt>
     654:	2800      	cmp	r0, #0
     656:	d009      	beq.n	66c <main+0x39c>
     658:	1c38      	adds	r0, r7, #0
     65a:	f004 ff53 	bl	5504 <__aeabi_f2d>
     65e:	4bb3      	ldr	r3, [pc, #716]	; (92c <main+0x65c>)
     660:	4ab1      	ldr	r2, [pc, #708]	; (928 <main+0x658>)
     662:	f002 fafb 	bl	2c5c <__aeabi_dcmpgt>
     666:	2800      	cmp	r0, #0
     668:	d000      	beq.n	66c <main+0x39c>
     66a:	e1f2      	b.n	a52 <main+0x782>
     66c:	21fc      	movs	r1, #252	; 0xfc
     66e:	1c30      	adds	r0, r6, #0
     670:	0589      	lsls	r1, r1, #22
     672:	f002 fb2d 	bl	2cd0 <__aeabi_fcmpgt>
     676:	2800      	cmp	r0, #0
     678:	d009      	beq.n	68e <main+0x3be>
     67a:	1c38      	adds	r0, r7, #0
     67c:	f004 ff42 	bl	5504 <__aeabi_f2d>
     680:	4baa      	ldr	r3, [pc, #680]	; (92c <main+0x65c>)
     682:	4aa9      	ldr	r2, [pc, #676]	; (928 <main+0x658>)
     684:	f002 fad6 	bl	2c34 <__aeabi_dcmplt>
     688:	2800      	cmp	r0, #0
     68a:	d000      	beq.n	68e <main+0x3be>
     68c:	e1ff      	b.n	a8e <main+0x7be>
     68e:	48b0      	ldr	r0, [pc, #704]	; (950 <main+0x680>)
     690:	49b0      	ldr	r1, [pc, #704]	; (954 <main+0x684>)
     692:	3040      	adds	r0, #64	; 0x40
     694:	f001 fe3c 	bl	2310 <mbed::Stream::printf(char const*, ...)>
     698:	48af      	ldr	r0, [pc, #700]	; (958 <main+0x688>)
     69a:	f001 f96d 	bl	1978 <analogin_read>
     69e:	1c04      	adds	r4, r0, #0
     6a0:	48ae      	ldr	r0, [pc, #696]	; (95c <main+0x68c>)
     6a2:	f001 f969 	bl	1978 <analogin_read>
     6a6:	1c06      	adds	r6, r0, #0
     6a8:	48ad      	ldr	r0, [pc, #692]	; (960 <main+0x690>)
     6aa:	f001 f965 	bl	1978 <analogin_read>
     6ae:	1c07      	adds	r7, r0, #0
     6b0:	1c20      	adds	r0, r4, #0
     6b2:	f004 ff27 	bl	5504 <__aeabi_f2d>
     6b6:	4b9d      	ldr	r3, [pc, #628]	; (92c <main+0x65c>)
     6b8:	4a9b      	ldr	r2, [pc, #620]	; (928 <main+0x658>)
     6ba:	1c04      	adds	r4, r0, #0
     6bc:	1c0d      	adds	r5, r1, #0
     6be:	f002 fab9 	bl	2c34 <__aeabi_dcmplt>
     6c2:	2800      	cmp	r0, #0
     6c4:	d08a      	beq.n	5dc <main+0x30c>
     6c6:	21fc      	movs	r1, #252	; 0xfc
     6c8:	1c30      	adds	r0, r6, #0
     6ca:	0589      	lsls	r1, r1, #22
     6cc:	f002 faec 	bl	2ca8 <__aeabi_fcmplt>
     6d0:	2800      	cmp	r0, #0
     6d2:	d100      	bne.n	6d6 <main+0x406>
     6d4:	e782      	b.n	5dc <main+0x30c>
     6d6:	1c38      	adds	r0, r7, #0
     6d8:	f004 ff14 	bl	5504 <__aeabi_f2d>
     6dc:	4b93      	ldr	r3, [pc, #588]	; (92c <main+0x65c>)
     6de:	4a92      	ldr	r2, [pc, #584]	; (928 <main+0x658>)
     6e0:	f002 faa8 	bl	2c34 <__aeabi_dcmplt>
     6e4:	2800      	cmp	r0, #0
     6e6:	d100      	bne.n	6ea <main+0x41a>
     6e8:	e778      	b.n	5dc <main+0x30c>
     6ea:	489e      	ldr	r0, [pc, #632]	; (964 <main+0x694>)
     6ec:	f001 fb66 	bl	1dbc <wait>
     6f0:	2309      	movs	r3, #9
     6f2:	e60c      	b.n	30e <main+0x3e>
     6f4:	1c30      	adds	r0, r6, #0
     6f6:	f004 ff05 	bl	5504 <__aeabi_f2d>
     6fa:	4a8d      	ldr	r2, [pc, #564]	; (930 <main+0x660>)
     6fc:	4b8d      	ldr	r3, [pc, #564]	; (934 <main+0x664>)
     6fe:	f002 fa99 	bl	2c34 <__aeabi_dcmplt>
     702:	2800      	cmp	r0, #0
     704:	d155      	bne.n	7b2 <main+0x4e2>
     706:	1c38      	adds	r0, r7, #0
     708:	f004 fefc 	bl	5504 <__aeabi_f2d>
     70c:	4a88      	ldr	r2, [pc, #544]	; (930 <main+0x660>)
     70e:	4b89      	ldr	r3, [pc, #548]	; (934 <main+0x664>)
     710:	f002 fa90 	bl	2c34 <__aeabi_dcmplt>
     714:	2800      	cmp	r0, #0
     716:	d14c      	bne.n	7b2 <main+0x4e2>
     718:	4893      	ldr	r0, [pc, #588]	; (968 <main+0x698>)
     71a:	4994      	ldr	r1, [pc, #592]	; (96c <main+0x69c>)
     71c:	f001 fdf8 	bl	2310 <mbed::Stream::printf(char const*, ...)>
     720:	488d      	ldr	r0, [pc, #564]	; (958 <main+0x688>)
     722:	f001 f929 	bl	1978 <analogin_read>
     726:	1c04      	adds	r4, r0, #0
     728:	488c      	ldr	r0, [pc, #560]	; (95c <main+0x68c>)
     72a:	f001 f925 	bl	1978 <analogin_read>
     72e:	1c06      	adds	r6, r0, #0
     730:	488b      	ldr	r0, [pc, #556]	; (960 <main+0x690>)
     732:	f001 f921 	bl	1978 <analogin_read>
     736:	4659      	mov	r1, r11
     738:	68cb      	ldr	r3, [r1, #12]
     73a:	684a      	ldr	r2, [r1, #4]
     73c:	4651      	mov	r1, r10
     73e:	601a      	str	r2, [r3, #0]
     740:	684a      	ldr	r2, [r1, #4]
     742:	690b      	ldr	r3, [r1, #16]
     744:	1c07      	adds	r7, r0, #0
     746:	601a      	str	r2, [r3, #0]
     748:	4889      	ldr	r0, [pc, #548]	; (970 <main+0x6a0>)
     74a:	498a      	ldr	r1, [pc, #552]	; (974 <main+0x6a4>)
     74c:	f001 fa8e 	bl	1c6c <pwmout_write>
     750:	4649      	mov	r1, r9
     752:	68cb      	ldr	r3, [r1, #12]
     754:	684a      	ldr	r2, [r1, #4]
     756:	4641      	mov	r1, r8
     758:	601a      	str	r2, [r3, #0]
     75a:	684a      	ldr	r2, [r1, #4]
     75c:	690b      	ldr	r3, [r1, #16]
     75e:	4886      	ldr	r0, [pc, #536]	; (978 <main+0x6a8>)
     760:	601a      	str	r2, [r3, #0]
     762:	4986      	ldr	r1, [pc, #536]	; (97c <main+0x6ac>)
     764:	f001 fa82 	bl	1c6c <pwmout_write>
     768:	1c20      	adds	r0, r4, #0
     76a:	f004 fecb 	bl	5504 <__aeabi_f2d>
     76e:	4a72      	ldr	r2, [pc, #456]	; (938 <main+0x668>)
     770:	4b72      	ldr	r3, [pc, #456]	; (93c <main+0x66c>)
     772:	1c04      	adds	r4, r0, #0
     774:	1c0d      	adds	r5, r1, #0
     776:	f002 fa71 	bl	2c5c <__aeabi_dcmpgt>
     77a:	2800      	cmp	r0, #0
     77c:	d111      	bne.n	7a2 <main+0x4d2>
     77e:	1c30      	adds	r0, r6, #0
     780:	f004 fec0 	bl	5504 <__aeabi_f2d>
     784:	4a6c      	ldr	r2, [pc, #432]	; (938 <main+0x668>)
     786:	4b6d      	ldr	r3, [pc, #436]	; (93c <main+0x66c>)
     788:	f002 fa68 	bl	2c5c <__aeabi_dcmpgt>
     78c:	2800      	cmp	r0, #0
     78e:	d108      	bne.n	7a2 <main+0x4d2>
     790:	1c38      	adds	r0, r7, #0
     792:	f004 feb7 	bl	5504 <__aeabi_f2d>
     796:	4a68      	ldr	r2, [pc, #416]	; (938 <main+0x668>)
     798:	4b68      	ldr	r3, [pc, #416]	; (93c <main+0x66c>)
     79a:	f002 fa5f 	bl	2c5c <__aeabi_dcmpgt>
     79e:	2800      	cmp	r0, #0
     7a0:	d0ba      	beq.n	718 <main+0x448>
     7a2:	1c20      	adds	r0, r4, #0
     7a4:	1c29      	adds	r1, r5, #0
     7a6:	4a62      	ldr	r2, [pc, #392]	; (930 <main+0x660>)
     7a8:	4b62      	ldr	r3, [pc, #392]	; (934 <main+0x664>)
     7aa:	f002 fa43 	bl	2c34 <__aeabi_dcmplt>
     7ae:	2800      	cmp	r0, #0
     7b0:	d0a0      	beq.n	6f4 <main+0x424>
     7b2:	2308      	movs	r3, #8
     7b4:	e5ab      	b.n	30e <main+0x3e>
     7b6:	21fc      	movs	r1, #252	; 0xfc
     7b8:	1c30      	adds	r0, r6, #0
     7ba:	0589      	lsls	r1, r1, #22
     7bc:	f002 fa88 	bl	2cd0 <__aeabi_fcmpgt>
     7c0:	2800      	cmp	r0, #0
     7c2:	d071      	beq.n	8a8 <main+0x5d8>
     7c4:	1c38      	adds	r0, r7, #0
     7c6:	f004 fe9d 	bl	5504 <__aeabi_f2d>
     7ca:	4b58      	ldr	r3, [pc, #352]	; (92c <main+0x65c>)
     7cc:	4a56      	ldr	r2, [pc, #344]	; (928 <main+0x658>)
     7ce:	9000      	str	r0, [sp, #0]
     7d0:	9101      	str	r1, [sp, #4]
     7d2:	f002 fa43 	bl	2c5c <__aeabi_dcmpgt>
     7d6:	2800      	cmp	r0, #0
     7d8:	d001      	beq.n	7de <main+0x50e>
     7da:	f000 fefd 	bl	15d8 <main+0x1308>
     7de:	1c20      	adds	r0, r4, #0
     7e0:	1c29      	adds	r1, r5, #0
     7e2:	4b52      	ldr	r3, [pc, #328]	; (92c <main+0x65c>)
     7e4:	4a50      	ldr	r2, [pc, #320]	; (928 <main+0x658>)
     7e6:	f002 fa25 	bl	2c34 <__aeabi_dcmplt>
     7ea:	2800      	cmp	r0, #0
     7ec:	d013      	beq.n	816 <main+0x546>
     7ee:	9800      	ldr	r0, [sp, #0]
     7f0:	9901      	ldr	r1, [sp, #4]
     7f2:	4b4e      	ldr	r3, [pc, #312]	; (92c <main+0x65c>)
     7f4:	4a4c      	ldr	r2, [pc, #304]	; (928 <main+0x658>)
     7f6:	f002 fa31 	bl	2c5c <__aeabi_dcmpgt>
     7fa:	2800      	cmp	r0, #0
     7fc:	d001      	beq.n	802 <main+0x532>
     7fe:	f000 fecc 	bl	159a <main+0x12ca>
     802:	1c20      	adds	r0, r4, #0
     804:	1c29      	adds	r1, r5, #0
     806:	4b49      	ldr	r3, [pc, #292]	; (92c <main+0x65c>)
     808:	4a47      	ldr	r2, [pc, #284]	; (928 <main+0x658>)
     80a:	f002 fa27 	bl	2c5c <__aeabi_dcmpgt>
     80e:	2800      	cmp	r0, #0
     810:	d101      	bne.n	816 <main+0x546>
     812:	f000 fcc7 	bl	11a4 <main+0xed4>
     816:	21fc      	movs	r1, #252	; 0xfc
     818:	1c30      	adds	r0, r6, #0
     81a:	0589      	lsls	r1, r1, #22
     81c:	f002 fa44 	bl	2ca8 <__aeabi_fcmplt>
     820:	2800      	cmp	r0, #0
     822:	d00a      	beq.n	83a <main+0x56a>
     824:	1c38      	adds	r0, r7, #0
     826:	f004 fe6d 	bl	5504 <__aeabi_f2d>
     82a:	4b40      	ldr	r3, [pc, #256]	; (92c <main+0x65c>)
     82c:	4a3e      	ldr	r2, [pc, #248]	; (928 <main+0x658>)
     82e:	f002 fa15 	bl	2c5c <__aeabi_dcmpgt>
     832:	2800      	cmp	r0, #0
     834:	d001      	beq.n	83a <main+0x56a>
     836:	f000 fed9 	bl	15ec <main+0x131c>
     83a:	21fc      	movs	r1, #252	; 0xfc
     83c:	1c30      	adds	r0, r6, #0
     83e:	0589      	lsls	r1, r1, #22
     840:	f002 fa46 	bl	2cd0 <__aeabi_fcmpgt>
     844:	2800      	cmp	r0, #0
     846:	d00a      	beq.n	85e <main+0x58e>
     848:	1c38      	adds	r0, r7, #0
     84a:	f004 fe5b 	bl	5504 <__aeabi_f2d>
     84e:	4b37      	ldr	r3, [pc, #220]	; (92c <main+0x65c>)
     850:	4a35      	ldr	r2, [pc, #212]	; (928 <main+0x658>)
     852:	f002 f9ef 	bl	2c34 <__aeabi_dcmplt>
     856:	2800      	cmp	r0, #0
     858:	d001      	beq.n	85e <main+0x58e>
     85a:	f000 fe7f 	bl	155c <main+0x128c>
     85e:	4848      	ldr	r0, [pc, #288]	; (980 <main+0x6b0>)
     860:	f001 f88a 	bl	1978 <analogin_read>
     864:	f004 fe4e 	bl	5504 <__aeabi_f2d>
     868:	4a35      	ldr	r2, [pc, #212]	; (940 <main+0x670>)
     86a:	4b36      	ldr	r3, [pc, #216]	; (944 <main+0x674>)
     86c:	f002 f9f6 	bl	2c5c <__aeabi_dcmpgt>
     870:	2800      	cmp	r0, #0
     872:	d001      	beq.n	878 <main+0x5a8>
     874:	f000 fe4b 	bl	150e <main+0x123e>
     878:	4837      	ldr	r0, [pc, #220]	; (958 <main+0x688>)
     87a:	f001 f87d 	bl	1978 <analogin_read>
     87e:	1c04      	adds	r4, r0, #0
     880:	4836      	ldr	r0, [pc, #216]	; (95c <main+0x68c>)
     882:	f001 f879 	bl	1978 <analogin_read>
     886:	1c06      	adds	r6, r0, #0
     888:	4835      	ldr	r0, [pc, #212]	; (960 <main+0x690>)
     88a:	f001 f875 	bl	1978 <analogin_read>
     88e:	1c07      	adds	r7, r0, #0
     890:	1c20      	adds	r0, r4, #0
     892:	f004 fe37 	bl	5504 <__aeabi_f2d>
     896:	4b25      	ldr	r3, [pc, #148]	; (92c <main+0x65c>)
     898:	4a23      	ldr	r2, [pc, #140]	; (928 <main+0x658>)
     89a:	1c04      	adds	r4, r0, #0
     89c:	1c0d      	adds	r5, r1, #0
     89e:	f002 f9dd 	bl	2c5c <__aeabi_dcmpgt>
     8a2:	2800      	cmp	r0, #0
     8a4:	d000      	beq.n	8a8 <main+0x5d8>
     8a6:	e786      	b.n	7b6 <main+0x4e6>
     8a8:	1c20      	adds	r0, r4, #0
     8aa:	1c29      	adds	r1, r5, #0
     8ac:	4b1f      	ldr	r3, [pc, #124]	; (92c <main+0x65c>)
     8ae:	4a1e      	ldr	r2, [pc, #120]	; (928 <main+0x658>)
     8b0:	f002 f9c0 	bl	2c34 <__aeabi_dcmplt>
     8b4:	2800      	cmp	r0, #0
     8b6:	d0a4      	beq.n	802 <main+0x532>
     8b8:	21fc      	movs	r1, #252	; 0xfc
     8ba:	1c30      	adds	r0, r6, #0
     8bc:	0589      	lsls	r1, r1, #22
     8be:	f002 fa07 	bl	2cd0 <__aeabi_fcmpgt>
     8c2:	2800      	cmp	r0, #0
     8c4:	d09d      	beq.n	802 <main+0x532>
     8c6:	1c38      	adds	r0, r7, #0
     8c8:	f004 fe1c 	bl	5504 <__aeabi_f2d>
     8cc:	9000      	str	r0, [sp, #0]
     8ce:	9101      	str	r1, [sp, #4]
     8d0:	e78d      	b.n	7ee <main+0x51e>
     8d2:	1c20      	adds	r0, r4, #0
     8d4:	f004 fe16 	bl	5504 <__aeabi_f2d>
     8d8:	1c04      	adds	r4, r0, #0
     8da:	1c0d      	adds	r5, r1, #0
     8dc:	1c22      	adds	r2, r4, #0
     8de:	1c2b      	adds	r3, r5, #0
     8e0:	4819      	ldr	r0, [pc, #100]	; (948 <main+0x678>)
     8e2:	491a      	ldr	r1, [pc, #104]	; (94c <main+0x67c>)
     8e4:	f004 fae4 	bl	4eb0 <__aeabi_dsub>
     8e8:	f004 fe5e 	bl	55a8 <__aeabi_d2f>
     8ec:	1c01      	adds	r1, r0, #0
     8ee:	4820      	ldr	r0, [pc, #128]	; (970 <main+0x6a0>)
     8f0:	f001 f9bc 	bl	1c6c <pwmout_write>
     8f4:	464a      	mov	r2, r9
     8f6:	68d3      	ldr	r3, [r2, #12]
     8f8:	6851      	ldr	r1, [r2, #4]
     8fa:	4642      	mov	r2, r8
     8fc:	6019      	str	r1, [r3, #0]
     8fe:	6851      	ldr	r1, [r2, #4]
     900:	6913      	ldr	r3, [r2, #16]
     902:	1c20      	adds	r0, r4, #0
     904:	6019      	str	r1, [r3, #0]
     906:	4a10      	ldr	r2, [pc, #64]	; (948 <main+0x678>)
     908:	4b10      	ldr	r3, [pc, #64]	; (94c <main+0x67c>)
     90a:	1c29      	adds	r1, r5, #0
     90c:	f003 f8ba 	bl	3a84 <__aeabi_dadd>
     910:	f004 fe4a 	bl	55a8 <__aeabi_d2f>
     914:	1c01      	adds	r1, r0, #0
     916:	4818      	ldr	r0, [pc, #96]	; (978 <main+0x6a8>)
     918:	f001 f9a8 	bl	1c6c <pwmout_write>
     91c:	2200      	movs	r2, #0
     91e:	9203      	str	r2, [sp, #12]
     920:	e5e7      	b.n	4f2 <main+0x222>
     922:	46c0      	nop			; (mov r8, r8)
     924:	46c0      	nop			; (mov r8, r8)
     926:	46c0      	nop			; (mov r8, r8)
     928:	cccccccd 	.word	0xcccccccd
     92c:	3fdccccc 	.word	0x3fdccccc
     930:	9999999a 	.word	0x9999999a
     934:	3fd99999 	.word	0x3fd99999
     938:	33333333 	.word	0x33333333
     93c:	3fe33333 	.word	0x3fe33333
     940:	cccccccd 	.word	0xcccccccd
     944:	3feccccc 	.word	0x3feccccc
     948:	9999999a 	.word	0x9999999a
     94c:	3fe99999 	.word	0x3fe99999
     950:	100001a0 	.word	0x100001a0
     954:	000077fc 	.word	0x000077fc
     958:	100001fc 	.word	0x100001fc
     95c:	10000194 	.word	0x10000194
     960:	10000260 	.word	0x10000260
     964:	3d4ccccd 	.word	0x3d4ccccd
     968:	100001e0 	.word	0x100001e0
     96c:	000077f0 	.word	0x000077f0
     970:	10000264 	.word	0x10000264
     974:	3e4ccccd 	.word	0x3e4ccccd
     978:	1000026c 	.word	0x1000026c
     97c:	3f4ccccd 	.word	0x3f4ccccd
     980:	10000178 	.word	0x10000178
     984:	465a      	mov	r2, r11
     986:	68d3      	ldr	r3, [r2, #12]
     988:	6851      	ldr	r1, [r2, #4]
     98a:	4652      	mov	r2, r10
     98c:	6019      	str	r1, [r3, #0]
     98e:	6851      	ldr	r1, [r2, #4]
     990:	6913      	ldr	r3, [r2, #16]
     992:	20fe      	movs	r0, #254	; 0xfe
     994:	6019      	str	r1, [r3, #0]
     996:	0580      	lsls	r0, r0, #22
     998:	1c21      	adds	r1, r4, #0
     99a:	f002 fe37 	bl	360c <__aeabi_fsub>
     99e:	1c01      	adds	r1, r0, #0
     9a0:	48d9      	ldr	r0, [pc, #868]	; (d08 <main+0xa38>)
     9a2:	f001 f963 	bl	1c6c <pwmout_write>
     9a6:	464a      	mov	r2, r9
     9a8:	68d3      	ldr	r3, [r2, #12]
     9aa:	6851      	ldr	r1, [r2, #4]
     9ac:	4642      	mov	r2, r8
     9ae:	6019      	str	r1, [r3, #0]
     9b0:	6851      	ldr	r1, [r2, #4]
     9b2:	6913      	ldr	r3, [r2, #16]
     9b4:	48d5      	ldr	r0, [pc, #852]	; (d0c <main+0xa3c>)
     9b6:	6019      	str	r1, [r3, #0]
     9b8:	21fe      	movs	r1, #254	; 0xfe
     9ba:	0589      	lsls	r1, r1, #22
     9bc:	f001 f956 	bl	1c6c <pwmout_write>
     9c0:	e597      	b.n	4f2 <main+0x222>
     9c2:	1c20      	adds	r0, r4, #0
     9c4:	1c29      	adds	r1, r5, #0
     9c6:	4bcf      	ldr	r3, [pc, #828]	; (d04 <main+0xa34>)
     9c8:	4acd      	ldr	r2, [pc, #820]	; (d00 <main+0xa30>)
     9ca:	f002 f933 	bl	2c34 <__aeabi_dcmplt>
     9ce:	2800      	cmp	r0, #0
     9d0:	d100      	bne.n	9d4 <main+0x704>
     9d2:	e631      	b.n	638 <main+0x368>
     9d4:	21fc      	movs	r1, #252	; 0xfc
     9d6:	1c30      	adds	r0, r6, #0
     9d8:	0589      	lsls	r1, r1, #22
     9da:	f002 f979 	bl	2cd0 <__aeabi_fcmpgt>
     9de:	2800      	cmp	r0, #0
     9e0:	d100      	bne.n	9e4 <main+0x714>
     9e2:	e629      	b.n	638 <main+0x368>
     9e4:	1c38      	adds	r0, r7, #0
     9e6:	f004 fd8d 	bl	5504 <__aeabi_f2d>
     9ea:	9000      	str	r0, [sp, #0]
     9ec:	9101      	str	r1, [sp, #4]
     9ee:	e61a      	b.n	626 <main+0x356>
     9f0:	1c20      	adds	r0, r4, #0
     9f2:	1c29      	adds	r1, r5, #0
     9f4:	4bc3      	ldr	r3, [pc, #780]	; (d04 <main+0xa34>)
     9f6:	4ac2      	ldr	r2, [pc, #776]	; (d00 <main+0xa30>)
     9f8:	f002 f930 	bl	2c5c <__aeabi_dcmpgt>
     9fc:	2800      	cmp	r0, #0
     9fe:	d100      	bne.n	a02 <main+0x732>
     a00:	e645      	b.n	68e <main+0x3be>
     a02:	e633      	b.n	66c <main+0x39c>
     a04:	48c2      	ldr	r0, [pc, #776]	; (d10 <main+0xa40>)
     a06:	f001 f9d9 	bl	1dbc <wait>
     a0a:	2196      	movs	r1, #150	; 0x96
     a0c:	48c1      	ldr	r0, [pc, #772]	; (d14 <main+0xa44>)
     a0e:	0109      	lsls	r1, r1, #4
     a10:	f001 f97c 	bl	1d0c <pwmout_pulsewidth_us>
     a14:	e63b      	b.n	68e <main+0x3be>
     a16:	2196      	movs	r1, #150	; 0x96
     a18:	48be      	ldr	r0, [pc, #760]	; (d14 <main+0xa44>)
     a1a:	0109      	lsls	r1, r1, #4
     a1c:	f001 f976 	bl	1d0c <pwmout_pulsewidth_us>
     a20:	4659      	mov	r1, r11
     a22:	68cb      	ldr	r3, [r1, #12]
     a24:	684a      	ldr	r2, [r1, #4]
     a26:	4651      	mov	r1, r10
     a28:	601a      	str	r2, [r3, #0]
     a2a:	684a      	ldr	r2, [r1, #4]
     a2c:	690b      	ldr	r3, [r1, #16]
     a2e:	48b6      	ldr	r0, [pc, #728]	; (d08 <main+0xa38>)
     a30:	601a      	str	r2, [r3, #0]
     a32:	49b9      	ldr	r1, [pc, #740]	; (d18 <main+0xa48>)
     a34:	f001 f91a 	bl	1c6c <pwmout_write>
     a38:	4649      	mov	r1, r9
     a3a:	68cb      	ldr	r3, [r1, #12]
     a3c:	684a      	ldr	r2, [r1, #4]
     a3e:	4641      	mov	r1, r8
     a40:	601a      	str	r2, [r3, #0]
     a42:	684a      	ldr	r2, [r1, #4]
     a44:	690b      	ldr	r3, [r1, #16]
     a46:	48b1      	ldr	r0, [pc, #708]	; (d0c <main+0xa3c>)
     a48:	601a      	str	r2, [r3, #0]
     a4a:	49b4      	ldr	r1, [pc, #720]	; (d1c <main+0xa4c>)
     a4c:	f001 f90e 	bl	1c6c <pwmout_write>
     a50:	e61d      	b.n	68e <main+0x3be>
     a52:	2196      	movs	r1, #150	; 0x96
     a54:	48af      	ldr	r0, [pc, #700]	; (d14 <main+0xa44>)
     a56:	0109      	lsls	r1, r1, #4
     a58:	f001 f958 	bl	1d0c <pwmout_pulsewidth_us>
     a5c:	4659      	mov	r1, r11
     a5e:	68cb      	ldr	r3, [r1, #12]
     a60:	684a      	ldr	r2, [r1, #4]
     a62:	4651      	mov	r1, r10
     a64:	601a      	str	r2, [r3, #0]
     a66:	684a      	ldr	r2, [r1, #4]
     a68:	690b      	ldr	r3, [r1, #16]
     a6a:	48a7      	ldr	r0, [pc, #668]	; (d08 <main+0xa38>)
     a6c:	601a      	str	r2, [r3, #0]
     a6e:	49ac      	ldr	r1, [pc, #688]	; (d20 <main+0xa50>)
     a70:	f001 f8fc 	bl	1c6c <pwmout_write>
     a74:	4649      	mov	r1, r9
     a76:	68cb      	ldr	r3, [r1, #12]
     a78:	684a      	ldr	r2, [r1, #4]
     a7a:	4641      	mov	r1, r8
     a7c:	601a      	str	r2, [r3, #0]
     a7e:	684a      	ldr	r2, [r1, #4]
     a80:	690b      	ldr	r3, [r1, #16]
     a82:	48a2      	ldr	r0, [pc, #648]	; (d0c <main+0xa3c>)
     a84:	601a      	str	r2, [r3, #0]
     a86:	49a6      	ldr	r1, [pc, #664]	; (d20 <main+0xa50>)
     a88:	f001 f8f0 	bl	1c6c <pwmout_write>
     a8c:	e5ff      	b.n	68e <main+0x3be>
     a8e:	2196      	movs	r1, #150	; 0x96
     a90:	48a0      	ldr	r0, [pc, #640]	; (d14 <main+0xa44>)
     a92:	0109      	lsls	r1, r1, #4
     a94:	f001 f93a 	bl	1d0c <pwmout_pulsewidth_us>
     a98:	4659      	mov	r1, r11
     a9a:	68cb      	ldr	r3, [r1, #12]
     a9c:	684a      	ldr	r2, [r1, #4]
     a9e:	4651      	mov	r1, r10
     aa0:	601a      	str	r2, [r3, #0]
     aa2:	684a      	ldr	r2, [r1, #4]
     aa4:	690b      	ldr	r3, [r1, #16]
     aa6:	4898      	ldr	r0, [pc, #608]	; (d08 <main+0xa38>)
     aa8:	601a      	str	r2, [r3, #0]
     aaa:	499c      	ldr	r1, [pc, #624]	; (d1c <main+0xa4c>)
     aac:	f001 f8de 	bl	1c6c <pwmout_write>
     ab0:	4649      	mov	r1, r9
     ab2:	68cb      	ldr	r3, [r1, #12]
     ab4:	684a      	ldr	r2, [r1, #4]
     ab6:	4641      	mov	r1, r8
     ab8:	601a      	str	r2, [r3, #0]
     aba:	684a      	ldr	r2, [r1, #4]
     abc:	690b      	ldr	r3, [r1, #16]
     abe:	4893      	ldr	r0, [pc, #588]	; (d0c <main+0xa3c>)
     ac0:	601a      	str	r2, [r3, #0]
     ac2:	4995      	ldr	r1, [pc, #596]	; (d18 <main+0xa48>)
     ac4:	f001 f8d2 	bl	1c6c <pwmout_write>
     ac8:	e5e1      	b.n	68e <main+0x3be>
     aca:	4e96      	ldr	r6, [pc, #600]	; (d24 <main+0xa54>)
     acc:	1c37      	adds	r7, r6, #0
     ace:	e050      	b.n	b72 <main+0x8a2>
     ad0:	21fc      	movs	r1, #252	; 0xfc
     ad2:	1c30      	adds	r0, r6, #0
     ad4:	0589      	lsls	r1, r1, #22
     ad6:	f002 f8fb 	bl	2cd0 <__aeabi_fcmpgt>
     ada:	2800      	cmp	r0, #0
     adc:	d060      	beq.n	ba0 <main+0x8d0>
     ade:	9800      	ldr	r0, [sp, #0]
     ae0:	f004 fd10 	bl	5504 <__aeabi_f2d>
     ae4:	4b87      	ldr	r3, [pc, #540]	; (d04 <main+0xa34>)
     ae6:	4a86      	ldr	r2, [pc, #536]	; (d00 <main+0xa30>)
     ae8:	9004      	str	r0, [sp, #16]
     aea:	9105      	str	r1, [sp, #20]
     aec:	f002 f8b6 	bl	2c5c <__aeabi_dcmpgt>
     af0:	2800      	cmp	r0, #0
     af2:	d000      	beq.n	af6 <main+0x826>
     af4:	e09c      	b.n	c30 <main+0x960>
     af6:	1c20      	adds	r0, r4, #0
     af8:	1c29      	adds	r1, r5, #0
     afa:	4b82      	ldr	r3, [pc, #520]	; (d04 <main+0xa34>)
     afc:	4a80      	ldr	r2, [pc, #512]	; (d00 <main+0xa30>)
     afe:	f002 f899 	bl	2c34 <__aeabi_dcmplt>
     b02:	2800      	cmp	r0, #0
     b04:	d010      	beq.n	b28 <main+0x858>
     b06:	9804      	ldr	r0, [sp, #16]
     b08:	9905      	ldr	r1, [sp, #20]
     b0a:	4b7e      	ldr	r3, [pc, #504]	; (d04 <main+0xa34>)
     b0c:	4a7c      	ldr	r2, [pc, #496]	; (d00 <main+0xa30>)
     b0e:	f002 f8a5 	bl	2c5c <__aeabi_dcmpgt>
     b12:	2800      	cmp	r0, #0
     b14:	d000      	beq.n	b18 <main+0x848>
     b16:	e094      	b.n	c42 <main+0x972>
     b18:	1c20      	adds	r0, r4, #0
     b1a:	1c29      	adds	r1, r5, #0
     b1c:	4b79      	ldr	r3, [pc, #484]	; (d04 <main+0xa34>)
     b1e:	4a78      	ldr	r2, [pc, #480]	; (d00 <main+0xa30>)
     b20:	f002 f89c 	bl	2c5c <__aeabi_dcmpgt>
     b24:	2800      	cmp	r0, #0
     b26:	d050      	beq.n	bca <main+0x8fa>
     b28:	21fc      	movs	r1, #252	; 0xfc
     b2a:	1c30      	adds	r0, r6, #0
     b2c:	0589      	lsls	r1, r1, #22
     b2e:	f002 f8bb 	bl	2ca8 <__aeabi_fcmplt>
     b32:	2800      	cmp	r0, #0
     b34:	d009      	beq.n	b4a <main+0x87a>
     b36:	9800      	ldr	r0, [sp, #0]
     b38:	f004 fce4 	bl	5504 <__aeabi_f2d>
     b3c:	4b71      	ldr	r3, [pc, #452]	; (d04 <main+0xa34>)
     b3e:	4a70      	ldr	r2, [pc, #448]	; (d00 <main+0xa30>)
     b40:	f002 f88c 	bl	2c5c <__aeabi_dcmpgt>
     b44:	2800      	cmp	r0, #0
     b46:	d000      	beq.n	b4a <main+0x87a>
     b48:	e099      	b.n	c7e <main+0x9ae>
     b4a:	21fc      	movs	r1, #252	; 0xfc
     b4c:	1c30      	adds	r0, r6, #0
     b4e:	0589      	lsls	r1, r1, #22
     b50:	f002 f8be 	bl	2cd0 <__aeabi_fcmpgt>
     b54:	2800      	cmp	r0, #0
     b56:	d009      	beq.n	b6c <main+0x89c>
     b58:	9800      	ldr	r0, [sp, #0]
     b5a:	f004 fcd3 	bl	5504 <__aeabi_f2d>
     b5e:	4b69      	ldr	r3, [pc, #420]	; (d04 <main+0xa34>)
     b60:	4a67      	ldr	r2, [pc, #412]	; (d00 <main+0xa30>)
     b62:	f002 f867 	bl	2c34 <__aeabi_dcmplt>
     b66:	2800      	cmp	r0, #0
     b68:	d000      	beq.n	b6c <main+0x89c>
     b6a:	e0a6      	b.n	cba <main+0x9ea>
     b6c:	3f01      	subs	r7, #1
     b6e:	2f00      	cmp	r7, #0
     b70:	d036      	beq.n	be0 <main+0x910>
     b72:	486d      	ldr	r0, [pc, #436]	; (d28 <main+0xa58>)
     b74:	f000 ff00 	bl	1978 <analogin_read>
     b78:	1c04      	adds	r4, r0, #0
     b7a:	486c      	ldr	r0, [pc, #432]	; (d2c <main+0xa5c>)
     b7c:	f000 fefc 	bl	1978 <analogin_read>
     b80:	1c06      	adds	r6, r0, #0
     b82:	486b      	ldr	r0, [pc, #428]	; (d30 <main+0xa60>)
     b84:	f000 fef8 	bl	1978 <analogin_read>
     b88:	9000      	str	r0, [sp, #0]
     b8a:	1c20      	adds	r0, r4, #0
     b8c:	f004 fcba 	bl	5504 <__aeabi_f2d>
     b90:	4b5c      	ldr	r3, [pc, #368]	; (d04 <main+0xa34>)
     b92:	4a5b      	ldr	r2, [pc, #364]	; (d00 <main+0xa30>)
     b94:	1c04      	adds	r4, r0, #0
     b96:	1c0d      	adds	r5, r1, #0
     b98:	f002 f860 	bl	2c5c <__aeabi_dcmpgt>
     b9c:	2800      	cmp	r0, #0
     b9e:	d197      	bne.n	ad0 <main+0x800>
     ba0:	1c20      	adds	r0, r4, #0
     ba2:	1c29      	adds	r1, r5, #0
     ba4:	4b57      	ldr	r3, [pc, #348]	; (d04 <main+0xa34>)
     ba6:	4a56      	ldr	r2, [pc, #344]	; (d00 <main+0xa30>)
     ba8:	f002 f844 	bl	2c34 <__aeabi_dcmplt>
     bac:	2800      	cmp	r0, #0
     bae:	d0b3      	beq.n	b18 <main+0x848>
     bb0:	21fc      	movs	r1, #252	; 0xfc
     bb2:	1c30      	adds	r0, r6, #0
     bb4:	0589      	lsls	r1, r1, #22
     bb6:	f002 f88b 	bl	2cd0 <__aeabi_fcmpgt>
     bba:	2800      	cmp	r0, #0
     bbc:	d0ac      	beq.n	b18 <main+0x848>
     bbe:	9800      	ldr	r0, [sp, #0]
     bc0:	f004 fca0 	bl	5504 <__aeabi_f2d>
     bc4:	9004      	str	r0, [sp, #16]
     bc6:	9105      	str	r1, [sp, #20]
     bc8:	e79d      	b.n	b06 <main+0x836>
     bca:	1c20      	adds	r0, r4, #0
     bcc:	1c29      	adds	r1, r5, #0
     bce:	4b4d      	ldr	r3, [pc, #308]	; (d04 <main+0xa34>)
     bd0:	4a4b      	ldr	r2, [pc, #300]	; (d00 <main+0xa30>)
     bd2:	f002 f843 	bl	2c5c <__aeabi_dcmpgt>
     bd6:	2800      	cmp	r0, #0
     bd8:	d1b7      	bne.n	b4a <main+0x87a>
     bda:	3f01      	subs	r7, #1
     bdc:	2f00      	cmp	r7, #0
     bde:	d1c8      	bne.n	b72 <main+0x8a2>
     be0:	2196      	movs	r1, #150	; 0x96
     be2:	484c      	ldr	r0, [pc, #304]	; (d14 <main+0xa44>)
     be4:	0109      	lsls	r1, r1, #4
     be6:	f001 f891 	bl	1d0c <pwmout_pulsewidth_us>
     bea:	465a      	mov	r2, r11
     bec:	68d3      	ldr	r3, [r2, #12]
     bee:	6851      	ldr	r1, [r2, #4]
     bf0:	4652      	mov	r2, r10
     bf2:	6019      	str	r1, [r3, #0]
     bf4:	6851      	ldr	r1, [r2, #4]
     bf6:	68d3      	ldr	r3, [r2, #12]
     bf8:	4843      	ldr	r0, [pc, #268]	; (d08 <main+0xa38>)
     bfa:	6019      	str	r1, [r3, #0]
     bfc:	4946      	ldr	r1, [pc, #280]	; (d18 <main+0xa48>)
     bfe:	f001 f835 	bl	1c6c <pwmout_write>
     c02:	464a      	mov	r2, r9
     c04:	68d3      	ldr	r3, [r2, #12]
     c06:	6851      	ldr	r1, [r2, #4]
     c08:	4642      	mov	r2, r8
     c0a:	6019      	str	r1, [r3, #0]
     c0c:	6851      	ldr	r1, [r2, #4]
     c0e:	68d3      	ldr	r3, [r2, #12]
     c10:	483e      	ldr	r0, [pc, #248]	; (d0c <main+0xa3c>)
     c12:	6019      	str	r1, [r3, #0]
     c14:	4940      	ldr	r1, [pc, #256]	; (d18 <main+0xa48>)
     c16:	f001 f829 	bl	1c6c <pwmout_write>
     c1a:	4846      	ldr	r0, [pc, #280]	; (d34 <main+0xa64>)
     c1c:	f001 f8ce 	bl	1dbc <wait>
     c20:	4845      	ldr	r0, [pc, #276]	; (d38 <main+0xa68>)
     c22:	4946      	ldr	r1, [pc, #280]	; (d3c <main+0xa6c>)
     c24:	3040      	adds	r0, #64	; 0x40
     c26:	f001 fb73 	bl	2310 <mbed::Stream::printf(char const*, ...)>
     c2a:	2303      	movs	r3, #3
     c2c:	f7ff fb6f 	bl	30e <main+0x3e>
     c30:	4837      	ldr	r0, [pc, #220]	; (d10 <main+0xa40>)
     c32:	f001 f8c3 	bl	1dbc <wait>
     c36:	2196      	movs	r1, #150	; 0x96
     c38:	4836      	ldr	r0, [pc, #216]	; (d14 <main+0xa44>)
     c3a:	0109      	lsls	r1, r1, #4
     c3c:	f001 f866 	bl	1d0c <pwmout_pulsewidth_us>
     c40:	e794      	b.n	b6c <main+0x89c>
     c42:	2196      	movs	r1, #150	; 0x96
     c44:	4833      	ldr	r0, [pc, #204]	; (d14 <main+0xa44>)
     c46:	0109      	lsls	r1, r1, #4
     c48:	f001 f860 	bl	1d0c <pwmout_pulsewidth_us>
     c4c:	465a      	mov	r2, r11
     c4e:	68d3      	ldr	r3, [r2, #12]
     c50:	6851      	ldr	r1, [r2, #4]
     c52:	4652      	mov	r2, r10
     c54:	6019      	str	r1, [r3, #0]
     c56:	6851      	ldr	r1, [r2, #4]
     c58:	6913      	ldr	r3, [r2, #16]
     c5a:	482b      	ldr	r0, [pc, #172]	; (d08 <main+0xa38>)
     c5c:	6019      	str	r1, [r3, #0]
     c5e:	492e      	ldr	r1, [pc, #184]	; (d18 <main+0xa48>)
     c60:	f001 f804 	bl	1c6c <pwmout_write>
     c64:	464a      	mov	r2, r9
     c66:	68d3      	ldr	r3, [r2, #12]
     c68:	6851      	ldr	r1, [r2, #4]
     c6a:	4642      	mov	r2, r8
     c6c:	6019      	str	r1, [r3, #0]
     c6e:	6851      	ldr	r1, [r2, #4]
     c70:	6913      	ldr	r3, [r2, #16]
     c72:	4826      	ldr	r0, [pc, #152]	; (d0c <main+0xa3c>)
     c74:	6019      	str	r1, [r3, #0]
     c76:	492a      	ldr	r1, [pc, #168]	; (d20 <main+0xa50>)
     c78:	f000 fff8 	bl	1c6c <pwmout_write>
     c7c:	e776      	b.n	b6c <main+0x89c>
     c7e:	2196      	movs	r1, #150	; 0x96
     c80:	4824      	ldr	r0, [pc, #144]	; (d14 <main+0xa44>)
     c82:	0109      	lsls	r1, r1, #4
     c84:	f001 f842 	bl	1d0c <pwmout_pulsewidth_us>
     c88:	465a      	mov	r2, r11
     c8a:	68d3      	ldr	r3, [r2, #12]
     c8c:	6851      	ldr	r1, [r2, #4]
     c8e:	4652      	mov	r2, r10
     c90:	6019      	str	r1, [r3, #0]
     c92:	6851      	ldr	r1, [r2, #4]
     c94:	6913      	ldr	r3, [r2, #16]
     c96:	481c      	ldr	r0, [pc, #112]	; (d08 <main+0xa38>)
     c98:	6019      	str	r1, [r3, #0]
     c9a:	4920      	ldr	r1, [pc, #128]	; (d1c <main+0xa4c>)
     c9c:	f000 ffe6 	bl	1c6c <pwmout_write>
     ca0:	464a      	mov	r2, r9
     ca2:	68d3      	ldr	r3, [r2, #12]
     ca4:	6851      	ldr	r1, [r2, #4]
     ca6:	4642      	mov	r2, r8
     ca8:	6019      	str	r1, [r3, #0]
     caa:	6851      	ldr	r1, [r2, #4]
     cac:	6913      	ldr	r3, [r2, #16]
     cae:	4817      	ldr	r0, [pc, #92]	; (d0c <main+0xa3c>)
     cb0:	6019      	str	r1, [r3, #0]
     cb2:	491a      	ldr	r1, [pc, #104]	; (d1c <main+0xa4c>)
     cb4:	f000 ffda 	bl	1c6c <pwmout_write>
     cb8:	e758      	b.n	b6c <main+0x89c>
     cba:	2196      	movs	r1, #150	; 0x96
     cbc:	4815      	ldr	r0, [pc, #84]	; (d14 <main+0xa44>)
     cbe:	0109      	lsls	r1, r1, #4
     cc0:	f001 f824 	bl	1d0c <pwmout_pulsewidth_us>
     cc4:	465a      	mov	r2, r11
     cc6:	68d3      	ldr	r3, [r2, #12]
     cc8:	6851      	ldr	r1, [r2, #4]
     cca:	4652      	mov	r2, r10
     ccc:	6019      	str	r1, [r3, #0]
     cce:	6851      	ldr	r1, [r2, #4]
     cd0:	6913      	ldr	r3, [r2, #16]
     cd2:	480d      	ldr	r0, [pc, #52]	; (d08 <main+0xa38>)
     cd4:	6019      	str	r1, [r3, #0]
     cd6:	4912      	ldr	r1, [pc, #72]	; (d20 <main+0xa50>)
     cd8:	f000 ffc8 	bl	1c6c <pwmout_write>
     cdc:	464a      	mov	r2, r9
     cde:	68d3      	ldr	r3, [r2, #12]
     ce0:	6851      	ldr	r1, [r2, #4]
     ce2:	4642      	mov	r2, r8
     ce4:	6019      	str	r1, [r3, #0]
     ce6:	6851      	ldr	r1, [r2, #4]
     ce8:	6913      	ldr	r3, [r2, #16]
     cea:	4808      	ldr	r0, [pc, #32]	; (d0c <main+0xa3c>)
     cec:	6019      	str	r1, [r3, #0]
     cee:	490a      	ldr	r1, [pc, #40]	; (d18 <main+0xa48>)
     cf0:	f000 ffbc 	bl	1c6c <pwmout_write>
     cf4:	e73a      	b.n	b6c <main+0x89c>
     cf6:	9e03      	ldr	r6, [sp, #12]
     cf8:	e04a      	b.n	d90 <main+0xac0>
     cfa:	46c0      	nop			; (mov r8, r8)
     cfc:	46c0      	nop			; (mov r8, r8)
     cfe:	46c0      	nop			; (mov r8, r8)
     d00:	cccccccd 	.word	0xcccccccd
     d04:	3fdccccc 	.word	0x3fdccccc
     d08:	10000264 	.word	0x10000264
     d0c:	1000026c 	.word	0x1000026c
     d10:	3dcccccd 	.word	0x3dcccccd
     d14:	10000198 	.word	0x10000198
     d18:	3f4ccccd 	.word	0x3f4ccccd
     d1c:	3f19999a 	.word	0x3f19999a
     d20:	3f333333 	.word	0x3f333333
     d24:	0000076d 	.word	0x0000076d
     d28:	100001fc 	.word	0x100001fc
     d2c:	10000194 	.word	0x10000194
     d30:	10000260 	.word	0x10000260
     d34:	40200000 	.word	0x40200000
     d38:	100001a0 	.word	0x100001a0
     d3c:	000077b4 	.word	0x000077b4
     d40:	21fe      	movs	r1, #254	; 0xfe
     d42:	48df      	ldr	r0, [pc, #892]	; (10c0 <main+0xdf0>)
     d44:	0589      	lsls	r1, r1, #22
     d46:	f000 ff91 	bl	1c6c <pwmout_write>
     d4a:	464a      	mov	r2, r9
     d4c:	68d3      	ldr	r3, [r2, #12]
     d4e:	6851      	ldr	r1, [r2, #4]
     d50:	4642      	mov	r2, r8
     d52:	6019      	str	r1, [r3, #0]
     d54:	6851      	ldr	r1, [r2, #4]
     d56:	6913      	ldr	r3, [r2, #16]
     d58:	1c20      	adds	r0, r4, #0
     d5a:	6019      	str	r1, [r3, #0]
     d5c:	21fe      	movs	r1, #254	; 0xfe
     d5e:	0589      	lsls	r1, r1, #22
     d60:	f001 ffe2 	bl	2d28 <__aeabi_fadd>
     d64:	1c01      	adds	r1, r0, #0
     d66:	48d7      	ldr	r0, [pc, #860]	; (10c4 <main+0xdf4>)
     d68:	f000 ff80 	bl	1c6c <pwmout_write>
     d6c:	48d6      	ldr	r0, [pc, #856]	; (10c8 <main+0xdf8>)
     d6e:	f000 fe03 	bl	1978 <analogin_read>
     d72:	f004 fbc7 	bl	5504 <__aeabi_f2d>
     d76:	4bbd      	ldr	r3, [pc, #756]	; (106c <main+0xd9c>)
     d78:	4abb      	ldr	r2, [pc, #748]	; (1068 <main+0xd98>)
     d7a:	f001 ff6f 	bl	2c5c <__aeabi_dcmpgt>
     d7e:	2800      	cmp	r0, #0
     d80:	d000      	beq.n	d84 <main+0xab4>
     d82:	e0ca      	b.n	f1a <main+0xc4a>
     d84:	48d1      	ldr	r0, [pc, #836]	; (10cc <main+0xdfc>)
     d86:	49d2      	ldr	r1, [pc, #840]	; (10d0 <main+0xe00>)
     d88:	3040      	adds	r0, #64	; 0x40
     d8a:	f001 fac1 	bl	2310 <mbed::Stream::printf(char const*, ...)>
     d8e:	9706      	str	r7, [sp, #24]
     d90:	48d0      	ldr	r0, [pc, #832]	; (10d4 <main+0xe04>)
     d92:	f000 fdf1 	bl	1978 <analogin_read>
     d96:	1c04      	adds	r4, r0, #0
     d98:	48cf      	ldr	r0, [pc, #828]	; (10d8 <main+0xe08>)
     d9a:	f000 fded 	bl	1978 <analogin_read>
     d9e:	48cf      	ldr	r0, [pc, #828]	; (10dc <main+0xe0c>)
     da0:	f000 fdea 	bl	1978 <analogin_read>
     da4:	1c01      	adds	r1, r0, #0
     da6:	1c20      	adds	r0, r4, #0
     da8:	f002 fc30 	bl	360c <__aeabi_fsub>
     dac:	f004 fbaa 	bl	5504 <__aeabi_f2d>
     db0:	4aaf      	ldr	r2, [pc, #700]	; (1070 <main+0xda0>)
     db2:	4bb0      	ldr	r3, [pc, #704]	; (1074 <main+0xda4>)
     db4:	f002 fe66 	bl	3a84 <__aeabi_dadd>
     db8:	f004 fbf6 	bl	55a8 <__aeabi_d2f>
     dbc:	1c07      	adds	r7, r0, #0
     dbe:	1c30      	adds	r0, r6, #0
     dc0:	f004 fba0 	bl	5504 <__aeabi_f2d>
     dc4:	1c04      	adds	r4, r0, #0
     dc6:	1c0d      	adds	r5, r1, #0
     dc8:	1c38      	adds	r0, r7, #0
     dca:	9906      	ldr	r1, [sp, #24]
     dcc:	f001 ffac 	bl	2d28 <__aeabi_fadd>
     dd0:	f004 fb98 	bl	5504 <__aeabi_f2d>
     dd4:	4aa8      	ldr	r2, [pc, #672]	; (1078 <main+0xda8>)
     dd6:	4ba9      	ldr	r3, [pc, #676]	; (107c <main+0xdac>)
     dd8:	f003 fdda 	bl	4990 <__aeabi_dmul>
     ddc:	1c02      	adds	r2, r0, #0
     dde:	1c0b      	adds	r3, r1, #0
     de0:	1c20      	adds	r0, r4, #0
     de2:	1c29      	adds	r1, r5, #0
     de4:	f002 fe4e 	bl	3a84 <__aeabi_dadd>
     de8:	f004 fbde 	bl	55a8 <__aeabi_d2f>
     dec:	1c06      	adds	r6, r0, #0
     dee:	1c38      	adds	r0, r7, #0
     df0:	f004 fb88 	bl	5504 <__aeabi_f2d>
     df4:	4aa2      	ldr	r2, [pc, #648]	; (1080 <main+0xdb0>)
     df6:	4ba3      	ldr	r3, [pc, #652]	; (1084 <main+0xdb4>)
     df8:	9000      	str	r0, [sp, #0]
     dfa:	9101      	str	r1, [sp, #4]
     dfc:	f003 fdc8 	bl	4990 <__aeabi_dmul>
     e00:	1c04      	adds	r4, r0, #0
     e02:	1c30      	adds	r0, r6, #0
     e04:	1c0d      	adds	r5, r1, #0
     e06:	f004 fb7d 	bl	5504 <__aeabi_f2d>
     e0a:	4a9f      	ldr	r2, [pc, #636]	; (1088 <main+0xdb8>)
     e0c:	4b9f      	ldr	r3, [pc, #636]	; (108c <main+0xdbc>)
     e0e:	f003 fdbf 	bl	4990 <__aeabi_dmul>
     e12:	1c02      	adds	r2, r0, #0
     e14:	1c0b      	adds	r3, r1, #0
     e16:	1c20      	adds	r0, r4, #0
     e18:	1c29      	adds	r1, r5, #0
     e1a:	f002 fe33 	bl	3a84 <__aeabi_dadd>
     e1e:	1c04      	adds	r4, r0, #0
     e20:	1c0d      	adds	r5, r1, #0
     e22:	1c38      	adds	r0, r7, #0
     e24:	9906      	ldr	r1, [sp, #24]
     e26:	f002 fbf1 	bl	360c <__aeabi_fsub>
     e2a:	f004 fb6b 	bl	5504 <__aeabi_f2d>
     e2e:	4a98      	ldr	r2, [pc, #608]	; (1090 <main+0xdc0>)
     e30:	4b98      	ldr	r3, [pc, #608]	; (1094 <main+0xdc4>)
     e32:	f003 f943 	bl	40bc <__aeabi_ddiv>
     e36:	f004 fbb7 	bl	55a8 <__aeabi_d2f>
     e3a:	0040      	lsls	r0, r0, #1
     e3c:	0840      	lsrs	r0, r0, #1
     e3e:	f004 fb61 	bl	5504 <__aeabi_f2d>
     e42:	4a95      	ldr	r2, [pc, #596]	; (1098 <main+0xdc8>)
     e44:	4b95      	ldr	r3, [pc, #596]	; (109c <main+0xdcc>)
     e46:	f003 fda3 	bl	4990 <__aeabi_dmul>
     e4a:	1c02      	adds	r2, r0, #0
     e4c:	1c0b      	adds	r3, r1, #0
     e4e:	1c20      	adds	r0, r4, #0
     e50:	1c29      	adds	r1, r5, #0
     e52:	f002 fe17 	bl	3a84 <__aeabi_dadd>
     e56:	f004 fba7 	bl	55a8 <__aeabi_d2f>
     e5a:	4a91      	ldr	r2, [pc, #580]	; (10a0 <main+0xdd0>)
     e5c:	4b91      	ldr	r3, [pc, #580]	; (10a4 <main+0xdd4>)
     e5e:	1c04      	adds	r4, r0, #0
     e60:	9800      	ldr	r0, [sp, #0]
     e62:	9901      	ldr	r1, [sp, #4]
     e64:	f001 fefa 	bl	2c5c <__aeabi_dcmpgt>
     e68:	2800      	cmp	r0, #0
     e6a:	d137      	bne.n	edc <main+0xc0c>
     e6c:	9800      	ldr	r0, [sp, #0]
     e6e:	9901      	ldr	r1, [sp, #4]
     e70:	4a8d      	ldr	r2, [pc, #564]	; (10a8 <main+0xdd8>)
     e72:	4b8e      	ldr	r3, [pc, #568]	; (10ac <main+0xddc>)
     e74:	f001 fede 	bl	2c34 <__aeabi_dcmplt>
     e78:	465a      	mov	r2, r11
     e7a:	68d3      	ldr	r3, [r2, #12]
     e7c:	6851      	ldr	r1, [r2, #4]
     e7e:	4652      	mov	r2, r10
     e80:	6019      	str	r1, [r3, #0]
     e82:	6851      	ldr	r1, [r2, #4]
     e84:	6913      	ldr	r3, [r2, #16]
     e86:	6019      	str	r1, [r3, #0]
     e88:	2800      	cmp	r0, #0
     e8a:	d000      	beq.n	e8e <main+0xbbe>
     e8c:	e758      	b.n	d40 <main+0xa70>
     e8e:	1c20      	adds	r0, r4, #0
     e90:	f004 fb38 	bl	5504 <__aeabi_f2d>
     e94:	1c04      	adds	r4, r0, #0
     e96:	1c0d      	adds	r5, r1, #0
     e98:	1c22      	adds	r2, r4, #0
     e9a:	1c2b      	adds	r3, r5, #0
     e9c:	4884      	ldr	r0, [pc, #528]	; (10b0 <main+0xde0>)
     e9e:	4985      	ldr	r1, [pc, #532]	; (10b4 <main+0xde4>)
     ea0:	f004 f806 	bl	4eb0 <__aeabi_dsub>
     ea4:	f004 fb80 	bl	55a8 <__aeabi_d2f>
     ea8:	1c01      	adds	r1, r0, #0
     eaa:	4885      	ldr	r0, [pc, #532]	; (10c0 <main+0xdf0>)
     eac:	f000 fede 	bl	1c6c <pwmout_write>
     eb0:	464a      	mov	r2, r9
     eb2:	68d3      	ldr	r3, [r2, #12]
     eb4:	6851      	ldr	r1, [r2, #4]
     eb6:	4642      	mov	r2, r8
     eb8:	6019      	str	r1, [r3, #0]
     eba:	6851      	ldr	r1, [r2, #4]
     ebc:	6913      	ldr	r3, [r2, #16]
     ebe:	1c20      	adds	r0, r4, #0
     ec0:	6019      	str	r1, [r3, #0]
     ec2:	4a7b      	ldr	r2, [pc, #492]	; (10b0 <main+0xde0>)
     ec4:	4b7b      	ldr	r3, [pc, #492]	; (10b4 <main+0xde4>)
     ec6:	1c29      	adds	r1, r5, #0
     ec8:	f002 fddc 	bl	3a84 <__aeabi_dadd>
     ecc:	f004 fb6c 	bl	55a8 <__aeabi_d2f>
     ed0:	1c01      	adds	r1, r0, #0
     ed2:	487c      	ldr	r0, [pc, #496]	; (10c4 <main+0xdf4>)
     ed4:	f000 feca 	bl	1c6c <pwmout_write>
     ed8:	2600      	movs	r6, #0
     eda:	e747      	b.n	d6c <main+0xa9c>
     edc:	465a      	mov	r2, r11
     ede:	68d3      	ldr	r3, [r2, #12]
     ee0:	6851      	ldr	r1, [r2, #4]
     ee2:	4652      	mov	r2, r10
     ee4:	6019      	str	r1, [r3, #0]
     ee6:	6851      	ldr	r1, [r2, #4]
     ee8:	6913      	ldr	r3, [r2, #16]
     eea:	20fe      	movs	r0, #254	; 0xfe
     eec:	6019      	str	r1, [r3, #0]
     eee:	0580      	lsls	r0, r0, #22
     ef0:	1c21      	adds	r1, r4, #0
     ef2:	f002 fb8b 	bl	360c <__aeabi_fsub>
     ef6:	1c01      	adds	r1, r0, #0
     ef8:	4871      	ldr	r0, [pc, #452]	; (10c0 <main+0xdf0>)
     efa:	f000 feb7 	bl	1c6c <pwmout_write>
     efe:	464a      	mov	r2, r9
     f00:	68d3      	ldr	r3, [r2, #12]
     f02:	6851      	ldr	r1, [r2, #4]
     f04:	4642      	mov	r2, r8
     f06:	6019      	str	r1, [r3, #0]
     f08:	6851      	ldr	r1, [r2, #4]
     f0a:	6913      	ldr	r3, [r2, #16]
     f0c:	486d      	ldr	r0, [pc, #436]	; (10c4 <main+0xdf4>)
     f0e:	6019      	str	r1, [r3, #0]
     f10:	21fe      	movs	r1, #254	; 0xfe
     f12:	0589      	lsls	r1, r1, #22
     f14:	f000 feaa 	bl	1c6c <pwmout_write>
     f18:	e728      	b.n	d6c <main+0xa9c>
     f1a:	9603      	str	r6, [sp, #12]
     f1c:	9706      	str	r7, [sp, #24]
     f1e:	2302      	movs	r3, #2
     f20:	f7ff f9f5 	bl	30e <main+0x3e>
     f24:	4e6e      	ldr	r6, [pc, #440]	; (10e0 <main+0xe10>)
     f26:	1c37      	adds	r7, r6, #0
     f28:	e055      	b.n	fd6 <main+0xd06>
     f2a:	21fc      	movs	r1, #252	; 0xfc
     f2c:	1c30      	adds	r0, r6, #0
     f2e:	0589      	lsls	r1, r1, #22
     f30:	f001 fece 	bl	2cd0 <__aeabi_fcmpgt>
     f34:	2800      	cmp	r0, #0
     f36:	d065      	beq.n	1004 <main+0xd34>
     f38:	9800      	ldr	r0, [sp, #0]
     f3a:	f004 fae3 	bl	5504 <__aeabi_f2d>
     f3e:	4a5e      	ldr	r2, [pc, #376]	; (10b8 <main+0xde8>)
     f40:	4b5e      	ldr	r3, [pc, #376]	; (10bc <main+0xdec>)
     f42:	9004      	str	r0, [sp, #16]
     f44:	9105      	str	r1, [sp, #20]
     f46:	f001 fe89 	bl	2c5c <__aeabi_dcmpgt>
     f4a:	2800      	cmp	r0, #0
     f4c:	d000      	beq.n	f50 <main+0xc80>
     f4e:	e081      	b.n	1054 <main+0xd84>
     f50:	1c20      	adds	r0, r4, #0
     f52:	1c29      	adds	r1, r5, #0
     f54:	4a58      	ldr	r2, [pc, #352]	; (10b8 <main+0xde8>)
     f56:	4b59      	ldr	r3, [pc, #356]	; (10bc <main+0xdec>)
     f58:	f001 fe6c 	bl	2c34 <__aeabi_dcmplt>
     f5c:	2800      	cmp	r0, #0
     f5e:	d010      	beq.n	f82 <main+0xcb2>
     f60:	9804      	ldr	r0, [sp, #16]
     f62:	9905      	ldr	r1, [sp, #20]
     f64:	4a54      	ldr	r2, [pc, #336]	; (10b8 <main+0xde8>)
     f66:	4b55      	ldr	r3, [pc, #340]	; (10bc <main+0xdec>)
     f68:	f001 fe78 	bl	2c5c <__aeabi_dcmpgt>
     f6c:	2800      	cmp	r0, #0
     f6e:	d000      	beq.n	f72 <main+0xca2>
     f70:	e0be      	b.n	10f0 <main+0xe20>
     f72:	1c20      	adds	r0, r4, #0
     f74:	1c29      	adds	r1, r5, #0
     f76:	4a50      	ldr	r2, [pc, #320]	; (10b8 <main+0xde8>)
     f78:	4b50      	ldr	r3, [pc, #320]	; (10bc <main+0xdec>)
     f7a:	f001 fe6f 	bl	2c5c <__aeabi_dcmpgt>
     f7e:	2800      	cmp	r0, #0
     f80:	d055      	beq.n	102e <main+0xd5e>
     f82:	21fc      	movs	r1, #252	; 0xfc
     f84:	1c30      	adds	r0, r6, #0
     f86:	0589      	lsls	r1, r1, #22
     f88:	f001 fe8e 	bl	2ca8 <__aeabi_fcmplt>
     f8c:	2800      	cmp	r0, #0
     f8e:	d009      	beq.n	fa4 <main+0xcd4>
     f90:	9800      	ldr	r0, [sp, #0]
     f92:	f004 fab7 	bl	5504 <__aeabi_f2d>
     f96:	4a48      	ldr	r2, [pc, #288]	; (10b8 <main+0xde8>)
     f98:	4b48      	ldr	r3, [pc, #288]	; (10bc <main+0xdec>)
     f9a:	f001 fe5f 	bl	2c5c <__aeabi_dcmpgt>
     f9e:	2800      	cmp	r0, #0
     fa0:	d000      	beq.n	fa4 <main+0xcd4>
     fa2:	e0c3      	b.n	112c <main+0xe5c>
     fa4:	21fc      	movs	r1, #252	; 0xfc
     fa6:	1c30      	adds	r0, r6, #0
     fa8:	0589      	lsls	r1, r1, #22
     faa:	f001 fe91 	bl	2cd0 <__aeabi_fcmpgt>
     fae:	2800      	cmp	r0, #0
     fb0:	d009      	beq.n	fc6 <main+0xcf6>
     fb2:	9800      	ldr	r0, [sp, #0]
     fb4:	f004 faa6 	bl	5504 <__aeabi_f2d>
     fb8:	4a3f      	ldr	r2, [pc, #252]	; (10b8 <main+0xde8>)
     fba:	4b40      	ldr	r3, [pc, #256]	; (10bc <main+0xdec>)
     fbc:	f001 fe3a 	bl	2c34 <__aeabi_dcmplt>
     fc0:	2800      	cmp	r0, #0
     fc2:	d000      	beq.n	fc6 <main+0xcf6>
     fc4:	e0d0      	b.n	1168 <main+0xe98>
     fc6:	4841      	ldr	r0, [pc, #260]	; (10cc <main+0xdfc>)
     fc8:	4946      	ldr	r1, [pc, #280]	; (10e4 <main+0xe14>)
     fca:	3040      	adds	r0, #64	; 0x40
     fcc:	3f01      	subs	r7, #1
     fce:	f001 f99f 	bl	2310 <mbed::Stream::printf(char const*, ...)>
     fd2:	2f00      	cmp	r7, #0
     fd4:	d03b      	beq.n	104e <main+0xd7e>
     fd6:	483f      	ldr	r0, [pc, #252]	; (10d4 <main+0xe04>)
     fd8:	f000 fcce 	bl	1978 <analogin_read>
     fdc:	1c04      	adds	r4, r0, #0
     fde:	483e      	ldr	r0, [pc, #248]	; (10d8 <main+0xe08>)
     fe0:	f000 fcca 	bl	1978 <analogin_read>
     fe4:	1c06      	adds	r6, r0, #0
     fe6:	483d      	ldr	r0, [pc, #244]	; (10dc <main+0xe0c>)
     fe8:	f000 fcc6 	bl	1978 <analogin_read>
     fec:	9000      	str	r0, [sp, #0]
     fee:	1c20      	adds	r0, r4, #0
     ff0:	f004 fa88 	bl	5504 <__aeabi_f2d>
     ff4:	4a30      	ldr	r2, [pc, #192]	; (10b8 <main+0xde8>)
     ff6:	4b31      	ldr	r3, [pc, #196]	; (10bc <main+0xdec>)
     ff8:	1c04      	adds	r4, r0, #0
     ffa:	1c0d      	adds	r5, r1, #0
     ffc:	f001 fe2e 	bl	2c5c <__aeabi_dcmpgt>
    1000:	2800      	cmp	r0, #0
    1002:	d192      	bne.n	f2a <main+0xc5a>
    1004:	1c20      	adds	r0, r4, #0
    1006:	1c29      	adds	r1, r5, #0
    1008:	4a2b      	ldr	r2, [pc, #172]	; (10b8 <main+0xde8>)
    100a:	4b2c      	ldr	r3, [pc, #176]	; (10bc <main+0xdec>)
    100c:	f001 fe12 	bl	2c34 <__aeabi_dcmplt>
    1010:	2800      	cmp	r0, #0
    1012:	d0ae      	beq.n	f72 <main+0xca2>
    1014:	21fc      	movs	r1, #252	; 0xfc
    1016:	1c30      	adds	r0, r6, #0
    1018:	0589      	lsls	r1, r1, #22
    101a:	f001 fe59 	bl	2cd0 <__aeabi_fcmpgt>
    101e:	2800      	cmp	r0, #0
    1020:	d0a7      	beq.n	f72 <main+0xca2>
    1022:	9800      	ldr	r0, [sp, #0]
    1024:	f004 fa6e 	bl	5504 <__aeabi_f2d>
    1028:	9004      	str	r0, [sp, #16]
    102a:	9105      	str	r1, [sp, #20]
    102c:	e798      	b.n	f60 <main+0xc90>
    102e:	1c20      	adds	r0, r4, #0
    1030:	1c29      	adds	r1, r5, #0
    1032:	4a21      	ldr	r2, [pc, #132]	; (10b8 <main+0xde8>)
    1034:	4b21      	ldr	r3, [pc, #132]	; (10bc <main+0xdec>)
    1036:	f001 fe11 	bl	2c5c <__aeabi_dcmpgt>
    103a:	2800      	cmp	r0, #0
    103c:	d1b2      	bne.n	fa4 <main+0xcd4>
    103e:	4823      	ldr	r0, [pc, #140]	; (10cc <main+0xdfc>)
    1040:	4928      	ldr	r1, [pc, #160]	; (10e4 <main+0xe14>)
    1042:	3040      	adds	r0, #64	; 0x40
    1044:	3f01      	subs	r7, #1
    1046:	f001 f963 	bl	2310 <mbed::Stream::printf(char const*, ...)>
    104a:	2f00      	cmp	r7, #0
    104c:	d1c3      	bne.n	fd6 <main+0xd06>
    104e:	2305      	movs	r3, #5
    1050:	f7ff f95d 	bl	30e <main+0x3e>
    1054:	4824      	ldr	r0, [pc, #144]	; (10e8 <main+0xe18>)
    1056:	f000 feb1 	bl	1dbc <wait>
    105a:	21c8      	movs	r1, #200	; 0xc8
    105c:	4823      	ldr	r0, [pc, #140]	; (10ec <main+0xe1c>)
    105e:	00c9      	lsls	r1, r1, #3
    1060:	f000 fe54 	bl	1d0c <pwmout_pulsewidth_us>
    1064:	e7af      	b.n	fc6 <main+0xcf6>
    1066:	46c0      	nop			; (mov r8, r8)
    1068:	33333333 	.word	0x33333333
    106c:	3fe33333 	.word	0x3fe33333
    1070:	d2f1a9fc 	.word	0xd2f1a9fc
    1074:	3f70624d 	.word	0x3f70624d
    1078:	47ae147b 	.word	0x47ae147b
    107c:	3f847ae1 	.word	0x3f847ae1
    1080:	1eb851ec 	.word	0x1eb851ec
    1084:	3fe9eb85 	.word	0x3fe9eb85
    1088:	d2f1a9fc 	.word	0xd2f1a9fc
    108c:	3f60624d 	.word	0x3f60624d
    1090:	47ae147b 	.word	0x47ae147b
    1094:	3f947ae1 	.word	0x3f947ae1
    1098:	020c49ba 	.word	0x020c49ba
    109c:	3f96872b 	.word	0x3f96872b
    10a0:	9999999a 	.word	0x9999999a
    10a4:	3fa99999 	.word	0x3fa99999
    10a8:	9999999a 	.word	0x9999999a
    10ac:	bfa99999 	.word	0xbfa99999
    10b0:	9999999a 	.word	0x9999999a
    10b4:	3fe99999 	.word	0x3fe99999
    10b8:	cccccccd 	.word	0xcccccccd
    10bc:	3fdccccc 	.word	0x3fdccccc
    10c0:	10000264 	.word	0x10000264
    10c4:	1000026c 	.word	0x1000026c
    10c8:	100001f8 	.word	0x100001f8
    10cc:	100001a0 	.word	0x100001a0
    10d0:	000077a8 	.word	0x000077a8
    10d4:	100001fc 	.word	0x100001fc
    10d8:	10000194 	.word	0x10000194
    10dc:	10000260 	.word	0x10000260
    10e0:	000003e9 	.word	0x000003e9
    10e4:	000077cc 	.word	0x000077cc
    10e8:	3dcccccd 	.word	0x3dcccccd
    10ec:	10000198 	.word	0x10000198
    10f0:	21c8      	movs	r1, #200	; 0xc8
    10f2:	48e1      	ldr	r0, [pc, #900]	; (1478 <main+0x11a8>)
    10f4:	00c9      	lsls	r1, r1, #3
    10f6:	f000 fe09 	bl	1d0c <pwmout_pulsewidth_us>
    10fa:	4659      	mov	r1, r11
    10fc:	68cb      	ldr	r3, [r1, #12]
    10fe:	684a      	ldr	r2, [r1, #4]
    1100:	4651      	mov	r1, r10
    1102:	601a      	str	r2, [r3, #0]
    1104:	684a      	ldr	r2, [r1, #4]
    1106:	690b      	ldr	r3, [r1, #16]
    1108:	48dc      	ldr	r0, [pc, #880]	; (147c <main+0x11ac>)
    110a:	601a      	str	r2, [r3, #0]
    110c:	49dc      	ldr	r1, [pc, #880]	; (1480 <main+0x11b0>)
    110e:	f000 fdad 	bl	1c6c <pwmout_write>
    1112:	4649      	mov	r1, r9
    1114:	68cb      	ldr	r3, [r1, #12]
    1116:	684a      	ldr	r2, [r1, #4]
    1118:	4641      	mov	r1, r8
    111a:	601a      	str	r2, [r3, #0]
    111c:	684a      	ldr	r2, [r1, #4]
    111e:	690b      	ldr	r3, [r1, #16]
    1120:	48d8      	ldr	r0, [pc, #864]	; (1484 <main+0x11b4>)
    1122:	601a      	str	r2, [r3, #0]
    1124:	49d8      	ldr	r1, [pc, #864]	; (1488 <main+0x11b8>)
    1126:	f000 fda1 	bl	1c6c <pwmout_write>
    112a:	e74c      	b.n	fc6 <main+0xcf6>
    112c:	21c8      	movs	r1, #200	; 0xc8
    112e:	48d2      	ldr	r0, [pc, #840]	; (1478 <main+0x11a8>)
    1130:	00c9      	lsls	r1, r1, #3
    1132:	f000 fdeb 	bl	1d0c <pwmout_pulsewidth_us>
    1136:	4659      	mov	r1, r11
    1138:	68cb      	ldr	r3, [r1, #12]
    113a:	684a      	ldr	r2, [r1, #4]
    113c:	4651      	mov	r1, r10
    113e:	601a      	str	r2, [r3, #0]
    1140:	684a      	ldr	r2, [r1, #4]
    1142:	690b      	ldr	r3, [r1, #16]
    1144:	48cd      	ldr	r0, [pc, #820]	; (147c <main+0x11ac>)
    1146:	601a      	str	r2, [r3, #0]
    1148:	49d0      	ldr	r1, [pc, #832]	; (148c <main+0x11bc>)
    114a:	f000 fd8f 	bl	1c6c <pwmout_write>
    114e:	4649      	mov	r1, r9
    1150:	68cb      	ldr	r3, [r1, #12]
    1152:	684a      	ldr	r2, [r1, #4]
    1154:	4641      	mov	r1, r8
    1156:	601a      	str	r2, [r3, #0]
    1158:	684a      	ldr	r2, [r1, #4]
    115a:	690b      	ldr	r3, [r1, #16]
    115c:	48c9      	ldr	r0, [pc, #804]	; (1484 <main+0x11b4>)
    115e:	601a      	str	r2, [r3, #0]
    1160:	49ca      	ldr	r1, [pc, #808]	; (148c <main+0x11bc>)
    1162:	f000 fd83 	bl	1c6c <pwmout_write>
    1166:	e72e      	b.n	fc6 <main+0xcf6>
    1168:	21c8      	movs	r1, #200	; 0xc8
    116a:	48c3      	ldr	r0, [pc, #780]	; (1478 <main+0x11a8>)
    116c:	00c9      	lsls	r1, r1, #3
    116e:	f000 fdcd 	bl	1d0c <pwmout_pulsewidth_us>
    1172:	4659      	mov	r1, r11
    1174:	68cb      	ldr	r3, [r1, #12]
    1176:	684a      	ldr	r2, [r1, #4]
    1178:	4651      	mov	r1, r10
    117a:	601a      	str	r2, [r3, #0]
    117c:	684a      	ldr	r2, [r1, #4]
    117e:	690b      	ldr	r3, [r1, #16]
    1180:	48be      	ldr	r0, [pc, #760]	; (147c <main+0x11ac>)
    1182:	601a      	str	r2, [r3, #0]
    1184:	49c0      	ldr	r1, [pc, #768]	; (1488 <main+0x11b8>)
    1186:	f000 fd71 	bl	1c6c <pwmout_write>
    118a:	4649      	mov	r1, r9
    118c:	68cb      	ldr	r3, [r1, #12]
    118e:	684a      	ldr	r2, [r1, #4]
    1190:	4641      	mov	r1, r8
    1192:	601a      	str	r2, [r3, #0]
    1194:	684a      	ldr	r2, [r1, #4]
    1196:	690b      	ldr	r3, [r1, #16]
    1198:	48ba      	ldr	r0, [pc, #744]	; (1484 <main+0x11b4>)
    119a:	601a      	str	r2, [r3, #0]
    119c:	49b8      	ldr	r1, [pc, #736]	; (1480 <main+0x11b0>)
    119e:	f000 fd65 	bl	1c6c <pwmout_write>
    11a2:	e710      	b.n	fc6 <main+0xcf6>
    11a4:	1c20      	adds	r0, r4, #0
    11a6:	1c29      	adds	r1, r5, #0
    11a8:	4ba0      	ldr	r3, [pc, #640]	; (142c <main+0x115c>)
    11aa:	4a9f      	ldr	r2, [pc, #636]	; (1428 <main+0x1158>)
    11ac:	f001 fd56 	bl	2c5c <__aeabi_dcmpgt>
    11b0:	2800      	cmp	r0, #0
    11b2:	d101      	bne.n	11b8 <main+0xee8>
    11b4:	f7ff fb53 	bl	85e <main+0x58e>
    11b8:	f7ff fb3f 	bl	83a <main+0x56a>
    11bc:	9f03      	ldr	r7, [sp, #12]
    11be:	e046      	b.n	124e <main+0xf7e>
    11c0:	21fe      	movs	r1, #254	; 0xfe
    11c2:	48ae      	ldr	r0, [pc, #696]	; (147c <main+0x11ac>)
    11c4:	0589      	lsls	r1, r1, #22
    11c6:	f000 fd51 	bl	1c6c <pwmout_write>
    11ca:	4649      	mov	r1, r9
    11cc:	68cb      	ldr	r3, [r1, #12]
    11ce:	684a      	ldr	r2, [r1, #4]
    11d0:	4641      	mov	r1, r8
    11d2:	601a      	str	r2, [r3, #0]
    11d4:	684a      	ldr	r2, [r1, #4]
    11d6:	690b      	ldr	r3, [r1, #16]
    11d8:	21fe      	movs	r1, #254	; 0xfe
    11da:	0589      	lsls	r1, r1, #22
    11dc:	601a      	str	r2, [r3, #0]
    11de:	1c20      	adds	r0, r4, #0
    11e0:	f001 fda2 	bl	2d28 <__aeabi_fadd>
    11e4:	1c01      	adds	r1, r0, #0
    11e6:	48a7      	ldr	r0, [pc, #668]	; (1484 <main+0x11b4>)
    11e8:	f000 fd40 	bl	1c6c <pwmout_write>
    11ec:	9803      	ldr	r0, [sp, #12]
    11ee:	f004 f989 	bl	5504 <__aeabi_f2d>
    11f2:	4b8e      	ldr	r3, [pc, #568]	; (142c <main+0x115c>)
    11f4:	4a8c      	ldr	r2, [pc, #560]	; (1428 <main+0x1158>)
    11f6:	f001 fd1d 	bl	2c34 <__aeabi_dcmplt>
    11fa:	2800      	cmp	r0, #0
    11fc:	d021      	beq.n	1242 <main+0xf72>
    11fe:	21fc      	movs	r1, #252	; 0xfc
    1200:	9807      	ldr	r0, [sp, #28]
    1202:	0589      	lsls	r1, r1, #22
    1204:	f001 fd50 	bl	2ca8 <__aeabi_fcmplt>
    1208:	2800      	cmp	r0, #0
    120a:	d01a      	beq.n	1242 <main+0xf72>
    120c:	9804      	ldr	r0, [sp, #16]
    120e:	f004 f979 	bl	5504 <__aeabi_f2d>
    1212:	4b86      	ldr	r3, [pc, #536]	; (142c <main+0x115c>)
    1214:	4a84      	ldr	r2, [pc, #528]	; (1428 <main+0x1158>)
    1216:	f001 fd0d 	bl	2c34 <__aeabi_dcmplt>
    121a:	2800      	cmp	r0, #0
    121c:	d011      	beq.n	1242 <main+0xf72>
    121e:	489c      	ldr	r0, [pc, #624]	; (1490 <main+0x11c0>)
    1220:	f000 fdcc 	bl	1dbc <wait>
    1224:	21fc      	movs	r1, #252	; 0xfc
    1226:	9803      	ldr	r0, [sp, #12]
    1228:	0589      	lsls	r1, r1, #22
    122a:	f001 fd3d 	bl	2ca8 <__aeabi_fcmplt>
    122e:	2800      	cmp	r0, #0
    1230:	d007      	beq.n	1242 <main+0xf72>
    1232:	21fc      	movs	r1, #252	; 0xfc
    1234:	9804      	ldr	r0, [sp, #16]
    1236:	0589      	lsls	r1, r1, #22
    1238:	f001 fd36 	bl	2ca8 <__aeabi_fcmplt>
    123c:	2800      	cmp	r0, #0
    123e:	d000      	beq.n	1242 <main+0xf72>
    1240:	e0cc      	b.n	13dc <main+0x110c>
    1242:	4894      	ldr	r0, [pc, #592]	; (1494 <main+0x11c4>)
    1244:	4994      	ldr	r1, [pc, #592]	; (1498 <main+0x11c8>)
    1246:	3040      	adds	r0, #64	; 0x40
    1248:	f001 f862 	bl	2310 <mbed::Stream::printf(char const*, ...)>
    124c:	9606      	str	r6, [sp, #24]
    124e:	4893      	ldr	r0, [pc, #588]	; (149c <main+0x11cc>)
    1250:	f000 fb92 	bl	1978 <analogin_read>
    1254:	9003      	str	r0, [sp, #12]
    1256:	4892      	ldr	r0, [pc, #584]	; (14a0 <main+0x11d0>)
    1258:	f000 fb8e 	bl	1978 <analogin_read>
    125c:	9007      	str	r0, [sp, #28]
    125e:	4891      	ldr	r0, [pc, #580]	; (14a4 <main+0x11d4>)
    1260:	f000 fb8a 	bl	1978 <analogin_read>
    1264:	9004      	str	r0, [sp, #16]
    1266:	9904      	ldr	r1, [sp, #16]
    1268:	9803      	ldr	r0, [sp, #12]
    126a:	f002 f9cf 	bl	360c <__aeabi_fsub>
    126e:	f004 f949 	bl	5504 <__aeabi_f2d>
    1272:	4a6f      	ldr	r2, [pc, #444]	; (1430 <main+0x1160>)
    1274:	4b6f      	ldr	r3, [pc, #444]	; (1434 <main+0x1164>)
    1276:	f002 fc05 	bl	3a84 <__aeabi_dadd>
    127a:	f004 f995 	bl	55a8 <__aeabi_d2f>
    127e:	1c06      	adds	r6, r0, #0
    1280:	1c38      	adds	r0, r7, #0
    1282:	f004 f93f 	bl	5504 <__aeabi_f2d>
    1286:	1c04      	adds	r4, r0, #0
    1288:	1c0d      	adds	r5, r1, #0
    128a:	1c30      	adds	r0, r6, #0
    128c:	9906      	ldr	r1, [sp, #24]
    128e:	f001 fd4b 	bl	2d28 <__aeabi_fadd>
    1292:	f004 f937 	bl	5504 <__aeabi_f2d>
    1296:	4a68      	ldr	r2, [pc, #416]	; (1438 <main+0x1168>)
    1298:	4b68      	ldr	r3, [pc, #416]	; (143c <main+0x116c>)
    129a:	f003 fb79 	bl	4990 <__aeabi_dmul>
    129e:	1c02      	adds	r2, r0, #0
    12a0:	1c0b      	adds	r3, r1, #0
    12a2:	1c20      	adds	r0, r4, #0
    12a4:	1c29      	adds	r1, r5, #0
    12a6:	f002 fbed 	bl	3a84 <__aeabi_dadd>
    12aa:	f004 f97d 	bl	55a8 <__aeabi_d2f>
    12ae:	1c07      	adds	r7, r0, #0
    12b0:	1c30      	adds	r0, r6, #0
    12b2:	f004 f927 	bl	5504 <__aeabi_f2d>
    12b6:	4a62      	ldr	r2, [pc, #392]	; (1440 <main+0x1170>)
    12b8:	4b62      	ldr	r3, [pc, #392]	; (1444 <main+0x1174>)
    12ba:	9000      	str	r0, [sp, #0]
    12bc:	9101      	str	r1, [sp, #4]
    12be:	f003 fb67 	bl	4990 <__aeabi_dmul>
    12c2:	1c04      	adds	r4, r0, #0
    12c4:	1c38      	adds	r0, r7, #0
    12c6:	1c0d      	adds	r5, r1, #0
    12c8:	f004 f91c 	bl	5504 <__aeabi_f2d>
    12cc:	4a5e      	ldr	r2, [pc, #376]	; (1448 <main+0x1178>)
    12ce:	4b5f      	ldr	r3, [pc, #380]	; (144c <main+0x117c>)
    12d0:	f003 fb5e 	bl	4990 <__aeabi_dmul>
    12d4:	1c02      	adds	r2, r0, #0
    12d6:	1c0b      	adds	r3, r1, #0
    12d8:	1c20      	adds	r0, r4, #0
    12da:	1c29      	adds	r1, r5, #0
    12dc:	f002 fbd2 	bl	3a84 <__aeabi_dadd>
    12e0:	1c04      	adds	r4, r0, #0
    12e2:	1c0d      	adds	r5, r1, #0
    12e4:	1c30      	adds	r0, r6, #0
    12e6:	9906      	ldr	r1, [sp, #24]
    12e8:	f002 f990 	bl	360c <__aeabi_fsub>
    12ec:	f004 f90a 	bl	5504 <__aeabi_f2d>
    12f0:	4a57      	ldr	r2, [pc, #348]	; (1450 <main+0x1180>)
    12f2:	4b58      	ldr	r3, [pc, #352]	; (1454 <main+0x1184>)
    12f4:	f002 fee2 	bl	40bc <__aeabi_ddiv>
    12f8:	f004 f956 	bl	55a8 <__aeabi_d2f>
    12fc:	0040      	lsls	r0, r0, #1
    12fe:	0840      	lsrs	r0, r0, #1
    1300:	f004 f900 	bl	5504 <__aeabi_f2d>
    1304:	4a54      	ldr	r2, [pc, #336]	; (1458 <main+0x1188>)
    1306:	4b55      	ldr	r3, [pc, #340]	; (145c <main+0x118c>)
    1308:	f003 fb42 	bl	4990 <__aeabi_dmul>
    130c:	1c02      	adds	r2, r0, #0
    130e:	1c0b      	adds	r3, r1, #0
    1310:	1c20      	adds	r0, r4, #0
    1312:	1c29      	adds	r1, r5, #0
    1314:	f002 fbb6 	bl	3a84 <__aeabi_dadd>
    1318:	f004 f946 	bl	55a8 <__aeabi_d2f>
    131c:	4a50      	ldr	r2, [pc, #320]	; (1460 <main+0x1190>)
    131e:	4b51      	ldr	r3, [pc, #324]	; (1464 <main+0x1194>)
    1320:	1c04      	adds	r4, r0, #0
    1322:	9800      	ldr	r0, [sp, #0]
    1324:	9901      	ldr	r1, [sp, #4]
    1326:	f001 fc99 	bl	2c5c <__aeabi_dcmpgt>
    132a:	2800      	cmp	r0, #0
    132c:	d137      	bne.n	139e <main+0x10ce>
    132e:	9800      	ldr	r0, [sp, #0]
    1330:	9901      	ldr	r1, [sp, #4]
    1332:	4a4d      	ldr	r2, [pc, #308]	; (1468 <main+0x1198>)
    1334:	4b4d      	ldr	r3, [pc, #308]	; (146c <main+0x119c>)
    1336:	f001 fc7d 	bl	2c34 <__aeabi_dcmplt>
    133a:	4659      	mov	r1, r11
    133c:	68cb      	ldr	r3, [r1, #12]
    133e:	684a      	ldr	r2, [r1, #4]
    1340:	4651      	mov	r1, r10
    1342:	601a      	str	r2, [r3, #0]
    1344:	684a      	ldr	r2, [r1, #4]
    1346:	690b      	ldr	r3, [r1, #16]
    1348:	601a      	str	r2, [r3, #0]
    134a:	2800      	cmp	r0, #0
    134c:	d000      	beq.n	1350 <main+0x1080>
    134e:	e737      	b.n	11c0 <main+0xef0>
    1350:	1c20      	adds	r0, r4, #0
    1352:	f004 f8d7 	bl	5504 <__aeabi_f2d>
    1356:	1c04      	adds	r4, r0, #0
    1358:	1c0d      	adds	r5, r1, #0
    135a:	1c22      	adds	r2, r4, #0
    135c:	1c2b      	adds	r3, r5, #0
    135e:	4844      	ldr	r0, [pc, #272]	; (1470 <main+0x11a0>)
    1360:	4944      	ldr	r1, [pc, #272]	; (1474 <main+0x11a4>)
    1362:	f003 fda5 	bl	4eb0 <__aeabi_dsub>
    1366:	f004 f91f 	bl	55a8 <__aeabi_d2f>
    136a:	1c01      	adds	r1, r0, #0
    136c:	4843      	ldr	r0, [pc, #268]	; (147c <main+0x11ac>)
    136e:	f000 fc7d 	bl	1c6c <pwmout_write>
    1372:	4649      	mov	r1, r9
    1374:	68cb      	ldr	r3, [r1, #12]
    1376:	684a      	ldr	r2, [r1, #4]
    1378:	4641      	mov	r1, r8
    137a:	601a      	str	r2, [r3, #0]
    137c:	684a      	ldr	r2, [r1, #4]
    137e:	690b      	ldr	r3, [r1, #16]
    1380:	1c20      	adds	r0, r4, #0
    1382:	601a      	str	r2, [r3, #0]
    1384:	1c29      	adds	r1, r5, #0
    1386:	4a3a      	ldr	r2, [pc, #232]	; (1470 <main+0x11a0>)
    1388:	4b3a      	ldr	r3, [pc, #232]	; (1474 <main+0x11a4>)
    138a:	f002 fb7b 	bl	3a84 <__aeabi_dadd>
    138e:	f004 f90b 	bl	55a8 <__aeabi_d2f>
    1392:	1c01      	adds	r1, r0, #0
    1394:	483b      	ldr	r0, [pc, #236]	; (1484 <main+0x11b4>)
    1396:	f000 fc69 	bl	1c6c <pwmout_write>
    139a:	2700      	movs	r7, #0
    139c:	e726      	b.n	11ec <main+0xf1c>
    139e:	4659      	mov	r1, r11
    13a0:	68cb      	ldr	r3, [r1, #12]
    13a2:	684a      	ldr	r2, [r1, #4]
    13a4:	4651      	mov	r1, r10
    13a6:	601a      	str	r2, [r3, #0]
    13a8:	684a      	ldr	r2, [r1, #4]
    13aa:	690b      	ldr	r3, [r1, #16]
    13ac:	20fe      	movs	r0, #254	; 0xfe
    13ae:	601a      	str	r2, [r3, #0]
    13b0:	1c21      	adds	r1, r4, #0
    13b2:	0580      	lsls	r0, r0, #22
    13b4:	f002 f92a 	bl	360c <__aeabi_fsub>
    13b8:	1c01      	adds	r1, r0, #0
    13ba:	4830      	ldr	r0, [pc, #192]	; (147c <main+0x11ac>)
    13bc:	f000 fc56 	bl	1c6c <pwmout_write>
    13c0:	4649      	mov	r1, r9
    13c2:	68cb      	ldr	r3, [r1, #12]
    13c4:	684a      	ldr	r2, [r1, #4]
    13c6:	4641      	mov	r1, r8
    13c8:	601a      	str	r2, [r3, #0]
    13ca:	684a      	ldr	r2, [r1, #4]
    13cc:	690b      	ldr	r3, [r1, #16]
    13ce:	21fe      	movs	r1, #254	; 0xfe
    13d0:	601a      	str	r2, [r3, #0]
    13d2:	482c      	ldr	r0, [pc, #176]	; (1484 <main+0x11b4>)
    13d4:	0589      	lsls	r1, r1, #22
    13d6:	f000 fc49 	bl	1c6c <pwmout_write>
    13da:	e707      	b.n	11ec <main+0xf1c>
    13dc:	4659      	mov	r1, r11
    13de:	68cb      	ldr	r3, [r1, #12]
    13e0:	684a      	ldr	r2, [r1, #4]
    13e2:	4651      	mov	r1, r10
    13e4:	601a      	str	r2, [r3, #0]
    13e6:	684a      	ldr	r2, [r1, #4]
    13e8:	690b      	ldr	r3, [r1, #16]
    13ea:	4824      	ldr	r0, [pc, #144]	; (147c <main+0x11ac>)
    13ec:	601a      	str	r2, [r3, #0]
    13ee:	4926      	ldr	r1, [pc, #152]	; (1488 <main+0x11b8>)
    13f0:	9703      	str	r7, [sp, #12]
    13f2:	f000 fc3b 	bl	1c6c <pwmout_write>
    13f6:	4649      	mov	r1, r9
    13f8:	68cb      	ldr	r3, [r1, #12]
    13fa:	684a      	ldr	r2, [r1, #4]
    13fc:	4641      	mov	r1, r8
    13fe:	601a      	str	r2, [r3, #0]
    1400:	684a      	ldr	r2, [r1, #4]
    1402:	690b      	ldr	r3, [r1, #16]
    1404:	481f      	ldr	r0, [pc, #124]	; (1484 <main+0x11b4>)
    1406:	601a      	str	r2, [r3, #0]
    1408:	491f      	ldr	r1, [pc, #124]	; (1488 <main+0x11b8>)
    140a:	f000 fc2f 	bl	1c6c <pwmout_write>
    140e:	20fc      	movs	r0, #252	; 0xfc
    1410:	0580      	lsls	r0, r0, #22
    1412:	f000 fcd3 	bl	1dbc <wait>
    1416:	9606      	str	r6, [sp, #24]
    1418:	2306      	movs	r3, #6
    141a:	f7fe ff78 	bl	30e <main+0x3e>
    141e:	4c1d      	ldr	r4, [pc, #116]	; (1494 <main+0x11c4>)
    1420:	3440      	adds	r4, #64	; 0x40
    1422:	e045      	b.n	14b0 <main+0x11e0>
    1424:	46c0      	nop			; (mov r8, r8)
    1426:	46c0      	nop			; (mov r8, r8)
    1428:	cccccccd 	.word	0xcccccccd
    142c:	3fdccccc 	.word	0x3fdccccc
    1430:	d2f1a9fc 	.word	0xd2f1a9fc
    1434:	3f70624d 	.word	0x3f70624d
    1438:	47ae147b 	.word	0x47ae147b
    143c:	3f847ae1 	.word	0x3f847ae1
    1440:	1eb851ec 	.word	0x1eb851ec
    1444:	3fe9eb85 	.word	0x3fe9eb85
    1448:	d2f1a9fc 	.word	0xd2f1a9fc
    144c:	3f60624d 	.word	0x3f60624d
    1450:	47ae147b 	.word	0x47ae147b
    1454:	3f947ae1 	.word	0x3f947ae1
    1458:	020c49ba 	.word	0x020c49ba
    145c:	3f96872b 	.word	0x3f96872b
    1460:	9999999a 	.word	0x9999999a
    1464:	3fa99999 	.word	0x3fa99999
    1468:	9999999a 	.word	0x9999999a
    146c:	bfa99999 	.word	0xbfa99999
    1470:	9999999a 	.word	0x9999999a
    1474:	3fe99999 	.word	0x3fe99999
    1478:	10000198 	.word	0x10000198
    147c:	10000264 	.word	0x10000264
    1480:	3f4ccccd 	.word	0x3f4ccccd
    1484:	1000026c 	.word	0x1000026c
    1488:	3f19999a 	.word	0x3f19999a
    148c:	3f333333 	.word	0x3f333333
    1490:	3d4ccccd 	.word	0x3d4ccccd
    1494:	100001a0 	.word	0x100001a0
    1498:	000077d8 	.word	0x000077d8
    149c:	100001fc 	.word	0x100001fc
    14a0:	10000194 	.word	0x10000194
    14a4:	10000260 	.word	0x10000260
    14a8:	1c20      	adds	r0, r4, #0
    14aa:	4969      	ldr	r1, [pc, #420]	; (1650 <main+0x1380>)
    14ac:	f000 ff30 	bl	2310 <mbed::Stream::printf(char const*, ...)>
    14b0:	4868      	ldr	r0, [pc, #416]	; (1654 <main+0x1384>)
    14b2:	f000 fa61 	bl	1978 <analogin_read>
    14b6:	4868      	ldr	r0, [pc, #416]	; (1658 <main+0x1388>)
    14b8:	f000 fa5e 	bl	1978 <analogin_read>
    14bc:	4867      	ldr	r0, [pc, #412]	; (165c <main+0x138c>)
    14be:	f000 fa5b 	bl	1978 <analogin_read>
    14c2:	4659      	mov	r1, r11
    14c4:	68cb      	ldr	r3, [r1, #12]
    14c6:	684a      	ldr	r2, [r1, #4]
    14c8:	4651      	mov	r1, r10
    14ca:	601a      	str	r2, [r3, #0]
    14cc:	684a      	ldr	r2, [r1, #4]
    14ce:	690b      	ldr	r3, [r1, #16]
    14d0:	4863      	ldr	r0, [pc, #396]	; (1660 <main+0x1390>)
    14d2:	601a      	str	r2, [r3, #0]
    14d4:	4963      	ldr	r1, [pc, #396]	; (1664 <main+0x1394>)
    14d6:	f000 fbc9 	bl	1c6c <pwmout_write>
    14da:	4649      	mov	r1, r9
    14dc:	68cb      	ldr	r3, [r1, #12]
    14de:	684a      	ldr	r2, [r1, #4]
    14e0:	4641      	mov	r1, r8
    14e2:	601a      	str	r2, [r3, #0]
    14e4:	684a      	ldr	r2, [r1, #4]
    14e6:	690b      	ldr	r3, [r1, #16]
    14e8:	485f      	ldr	r0, [pc, #380]	; (1668 <main+0x1398>)
    14ea:	601a      	str	r2, [r3, #0]
    14ec:	495d      	ldr	r1, [pc, #372]	; (1664 <main+0x1394>)
    14ee:	f000 fbbd 	bl	1c6c <pwmout_write>
    14f2:	485e      	ldr	r0, [pc, #376]	; (166c <main+0x139c>)
    14f4:	f000 fa40 	bl	1978 <analogin_read>
    14f8:	f004 f804 	bl	5504 <__aeabi_f2d>
    14fc:	4b53      	ldr	r3, [pc, #332]	; (164c <main+0x137c>)
    14fe:	4a52      	ldr	r2, [pc, #328]	; (1648 <main+0x1378>)
    1500:	f001 fbac 	bl	2c5c <__aeabi_dcmpgt>
    1504:	2800      	cmp	r0, #0
    1506:	d0cf      	beq.n	14a8 <main+0x11d8>
    1508:	2307      	movs	r3, #7
    150a:	f7fe ff00 	bl	30e <main+0x3e>
    150e:	2196      	movs	r1, #150	; 0x96
    1510:	4857      	ldr	r0, [pc, #348]	; (1670 <main+0x13a0>)
    1512:	0109      	lsls	r1, r1, #4
    1514:	f000 fbfa 	bl	1d0c <pwmout_pulsewidth_us>
    1518:	4659      	mov	r1, r11
    151a:	68cb      	ldr	r3, [r1, #12]
    151c:	684a      	ldr	r2, [r1, #4]
    151e:	4651      	mov	r1, r10
    1520:	601a      	str	r2, [r3, #0]
    1522:	684a      	ldr	r2, [r1, #4]
    1524:	68cb      	ldr	r3, [r1, #12]
    1526:	21fe      	movs	r1, #254	; 0xfe
    1528:	601a      	str	r2, [r3, #0]
    152a:	484d      	ldr	r0, [pc, #308]	; (1660 <main+0x1390>)
    152c:	0589      	lsls	r1, r1, #22
    152e:	f000 fb9d 	bl	1c6c <pwmout_write>
    1532:	4649      	mov	r1, r9
    1534:	68cb      	ldr	r3, [r1, #12]
    1536:	684a      	ldr	r2, [r1, #4]
    1538:	4641      	mov	r1, r8
    153a:	601a      	str	r2, [r3, #0]
    153c:	684a      	ldr	r2, [r1, #4]
    153e:	68cb      	ldr	r3, [r1, #12]
    1540:	21fe      	movs	r1, #254	; 0xfe
    1542:	601a      	str	r2, [r3, #0]
    1544:	4848      	ldr	r0, [pc, #288]	; (1668 <main+0x1398>)
    1546:	0589      	lsls	r1, r1, #22
    1548:	f000 fb90 	bl	1c6c <pwmout_write>
    154c:	4849      	ldr	r0, [pc, #292]	; (1674 <main+0x13a4>)
    154e:	494a      	ldr	r1, [pc, #296]	; (1678 <main+0x13a8>)
    1550:	3040      	adds	r0, #64	; 0x40
    1552:	f000 fedd 	bl	2310 <mbed::Stream::printf(char const*, ...)>
    1556:	230b      	movs	r3, #11
    1558:	f7fe fed9 	bl	30e <main+0x3e>
    155c:	2196      	movs	r1, #150	; 0x96
    155e:	4844      	ldr	r0, [pc, #272]	; (1670 <main+0x13a0>)
    1560:	0109      	lsls	r1, r1, #4
    1562:	f000 fbd3 	bl	1d0c <pwmout_pulsewidth_us>
    1566:	4659      	mov	r1, r11
    1568:	68cb      	ldr	r3, [r1, #12]
    156a:	684a      	ldr	r2, [r1, #4]
    156c:	4651      	mov	r1, r10
    156e:	601a      	str	r2, [r3, #0]
    1570:	684a      	ldr	r2, [r1, #4]
    1572:	690b      	ldr	r3, [r1, #16]
    1574:	483a      	ldr	r0, [pc, #232]	; (1660 <main+0x1390>)
    1576:	601a      	str	r2, [r3, #0]
    1578:	493a      	ldr	r1, [pc, #232]	; (1664 <main+0x1394>)
    157a:	f000 fb77 	bl	1c6c <pwmout_write>
    157e:	4649      	mov	r1, r9
    1580:	68cb      	ldr	r3, [r1, #12]
    1582:	684a      	ldr	r2, [r1, #4]
    1584:	4641      	mov	r1, r8
    1586:	601a      	str	r2, [r3, #0]
    1588:	684a      	ldr	r2, [r1, #4]
    158a:	690b      	ldr	r3, [r1, #16]
    158c:	4836      	ldr	r0, [pc, #216]	; (1668 <main+0x1398>)
    158e:	601a      	str	r2, [r3, #0]
    1590:	493a      	ldr	r1, [pc, #232]	; (167c <main+0x13ac>)
    1592:	f000 fb6b 	bl	1c6c <pwmout_write>
    1596:	f7ff f962 	bl	85e <main+0x58e>
    159a:	2196      	movs	r1, #150	; 0x96
    159c:	4834      	ldr	r0, [pc, #208]	; (1670 <main+0x13a0>)
    159e:	0109      	lsls	r1, r1, #4
    15a0:	f000 fbb4 	bl	1d0c <pwmout_pulsewidth_us>
    15a4:	4659      	mov	r1, r11
    15a6:	68cb      	ldr	r3, [r1, #12]
    15a8:	684a      	ldr	r2, [r1, #4]
    15aa:	4651      	mov	r1, r10
    15ac:	601a      	str	r2, [r3, #0]
    15ae:	684a      	ldr	r2, [r1, #4]
    15b0:	690b      	ldr	r3, [r1, #16]
    15b2:	482b      	ldr	r0, [pc, #172]	; (1660 <main+0x1390>)
    15b4:	601a      	str	r2, [r3, #0]
    15b6:	4931      	ldr	r1, [pc, #196]	; (167c <main+0x13ac>)
    15b8:	f000 fb58 	bl	1c6c <pwmout_write>
    15bc:	4649      	mov	r1, r9
    15be:	68cb      	ldr	r3, [r1, #12]
    15c0:	684a      	ldr	r2, [r1, #4]
    15c2:	4641      	mov	r1, r8
    15c4:	601a      	str	r2, [r3, #0]
    15c6:	684a      	ldr	r2, [r1, #4]
    15c8:	690b      	ldr	r3, [r1, #16]
    15ca:	4827      	ldr	r0, [pc, #156]	; (1668 <main+0x1398>)
    15cc:	601a      	str	r2, [r3, #0]
    15ce:	4925      	ldr	r1, [pc, #148]	; (1664 <main+0x1394>)
    15d0:	f000 fb4c 	bl	1c6c <pwmout_write>
    15d4:	f7ff f943 	bl	85e <main+0x58e>
    15d8:	4829      	ldr	r0, [pc, #164]	; (1680 <main+0x13b0>)
    15da:	f000 fbef 	bl	1dbc <wait>
    15de:	2196      	movs	r1, #150	; 0x96
    15e0:	4823      	ldr	r0, [pc, #140]	; (1670 <main+0x13a0>)
    15e2:	0109      	lsls	r1, r1, #4
    15e4:	f000 fb92 	bl	1d0c <pwmout_pulsewidth_us>
    15e8:	f7ff f939 	bl	85e <main+0x58e>
    15ec:	2196      	movs	r1, #150	; 0x96
    15ee:	4820      	ldr	r0, [pc, #128]	; (1670 <main+0x13a0>)
    15f0:	0109      	lsls	r1, r1, #4
    15f2:	f000 fb8b 	bl	1d0c <pwmout_pulsewidth_us>
    15f6:	4659      	mov	r1, r11
    15f8:	68cb      	ldr	r3, [r1, #12]
    15fa:	684a      	ldr	r2, [r1, #4]
    15fc:	4651      	mov	r1, r10
    15fe:	601a      	str	r2, [r3, #0]
    1600:	684a      	ldr	r2, [r1, #4]
    1602:	690b      	ldr	r3, [r1, #16]
    1604:	4816      	ldr	r0, [pc, #88]	; (1660 <main+0x1390>)
    1606:	601a      	str	r2, [r3, #0]
    1608:	491e      	ldr	r1, [pc, #120]	; (1684 <main+0x13b4>)
    160a:	f000 fb2f 	bl	1c6c <pwmout_write>
    160e:	4649      	mov	r1, r9
    1610:	68cb      	ldr	r3, [r1, #12]
    1612:	684a      	ldr	r2, [r1, #4]
    1614:	4641      	mov	r1, r8
    1616:	601a      	str	r2, [r3, #0]
    1618:	684a      	ldr	r2, [r1, #4]
    161a:	690b      	ldr	r3, [r1, #16]
    161c:	4812      	ldr	r0, [pc, #72]	; (1668 <main+0x1398>)
    161e:	601a      	str	r2, [r3, #0]
    1620:	4918      	ldr	r1, [pc, #96]	; (1684 <main+0x13b4>)
    1622:	f000 fb23 	bl	1c6c <pwmout_write>
    1626:	f7ff f91a 	bl	85e <main+0x58e>
    162a:	4917      	ldr	r1, [pc, #92]	; (1688 <main+0x13b8>)
    162c:	4810      	ldr	r0, [pc, #64]	; (1670 <main+0x13a0>)
    162e:	f000 fb6d 	bl	1d0c <pwmout_pulsewidth_us>
    1632:	4816      	ldr	r0, [pc, #88]	; (168c <main+0x13bc>)
    1634:	f000 fbc2 	bl	1dbc <wait>
    1638:	480e      	ldr	r0, [pc, #56]	; (1674 <main+0x13a4>)
    163a:	4915      	ldr	r1, [pc, #84]	; (1690 <main+0x13c0>)
    163c:	3040      	adds	r0, #64	; 0x40
    163e:	f000 fe67 	bl	2310 <mbed::Stream::printf(char const*, ...)>
    1642:	230a      	movs	r3, #10
    1644:	f7fe fe63 	bl	30e <main+0x3e>
    1648:	66666666 	.word	0x66666666
    164c:	3fe66666 	.word	0x3fe66666
    1650:	000077e4 	.word	0x000077e4
    1654:	100001fc 	.word	0x100001fc
    1658:	10000194 	.word	0x10000194
    165c:	10000260 	.word	0x10000260
    1660:	10000264 	.word	0x10000264
    1664:	3f333333 	.word	0x3f333333
    1668:	1000026c 	.word	0x1000026c
    166c:	10000178 	.word	0x10000178
    1670:	10000198 	.word	0x10000198
    1674:	100001a0 	.word	0x100001a0
    1678:	00007814 	.word	0x00007814
    167c:	3f4ccccd 	.word	0x3f4ccccd
    1680:	3dcccccd 	.word	0x3dcccccd
    1684:	3f19999a 	.word	0x3f19999a
    1688:	0000073a 	.word	0x0000073a
    168c:	3e4ccccd 	.word	0x3e4ccccd
    1690:	00007808 	.word	0x00007808
    1694:	46c0      	nop			; (mov r8, r8)
    1696:	46c0      	nop			; (mov r8, r8)

00001698 <_GLOBAL__sub_I_start_sw>:
    1698:	4850      	ldr	r0, [pc, #320]	; (17dc <_GLOBAL__sub_I_start_sw+0x144>)
    169a:	2196      	movs	r1, #150	; 0x96
    169c:	b538      	push	{r3, r4, r5, lr}
    169e:	0049      	lsls	r1, r1, #1
    16a0:	2400      	movs	r4, #0
    16a2:	2202      	movs	r2, #2
    16a4:	2582      	movs	r5, #130	; 0x82
    16a6:	8004      	strh	r4, [r0, #0]
    16a8:	6044      	str	r4, [r0, #4]
    16aa:	6084      	str	r4, [r0, #8]
    16ac:	60c4      	str	r4, [r0, #12]
    16ae:	6104      	str	r4, [r0, #16]
    16b0:	6144      	str	r4, [r0, #20]
    16b2:	00ed      	lsls	r5, r5, #3
    16b4:	f000 fb38 	bl	1d28 <gpio_init_in_ex>
    16b8:	4849      	ldr	r0, [pc, #292]	; (17e0 <_GLOBAL__sub_I_start_sw+0x148>)
    16ba:	1c29      	adds	r1, r5, #0
    16bc:	2200      	movs	r2, #0
    16be:	8004      	strh	r4, [r0, #0]
    16c0:	6044      	str	r4, [r0, #4]
    16c2:	6084      	str	r4, [r0, #8]
    16c4:	60c4      	str	r4, [r0, #12]
    16c6:	6104      	str	r4, [r0, #16]
    16c8:	6144      	str	r4, [r0, #20]
    16ca:	f000 fb2d 	bl	1d28 <gpio_init_in_ex>
    16ce:	1c29      	adds	r1, r5, #0
    16d0:	4844      	ldr	r0, [pc, #272]	; (17e4 <_GLOBAL__sub_I_start_sw+0x14c>)
    16d2:	4d45      	ldr	r5, [pc, #276]	; (17e8 <_GLOBAL__sub_I_start_sw+0x150>)
    16d4:	f000 f8fa 	bl	18cc <analogin_init>
    16d8:	4844      	ldr	r0, [pc, #272]	; (17ec <_GLOBAL__sub_I_start_sw+0x154>)
    16da:	1c29      	adds	r1, r5, #0
    16dc:	2200      	movs	r2, #0
    16de:	8004      	strh	r4, [r0, #0]
    16e0:	6044      	str	r4, [r0, #4]
    16e2:	6084      	str	r4, [r0, #8]
    16e4:	60c4      	str	r4, [r0, #12]
    16e6:	6104      	str	r4, [r0, #16]
    16e8:	6144      	str	r4, [r0, #20]
    16ea:	f000 fb1d 	bl	1d28 <gpio_init_in_ex>
    16ee:	1c29      	adds	r1, r5, #0
    16f0:	483f      	ldr	r0, [pc, #252]	; (17f0 <_GLOBAL__sub_I_start_sw+0x158>)
    16f2:	2588      	movs	r5, #136	; 0x88
    16f4:	f000 f8ea 	bl	18cc <analogin_init>
    16f8:	016d      	lsls	r5, r5, #5
    16fa:	483e      	ldr	r0, [pc, #248]	; (17f4 <_GLOBAL__sub_I_start_sw+0x15c>)
    16fc:	1c29      	adds	r1, r5, #0
    16fe:	2200      	movs	r2, #0
    1700:	8004      	strh	r4, [r0, #0]
    1702:	6044      	str	r4, [r0, #4]
    1704:	6084      	str	r4, [r0, #8]
    1706:	60c4      	str	r4, [r0, #12]
    1708:	6104      	str	r4, [r0, #16]
    170a:	6144      	str	r4, [r0, #20]
    170c:	f000 fb0c 	bl	1d28 <gpio_init_in_ex>
    1710:	1c29      	adds	r1, r5, #0
    1712:	4839      	ldr	r0, [pc, #228]	; (17f8 <_GLOBAL__sub_I_start_sw+0x160>)
    1714:	4d39      	ldr	r5, [pc, #228]	; (17fc <_GLOBAL__sub_I_start_sw+0x164>)
    1716:	f000 f8d9 	bl	18cc <analogin_init>
    171a:	4839      	ldr	r0, [pc, #228]	; (1800 <_GLOBAL__sub_I_start_sw+0x168>)
    171c:	1c29      	adds	r1, r5, #0
    171e:	2200      	movs	r2, #0
    1720:	8004      	strh	r4, [r0, #0]
    1722:	6044      	str	r4, [r0, #4]
    1724:	6084      	str	r4, [r0, #8]
    1726:	60c4      	str	r4, [r0, #12]
    1728:	6104      	str	r4, [r0, #16]
    172a:	6144      	str	r4, [r0, #20]
    172c:	f000 fafc 	bl	1d28 <gpio_init_in_ex>
    1730:	1c29      	adds	r1, r5, #0
    1732:	4834      	ldr	r0, [pc, #208]	; (1804 <_GLOBAL__sub_I_start_sw+0x16c>)
    1734:	4d34      	ldr	r5, [pc, #208]	; (1808 <_GLOBAL__sub_I_start_sw+0x170>)
    1736:	f000 f8c9 	bl	18cc <analogin_init>
    173a:	4834      	ldr	r0, [pc, #208]	; (180c <_GLOBAL__sub_I_start_sw+0x174>)
    173c:	2200      	movs	r2, #0
    173e:	1c29      	adds	r1, r5, #0
    1740:	8004      	strh	r4, [r0, #0]
    1742:	6044      	str	r4, [r0, #4]
    1744:	6084      	str	r4, [r0, #8]
    1746:	60c4      	str	r4, [r0, #12]
    1748:	6104      	str	r4, [r0, #16]
    174a:	6144      	str	r4, [r0, #20]
    174c:	f000 faec 	bl	1d28 <gpio_init_in_ex>
    1750:	1c29      	adds	r1, r5, #0
    1752:	482f      	ldr	r0, [pc, #188]	; (1810 <_GLOBAL__sub_I_start_sw+0x178>)
    1754:	f000 f8ba 	bl	18cc <analogin_init>
    1758:	482e      	ldr	r0, [pc, #184]	; (1814 <_GLOBAL__sub_I_start_sw+0x17c>)
    175a:	492f      	ldr	r1, [pc, #188]	; (1818 <_GLOBAL__sub_I_start_sw+0x180>)
    175c:	8004      	strh	r4, [r0, #0]
    175e:	6044      	str	r4, [r0, #4]
    1760:	6084      	str	r4, [r0, #8]
    1762:	60c4      	str	r4, [r0, #12]
    1764:	6104      	str	r4, [r0, #16]
    1766:	6144      	str	r4, [r0, #20]
    1768:	f000 faf0 	bl	1d4c <gpio_init_out>
    176c:	482b      	ldr	r0, [pc, #172]	; (181c <_GLOBAL__sub_I_start_sw+0x184>)
    176e:	492c      	ldr	r1, [pc, #176]	; (1820 <_GLOBAL__sub_I_start_sw+0x188>)
    1770:	8004      	strh	r4, [r0, #0]
    1772:	6044      	str	r4, [r0, #4]
    1774:	6084      	str	r4, [r0, #8]
    1776:	60c4      	str	r4, [r0, #12]
    1778:	6104      	str	r4, [r0, #16]
    177a:	6144      	str	r4, [r0, #20]
    177c:	f000 fae6 	bl	1d4c <gpio_init_out>
    1780:	4828      	ldr	r0, [pc, #160]	; (1824 <_GLOBAL__sub_I_start_sw+0x18c>)
    1782:	4929      	ldr	r1, [pc, #164]	; (1828 <_GLOBAL__sub_I_start_sw+0x190>)
    1784:	f000 f964 	bl	1a50 <pwmout_init>
    1788:	4828      	ldr	r0, [pc, #160]	; (182c <_GLOBAL__sub_I_start_sw+0x194>)
    178a:	21c8      	movs	r1, #200	; 0xc8
    178c:	00c9      	lsls	r1, r1, #3
    178e:	8004      	strh	r4, [r0, #0]
    1790:	6044      	str	r4, [r0, #4]
    1792:	6084      	str	r4, [r0, #8]
    1794:	60c4      	str	r4, [r0, #12]
    1796:	6104      	str	r4, [r0, #16]
    1798:	6144      	str	r4, [r0, #20]
    179a:	f000 fad7 	bl	1d4c <gpio_init_out>
    179e:	4824      	ldr	r0, [pc, #144]	; (1830 <_GLOBAL__sub_I_start_sw+0x198>)
    17a0:	2144      	movs	r1, #68	; 0x44
    17a2:	8004      	strh	r4, [r0, #0]
    17a4:	6044      	str	r4, [r0, #4]
    17a6:	6084      	str	r4, [r0, #8]
    17a8:	60c4      	str	r4, [r0, #12]
    17aa:	6104      	str	r4, [r0, #16]
    17ac:	6144      	str	r4, [r0, #20]
    17ae:	f000 facd 	bl	1d4c <gpio_init_out>
    17b2:	4820      	ldr	r0, [pc, #128]	; (1834 <_GLOBAL__sub_I_start_sw+0x19c>)
    17b4:	4920      	ldr	r1, [pc, #128]	; (1838 <_GLOBAL__sub_I_start_sw+0x1a0>)
    17b6:	f000 f94b 	bl	1a50 <pwmout_init>
    17ba:	4820      	ldr	r0, [pc, #128]	; (183c <_GLOBAL__sub_I_start_sw+0x1a4>)
    17bc:	4920      	ldr	r1, [pc, #128]	; (1840 <_GLOBAL__sub_I_start_sw+0x1a8>)
    17be:	f000 f947 	bl	1a50 <pwmout_init>
    17c2:	4c20      	ldr	r4, [pc, #128]	; (1844 <_GLOBAL__sub_I_start_sw+0x1ac>)
    17c4:	2300      	movs	r3, #0
    17c6:	1c20      	adds	r0, r4, #0
    17c8:	491f      	ldr	r1, [pc, #124]	; (1848 <_GLOBAL__sub_I_start_sw+0x1b0>)
    17ca:	4a20      	ldr	r2, [pc, #128]	; (184c <_GLOBAL__sub_I_start_sw+0x1b4>)
    17cc:	f000 fcba 	bl	2144 <mbed::Serial::Serial(PinName, PinName, char const*)>
    17d0:	1c20      	adds	r0, r4, #0
    17d2:	491f      	ldr	r1, [pc, #124]	; (1850 <_GLOBAL__sub_I_start_sw+0x1b8>)
    17d4:	4a1f      	ldr	r2, [pc, #124]	; (1854 <_GLOBAL__sub_I_start_sw+0x1bc>)
    17d6:	f001 f9bf 	bl	2b58 <__aeabi_atexit>
    17da:	bd38      	pop	{r3, r4, r5, pc}
    17dc:	10000248 	.word	0x10000248
    17e0:	100002a4 	.word	0x100002a4
    17e4:	100001fc 	.word	0x100001fc
    17e8:	00000d04 	.word	0x00000d04
    17ec:	100002bc 	.word	0x100002bc
    17f0:	10000194 	.word	0x10000194
    17f4:	10000160 	.word	0x10000160
    17f8:	10000260 	.word	0x10000260
    17fc:	00001374 	.word	0x00001374
    1800:	1000028c 	.word	0x1000028c
    1804:	10000178 	.word	0x10000178
    1808:	00001470 	.word	0x00001470
    180c:	1000017c 	.word	0x1000017c
    1810:	100001f8 	.word	0x100001f8
    1814:	10000200 	.word	0x10000200
    1818:	00001b54 	.word	0x00001b54
    181c:	10000218 	.word	0x10000218
    1820:	00001a58 	.word	0x00001a58
    1824:	10000264 	.word	0x10000264
    1828:	0000195c 	.word	0x0000195c
    182c:	10000274 	.word	0x10000274
    1830:	10000230 	.word	0x10000230
    1834:	1000026c 	.word	0x1000026c
    1838:	00000e48 	.word	0x00000e48
    183c:	10000198 	.word	0x10000198
    1840:	00001764 	.word	0x00001764
    1844:	100001a0 	.word	0x100001a0
    1848:	0000073c 	.word	0x0000073c
    184c:	00001278 	.word	0x00001278
    1850:	00000235 	.word	0x00000235
    1854:	100000c0 	.word	0x100000c0

00001858 <_start>:
    1858:	4807      	ldr	r0, [pc, #28]	; (1878 <_start+0x20>)
    185a:	4a08      	ldr	r2, [pc, #32]	; (187c <_start+0x24>)
    185c:	b508      	push	{r3, lr}
    185e:	1a12      	subs	r2, r2, r0
    1860:	2100      	movs	r1, #0
    1862:	f004 fb0f 	bl	5e84 <memset>
    1866:	e000      	b.n	186a <_start+0x12>
    1868:	bf00      	nop
    186a:	f004 fa6d 	bl	5d48 <__libc_init_array>
    186e:	f7fe fd2f 	bl	2d0 <main>
    1872:	f003 ff59 	bl	5728 <exit>
    1876:	46c0      	nop			; (mov r8, r8)
    1878:	10000144 	.word	0x10000144
    187c:	10000428 	.word	0x10000428

00001880 <__wrap__isatty>:
    1880:	b508      	push	{r3, lr}
    1882:	2301      	movs	r3, #1
    1884:	2802      	cmp	r0, #2
    1886:	dd02      	ble.n	188e <__wrap__isatty+0xe>
    1888:	f000 fbea 	bl	2060 <_isatty>
    188c:	1c03      	adds	r3, r0, #0
    188e:	1c18      	adds	r0, r3, #0
    1890:	bd08      	pop	{r3, pc}
    1892:	46c0      	nop			; (mov r8, r8)

00001894 <__wrap_malloc>:
    1894:	b508      	push	{r3, lr}
    1896:	f3ef 8305 	mrs	r3, IPSR
    189a:	2b00      	cmp	r3, #0
    189c:	d000      	beq.n	18a0 <__wrap_malloc+0xc>
    189e:	be00      	bkpt	0x0000
    18a0:	f004 fac8 	bl	5e34 <malloc>
    18a4:	bd08      	pop	{r3, pc}
    18a6:	46c0      	nop			; (mov r8, r8)

000018a8 <__wrap_free>:
    18a8:	b508      	push	{r3, lr}
    18aa:	f3ef 8305 	mrs	r3, IPSR
    18ae:	2b00      	cmp	r3, #0
    18b0:	d000      	beq.n	18b4 <__wrap_free+0xc>
    18b2:	be00      	bkpt	0x0000
    18b4:	f004 fac8 	bl	5e48 <free>
    18b8:	bd08      	pop	{r3, pc}
    18ba:	46c0      	nop			; (mov r8, r8)

000018bc <abort>:
    18bc:	b508      	push	{r3, lr}
    18be:	2001      	movs	r0, #1
    18c0:	f003 ff32 	bl	5728 <exit>

000018c4 <__cxa_pure_virtual>:
    18c4:	b508      	push	{r3, lr}
    18c6:	f7ff fff9 	bl	18bc <abort>
    18ca:	46c0      	nop			; (mov r8, r8)

000018cc <analogin_init>:
    18cc:	b5f8      	push	{r3, r4, r5, r6, r7, lr}
    18ce:	464f      	mov	r7, r9
    18d0:	4646      	mov	r6, r8
    18d2:	b4c0      	push	{r6, r7}
    18d4:	1c04      	adds	r4, r0, #0
    18d6:	1c0d      	adds	r5, r1, #0
    18d8:	1c08      	adds	r0, r1, #0
    18da:	4921      	ldr	r1, [pc, #132]	; (1960 <analogin_init+0x94>)
    18dc:	f000 fa4a 	bl	1d74 <pinmap_peripheral>
    18e0:	4b20      	ldr	r3, [pc, #128]	; (1964 <analogin_init+0x98>)
    18e2:	2280      	movs	r2, #128	; 0x80
    18e4:	7020      	strb	r0, [r4, #0]
    18e6:	589c      	ldr	r4, [r3, r2]
    18e8:	2140      	movs	r1, #64	; 0x40
    18ea:	4321      	orrs	r1, r4
    18ec:	5099      	str	r1, [r3, r2]
    18ee:	4f1e      	ldr	r7, [pc, #120]	; (1968 <analogin_init+0x9c>)
    18f0:	21e0      	movs	r1, #224	; 0xe0
    18f2:	0049      	lsls	r1, r1, #1
    18f4:	587c      	ldr	r4, [r7, r1]
    18f6:	2601      	movs	r6, #1
    18f8:	46a4      	mov	r12, r4
    18fa:	24ff      	movs	r4, #255	; 0xff
    18fc:	4020      	ands	r0, r4
    18fe:	4689      	mov	r9, r1
    1900:	300d      	adds	r0, #13
    1902:	1c31      	adds	r1, r6, #0
    1904:	4081      	lsls	r1, r0
    1906:	4660      	mov	r0, r12
    1908:	4388      	bics	r0, r1
    190a:	4649      	mov	r1, r9
    190c:	5078      	str	r0, [r7, r1]
    190e:	20a0      	movs	r0, #160	; 0xa0
    1910:	2180      	movs	r1, #128	; 0x80
    1912:	0600      	lsls	r0, r0, #24
    1914:	0189      	lsls	r1, r1, #6
    1916:	5847      	ldr	r7, [r0, r1]
    1918:	122d      	asrs	r5, r5, #8
    191a:	40ae      	lsls	r6, r5
    191c:	1c3d      	adds	r5, r7, #0
    191e:	43b5      	bics	r5, r6
    1920:	5045      	str	r5, [r0, r1]
    1922:	218e      	movs	r1, #142	; 0x8e
    1924:	0089      	lsls	r1, r1, #2
    1926:	5858      	ldr	r0, [r3, r1]
    1928:	2510      	movs	r5, #16
    192a:	43a8      	bics	r0, r5
    192c:	5058      	str	r0, [r3, r1]
    192e:	5898      	ldr	r0, [r3, r2]
    1930:	2180      	movs	r1, #128	; 0x80
    1932:	0449      	lsls	r1, r1, #17
    1934:	4301      	orrs	r1, r0
    1936:	5099      	str	r1, [r3, r2]
    1938:	4b0c      	ldr	r3, [pc, #48]	; (196c <analogin_init+0xa0>)
    193a:	490d      	ldr	r1, [pc, #52]	; (1970 <analogin_init+0xa4>)
    193c:	6818      	ldr	r0, [r3, #0]
    193e:	f001 f913 	bl	2b68 <__aeabi_uidiv>
    1942:	2280      	movs	r2, #128	; 0x80
    1944:	3801      	subs	r0, #1
    1946:	4004      	ands	r4, r0
    1948:	05d2      	lsls	r2, r2, #23
    194a:	490a      	ldr	r1, [pc, #40]	; (1974 <analogin_init+0xa8>)
    194c:	4314      	orrs	r4, r2
    194e:	600c      	str	r4, [r1, #0]
    1950:	680b      	ldr	r3, [r1, #0]
    1952:	4213      	tst	r3, r2
    1954:	d1fc      	bne.n	1950 <analogin_init+0x84>
    1956:	bc0c      	pop	{r2, r3}
    1958:	4690      	mov	r8, r2
    195a:	4699      	mov	r9, r3
    195c:	bdf8      	pop	{r3, r4, r5, r6, r7, pc}
    195e:	46c0      	nop			; (mov r8, r8)
    1960:	0000782c 	.word	0x0000782c
    1964:	40048000 	.word	0x40048000
    1968:	4000c000 	.word	0x4000c000
    196c:	100000c8 	.word	0x100000c8
    1970:	0007a120 	.word	0x0007a120
    1974:	4001c000 	.word	0x4001c000

00001978 <analogin_read>:
    1978:	4933      	ldr	r1, [pc, #204]	; (1a48 <analogin_read+0xd0>)
    197a:	7803      	ldrb	r3, [r0, #0]
    197c:	b530      	push	{r4, r5, lr}
    197e:	251f      	movs	r5, #31
    1980:	401d      	ands	r5, r3
    1982:	688b      	ldr	r3, [r1, #8]
    1984:	2201      	movs	r2, #1
    1986:	0b1b      	lsrs	r3, r3, #12
    1988:	031b      	lsls	r3, r3, #12
    198a:	608b      	str	r3, [r1, #8]
    198c:	688b      	ldr	r3, [r1, #8]
    198e:	40aa      	lsls	r2, r5
    1990:	4313      	orrs	r3, r2
    1992:	608b      	str	r3, [r1, #8]
    1994:	1c15      	adds	r5, r2, #0
    1996:	2384      	movs	r3, #132	; 0x84
    1998:	688a      	ldr	r2, [r1, #8]
    199a:	061b      	lsls	r3, r3, #24
    199c:	4313      	orrs	r3, r2
    199e:	b085      	sub	sp, #20
    19a0:	608b      	str	r3, [r1, #8]
    19a2:	690b      	ldr	r3, [r1, #16]
    19a4:	4a28      	ldr	r2, [pc, #160]	; (1a48 <analogin_read+0xd0>)
    19a6:	9301      	str	r3, [sp, #4]
    19a8:	9b01      	ldr	r3, [sp, #4]
    19aa:	2b00      	cmp	r3, #0
    19ac:	daf9      	bge.n	19a2 <analogin_read+0x2a>
    19ae:	6893      	ldr	r3, [r2, #8]
    19b0:	005b      	lsls	r3, r3, #1
    19b2:	085b      	lsrs	r3, r3, #1
    19b4:	6093      	str	r3, [r2, #8]
    19b6:	9801      	ldr	r0, [sp, #4]
    19b8:	6893      	ldr	r3, [r2, #8]
    19ba:	0400      	lsls	r0, r0, #16
    19bc:	0b1b      	lsrs	r3, r3, #12
    19be:	031b      	lsls	r3, r3, #12
    19c0:	6093      	str	r3, [r2, #8]
    19c2:	6893      	ldr	r3, [r2, #8]
    19c4:	0d00      	lsrs	r0, r0, #20
    19c6:	432b      	orrs	r3, r5
    19c8:	6093      	str	r3, [r2, #8]
    19ca:	6891      	ldr	r1, [r2, #8]
    19cc:	2384      	movs	r3, #132	; 0x84
    19ce:	061b      	lsls	r3, r3, #24
    19d0:	430b      	orrs	r3, r1
    19d2:	6093      	str	r3, [r2, #8]
    19d4:	1c11      	adds	r1, r2, #0
    19d6:	690b      	ldr	r3, [r1, #16]
    19d8:	4a1b      	ldr	r2, [pc, #108]	; (1a48 <analogin_read+0xd0>)
    19da:	9302      	str	r3, [sp, #8]
    19dc:	9b02      	ldr	r3, [sp, #8]
    19de:	2b00      	cmp	r3, #0
    19e0:	daf9      	bge.n	19d6 <analogin_read+0x5e>
    19e2:	6893      	ldr	r3, [r2, #8]
    19e4:	005b      	lsls	r3, r3, #1
    19e6:	085b      	lsrs	r3, r3, #1
    19e8:	6093      	str	r3, [r2, #8]
    19ea:	9c02      	ldr	r4, [sp, #8]
    19ec:	6893      	ldr	r3, [r2, #8]
    19ee:	0424      	lsls	r4, r4, #16
    19f0:	0b1b      	lsrs	r3, r3, #12
    19f2:	031b      	lsls	r3, r3, #12
    19f4:	6093      	str	r3, [r2, #8]
    19f6:	6893      	ldr	r3, [r2, #8]
    19f8:	0d24      	lsrs	r4, r4, #20
    19fa:	431d      	orrs	r5, r3
    19fc:	6095      	str	r5, [r2, #8]
    19fe:	6891      	ldr	r1, [r2, #8]
    1a00:	2384      	movs	r3, #132	; 0x84
    1a02:	061b      	lsls	r3, r3, #24
    1a04:	430b      	orrs	r3, r1
    1a06:	6093      	str	r3, [r2, #8]
    1a08:	6913      	ldr	r3, [r2, #16]
    1a0a:	490f      	ldr	r1, [pc, #60]	; (1a48 <analogin_read+0xd0>)
    1a0c:	9303      	str	r3, [sp, #12]
    1a0e:	9b03      	ldr	r3, [sp, #12]
    1a10:	2b00      	cmp	r3, #0
    1a12:	daf9      	bge.n	1a08 <analogin_read+0x90>
    1a14:	688b      	ldr	r3, [r1, #8]
    1a16:	005b      	lsls	r3, r3, #1
    1a18:	085b      	lsrs	r3, r3, #1
    1a1a:	608b      	str	r3, [r1, #8]
    1a1c:	9b03      	ldr	r3, [sp, #12]
    1a1e:	041b      	lsls	r3, r3, #16
    1a20:	0d1b      	lsrs	r3, r3, #20
    1a22:	42a0      	cmp	r0, r4
    1a24:	d802      	bhi.n	1a2c <analogin_read+0xb4>
    1a26:	1c22      	adds	r2, r4, #0
    1a28:	1c04      	adds	r4, r0, #0
    1a2a:	1c10      	adds	r0, r2, #0
    1a2c:	4298      	cmp	r0, r3
    1a2e:	d900      	bls.n	1a32 <analogin_read+0xba>
    1a30:	1c18      	adds	r0, r3, #0
    1a32:	42a0      	cmp	r0, r4
    1a34:	d200      	bcs.n	1a38 <analogin_read+0xc0>
    1a36:	1c20      	adds	r0, r4, #0
    1a38:	f001 ffd4 	bl	39e4 <__aeabi_ui2f>
    1a3c:	4903      	ldr	r1, [pc, #12]	; (1a4c <analogin_read+0xd4>)
    1a3e:	f001 fcbb 	bl	33b8 <__aeabi_fmul>
    1a42:	b005      	add	sp, #20
    1a44:	bd30      	pop	{r4, r5, pc}
    1a46:	46c0      	nop			; (mov r8, r8)
    1a48:	4001c000 	.word	0x4001c000
    1a4c:	39800801 	.word	0x39800801

00001a50 <pwmout_init>:
    1a50:	b5f0      	push	{r4, r5, r6, r7, lr}
    1a52:	465f      	mov	r7, r11
    1a54:	4644      	mov	r4, r8
    1a56:	4656      	mov	r6, r10
    1a58:	464d      	mov	r5, r9
    1a5a:	b4f0      	push	{r4, r5, r6, r7}
    1a5c:	4c75      	ldr	r4, [pc, #468]	; (1c34 <pwmout_init+0x1e4>)
    1a5e:	b085      	sub	sp, #20
    1a60:	9103      	str	r1, [sp, #12]
    1a62:	7821      	ldrb	r1, [r4, #0]
    1a64:	4683      	mov	r11, r0
    1a66:	2300      	movs	r3, #0
    1a68:	2001      	movs	r0, #1
    1a6a:	1c0a      	adds	r2, r1, #0
    1a6c:	411a      	asrs	r2, r3
    1a6e:	2501      	movs	r5, #1
    1a70:	4210      	tst	r0, r2
    1a72:	d100      	bne.n	1a76 <pwmout_init+0x26>
    1a74:	e0c4      	b.n	1c00 <pwmout_init+0x1b0>
    1a76:	3301      	adds	r3, #1
    1a78:	2b04      	cmp	r3, #4
    1a7a:	d1f6      	bne.n	1a6a <pwmout_init+0x1a>
    1a7c:	486e      	ldr	r0, [pc, #440]	; (1c38 <pwmout_init+0x1e8>)
    1a7e:	2501      	movs	r5, #1
    1a80:	2702      	movs	r7, #2
    1a82:	f000 f94b 	bl	1d1c <error>
    1a86:	426d      	negs	r5, r5
    1a88:	2600      	movs	r6, #0
    1a8a:	427f      	negs	r7, r7
    1a8c:	7821      	ldrb	r1, [r4, #0]
    1a8e:	9601      	str	r6, [sp, #4]
    1a90:	9600      	str	r6, [sp, #0]
    1a92:	46aa      	mov	r10, r5
    1a94:	9702      	str	r7, [sp, #8]
    1a96:	46a9      	mov	r9, r5
    1a98:	46b8      	mov	r8, r7
    1a9a:	1c2b      	adds	r3, r5, #0
    1a9c:	2200      	movs	r2, #0
    1a9e:	1c2e      	adds	r6, r5, #0
    1aa0:	4311      	orrs	r1, r2
    1aa2:	4a66      	ldr	r2, [pc, #408]	; (1c3c <pwmout_init+0x1ec>)
    1aa4:	4658      	mov	r0, r11
    1aa6:	c00c      	stmia	r0!, {r2, r3}
    1aa8:	4b65      	ldr	r3, [pc, #404]	; (1c40 <pwmout_init+0x1f0>)
    1aaa:	7021      	strb	r1, [r4, #0]
    1aac:	2180      	movs	r1, #128	; 0x80
    1aae:	5858      	ldr	r0, [r3, r1]
    1ab0:	2280      	movs	r2, #128	; 0x80
    1ab2:	0052      	lsls	r2, r2, #1
    1ab4:	4310      	orrs	r0, r2
    1ab6:	5058      	str	r0, [r3, r1]
    1ab8:	6859      	ldr	r1, [r3, #4]
    1aba:	430a      	orrs	r2, r1
    1abc:	605a      	str	r2, [r3, #4]
    1abe:	2e01      	cmp	r6, #1
    1ac0:	d100      	bne.n	1ac4 <pwmout_init+0x74>
    1ac2:	e092      	b.n	1bea <pwmout_init+0x19a>
    1ac4:	dc00      	bgt.n	1ac8 <pwmout_init+0x78>
    1ac6:	e081      	b.n	1bcc <pwmout_init+0x17c>
    1ac8:	2e02      	cmp	r6, #2
    1aca:	d100      	bne.n	1ace <pwmout_init+0x7e>
    1acc:	e072      	b.n	1bb4 <pwmout_init+0x164>
    1ace:	2e03      	cmp	r6, #3
    1ad0:	d10a      	bne.n	1ae8 <pwmout_init+0x98>
    1ad2:	4b5c      	ldr	r3, [pc, #368]	; (1c44 <pwmout_init+0x1f4>)
    1ad4:	4a5c      	ldr	r2, [pc, #368]	; (1c48 <pwmout_init+0x1f8>)
    1ad6:	6a19      	ldr	r1, [r3, #32]
    1ad8:	400a      	ands	r2, r1
    1ada:	621a      	str	r2, [r3, #32]
    1adc:	9803      	ldr	r0, [sp, #12]
    1ade:	6a19      	ldr	r1, [r3, #32]
    1ae0:	1202      	asrs	r2, r0, #8
    1ae2:	0412      	lsls	r2, r2, #16
    1ae4:	430a      	orrs	r2, r1
    1ae6:	621a      	str	r2, [r3, #32]
    1ae8:	4c54      	ldr	r4, [pc, #336]	; (1c3c <pwmout_init+0x1ec>)
    1aea:	4a58      	ldr	r2, [pc, #352]	; (1c4c <pwmout_init+0x1fc>)
    1aec:	6823      	ldr	r3, [r4, #0]
    1aee:	00f6      	lsls	r6, r6, #3
    1af0:	4313      	orrs	r3, r2
    1af2:	6023      	str	r3, [r4, #0]
    1af4:	6862      	ldr	r2, [r4, #4]
    1af6:	230c      	movs	r3, #12
    1af8:	4313      	orrs	r3, r2
    1afa:	6063      	str	r3, [r4, #4]
    1afc:	6862      	ldr	r2, [r4, #4]
    1afe:	4b54      	ldr	r3, [pc, #336]	; (1c50 <pwmout_init+0x200>)
    1b00:	1936      	adds	r6, r6, r4
    1b02:	4013      	ands	r3, r2
    1b04:	6063      	str	r3, [r4, #4]
    1b06:	6861      	ldr	r1, [r4, #4]
    1b08:	4b52      	ldr	r3, [pc, #328]	; (1c54 <pwmout_init+0x204>)
    1b0a:	468b      	mov	r11, r1
    1b0c:	6818      	ldr	r0, [r3, #0]
    1b0e:	4952      	ldr	r1, [pc, #328]	; (1c58 <pwmout_init+0x208>)
    1b10:	f001 f82a 	bl	2b68 <__aeabi_uidiv>
    1b14:	237f      	movs	r3, #127	; 0x7f
    1b16:	3801      	subs	r0, #1
    1b18:	4003      	ands	r3, r0
    1b1a:	465a      	mov	r2, r11
    1b1c:	015b      	lsls	r3, r3, #5
    1b1e:	4313      	orrs	r3, r2
    1b20:	6063      	str	r3, [r4, #4]
    1b22:	9800      	ldr	r0, [sp, #0]
    1b24:	23a0      	movs	r3, #160	; 0xa0
    1b26:	00db      	lsls	r3, r3, #3
    1b28:	50f0      	str	r0, [r6, r3]
    1b2a:	9901      	ldr	r1, [sp, #4]
    1b2c:	4b4b      	ldr	r3, [pc, #300]	; (1c5c <pwmout_init+0x20c>)
    1b2e:	20c1      	movs	r0, #193	; 0xc1
    1b30:	50f1      	str	r1, [r6, r3]
    1b32:	4643      	mov	r3, r8
    1b34:	9e02      	ldr	r6, [sp, #8]
    1b36:	00da      	lsls	r2, r3, #3
    1b38:	1912      	adds	r2, r2, r4
    1b3a:	0080      	lsls	r0, r0, #2
    1b3c:	23c0      	movs	r3, #192	; 0xc0
    1b3e:	2101      	movs	r1, #1
    1b40:	5016      	str	r6, [r2, r0]
    1b42:	009b      	lsls	r3, r3, #2
    1b44:	4249      	negs	r1, r1
    1b46:	464e      	mov	r6, r9
    1b48:	50d1      	str	r1, [r2, r3]
    1b4a:	00f2      	lsls	r2, r6, #3
    1b4c:	1912      	adds	r2, r2, r4
    1b4e:	4656      	mov	r6, r10
    1b50:	5016      	str	r6, [r2, r0]
    1b52:	50d1      	str	r1, [r2, r3]
    1b54:	6863      	ldr	r3, [r4, #4]
    1b56:	2204      	movs	r2, #4
    1b58:	4393      	bics	r3, r2
    1b5a:	00bf      	lsls	r7, r7, #2
    1b5c:	6063      	str	r3, [r4, #4]
    1b5e:	193f      	adds	r7, r7, r4
    1b60:	2480      	movs	r4, #128	; 0x80
    1b62:	00a4      	lsls	r4, r4, #2
    1b64:	4935      	ldr	r1, [pc, #212]	; (1c3c <pwmout_init+0x1ec>)
    1b66:	4b3e      	ldr	r3, [pc, #248]	; (1c60 <pwmout_init+0x210>)
    1b68:	5938      	ldr	r0, [r7, r4]
    1b6a:	00ad      	lsls	r5, r5, #2
    1b6c:	186d      	adds	r5, r5, r1
    1b6e:	4680      	mov	r8, r0
    1b70:	5928      	ldr	r0, [r5, r4]
    1b72:	513b      	str	r3, [r7, r4]
    1b74:	f001 ff36 	bl	39e4 <__aeabi_ui2f>
    1b78:	1c06      	adds	r6, r0, #0
    1b7a:	4640      	mov	r0, r8
    1b7c:	f001 ff32 	bl	39e4 <__aeabi_ui2f>
    1b80:	1c01      	adds	r1, r0, #0
    1b82:	1c30      	adds	r0, r6, #0
    1b84:	f001 fa34 	bl	2ff0 <__aeabi_fdiv>
    1b88:	4936      	ldr	r1, [pc, #216]	; (1c64 <pwmout_init+0x214>)
    1b8a:	f001 fc15 	bl	33b8 <__aeabi_fmul>
    1b8e:	f001 f8b3 	bl	2cf8 <__aeabi_f2uiz>
    1b92:	5128      	str	r0, [r5, r4]
    1b94:	5938      	ldr	r0, [r7, r4]
    1b96:	f001 ff25 	bl	39e4 <__aeabi_ui2f>
    1b9a:	2100      	movs	r1, #0
    1b9c:	f001 fc0c 	bl	33b8 <__aeabi_fmul>
    1ba0:	f001 f8aa 	bl	2cf8 <__aeabi_f2uiz>
    1ba4:	5128      	str	r0, [r5, r4]
    1ba6:	b005      	add	sp, #20
    1ba8:	bc3c      	pop	{r2, r3, r4, r5}
    1baa:	4690      	mov	r8, r2
    1bac:	4699      	mov	r9, r3
    1bae:	46a2      	mov	r10, r4
    1bb0:	46ab      	mov	r11, r5
    1bb2:	bdf0      	pop	{r4, r5, r6, r7, pc}
    1bb4:	4b23      	ldr	r3, [pc, #140]	; (1c44 <pwmout_init+0x1f4>)
    1bb6:	4a2c      	ldr	r2, [pc, #176]	; (1c68 <pwmout_init+0x218>)
    1bb8:	6a19      	ldr	r1, [r3, #32]
    1bba:	400a      	ands	r2, r1
    1bbc:	621a      	str	r2, [r3, #32]
    1bbe:	9803      	ldr	r0, [sp, #12]
    1bc0:	6a19      	ldr	r1, [r3, #32]
    1bc2:	1202      	asrs	r2, r0, #8
    1bc4:	0212      	lsls	r2, r2, #8
    1bc6:	430a      	orrs	r2, r1
    1bc8:	621a      	str	r2, [r3, #32]
    1bca:	e78d      	b.n	1ae8 <pwmout_init+0x98>
    1bcc:	2e00      	cmp	r6, #0
    1bce:	d000      	beq.n	1bd2 <pwmout_init+0x182>
    1bd0:	e78a      	b.n	1ae8 <pwmout_init+0x98>
    1bd2:	4b1c      	ldr	r3, [pc, #112]	; (1c44 <pwmout_init+0x1f4>)
    1bd4:	69da      	ldr	r2, [r3, #28]
    1bd6:	0212      	lsls	r2, r2, #8
    1bd8:	0a12      	lsrs	r2, r2, #8
    1bda:	61da      	str	r2, [r3, #28]
    1bdc:	9803      	ldr	r0, [sp, #12]
    1bde:	69d9      	ldr	r1, [r3, #28]
    1be0:	1202      	asrs	r2, r0, #8
    1be2:	0612      	lsls	r2, r2, #24
    1be4:	430a      	orrs	r2, r1
    1be6:	61da      	str	r2, [r3, #28]
    1be8:	e77e      	b.n	1ae8 <pwmout_init+0x98>
    1bea:	4b16      	ldr	r3, [pc, #88]	; (1c44 <pwmout_init+0x1f4>)
    1bec:	21ff      	movs	r1, #255	; 0xff
    1bee:	6a1a      	ldr	r2, [r3, #32]
    1bf0:	438a      	bics	r2, r1
    1bf2:	621a      	str	r2, [r3, #32]
    1bf4:	9803      	ldr	r0, [sp, #12]
    1bf6:	6a1a      	ldr	r2, [r3, #32]
    1bf8:	1201      	asrs	r1, r0, #8
    1bfa:	430a      	orrs	r2, r1
    1bfc:	621a      	str	r2, [r3, #32]
    1bfe:	e773      	b.n	1ae8 <pwmout_init+0x98>
    1c00:	0058      	lsls	r0, r3, #1
    1c02:	1c2e      	adds	r6, r5, #0
    1c04:	4680      	mov	r8, r0
    1c06:	4086      	lsls	r6, r0
    1c08:	2001      	movs	r0, #1
    1c0a:	4681      	mov	r9, r0
    1c0c:	44c1      	add	r9, r8
    1c0e:	9600      	str	r6, [sp, #0]
    1c10:	464e      	mov	r6, r9
    1c12:	1c2a      	adds	r2, r5, #0
    1c14:	2080      	movs	r0, #128	; 0x80
    1c16:	40b5      	lsls	r5, r6
    1c18:	0140      	lsls	r0, r0, #5
    1c1a:	9501      	str	r5, [sp, #4]
    1c1c:	4645      	mov	r5, r8
    1c1e:	4305      	orrs	r5, r0
    1c20:	4306      	orrs	r6, r0
    1c22:	409a      	lsls	r2, r3
    1c24:	9502      	str	r5, [sp, #8]
    1c26:	46b2      	mov	r10, r6
    1c28:	b2d2      	uxtb	r2, r2
    1c2a:	4647      	mov	r7, r8
    1c2c:	464d      	mov	r5, r9
    1c2e:	1c1e      	adds	r6, r3, #0
    1c30:	e736      	b.n	1aa0 <pwmout_init+0x50>
    1c32:	46c0      	nop			; (mov r8, r8)
    1c34:	100002d4 	.word	0x100002d4
    1c38:	000078bc 	.word	0x000078bc
    1c3c:	50004000 	.word	0x50004000
    1c40:	40048000 	.word	0x40048000
    1c44:	4000c000 	.word	0x4000c000
    1c48:	ff00ffff 	.word	0xff00ffff
    1c4c:	00060001 	.word	0x00060001
    1c50:	fffff01f 	.word	0xfffff01f
    1c54:	100000c8 	.word	0x100000c8
    1c58:	000f4240 	.word	0x000f4240
    1c5c:	00000504 	.word	0x00000504
    1c60:	00004e20 	.word	0x00004e20
    1c64:	469c4000 	.word	0x469c4000
    1c68:	ffff00ff 	.word	0xffff00ff

00001c6c <pwmout_write>:
    1c6c:	b570      	push	{r4, r5, r6, lr}
    1c6e:	1c06      	adds	r6, r0, #0
    1c70:	1c0c      	adds	r4, r1, #0
    1c72:	1c08      	adds	r0, r1, #0
    1c74:	2100      	movs	r1, #0
    1c76:	f001 f817 	bl	2ca8 <__aeabi_fcmplt>
    1c7a:	2800      	cmp	r0, #0
    1c7c:	d11a      	bne.n	1cb4 <pwmout_write+0x48>
    1c7e:	21fe      	movs	r1, #254	; 0xfe
    1c80:	1c20      	adds	r0, r4, #0
    1c82:	0589      	lsls	r1, r1, #22
    1c84:	f001 f824 	bl	2cd0 <__aeabi_fcmpgt>
    1c88:	2800      	cmp	r0, #0
    1c8a:	d001      	beq.n	1c90 <pwmout_write+0x24>
    1c8c:	24fe      	movs	r4, #254	; 0xfe
    1c8e:	05a4      	lsls	r4, r4, #22
    1c90:	6835      	ldr	r5, [r6, #0]
    1c92:	6876      	ldr	r6, [r6, #4]
    1c94:	0076      	lsls	r6, r6, #1
    1c96:	1c33      	adds	r3, r6, #0
    1c98:	3380      	adds	r3, #128	; 0x80
    1c9a:	009b      	lsls	r3, r3, #2
    1c9c:	5958      	ldr	r0, [r3, r5]
    1c9e:	f001 fea1 	bl	39e4 <__aeabi_ui2f>
    1ca2:	1c21      	adds	r1, r4, #0
    1ca4:	f001 fb88 	bl	33b8 <__aeabi_fmul>
    1ca8:	f001 f826 	bl	2cf8 <__aeabi_f2uiz>
    1cac:	3681      	adds	r6, #129	; 0x81
    1cae:	00b6      	lsls	r6, r6, #2
    1cb0:	5170      	str	r0, [r6, r5]
    1cb2:	bd70      	pop	{r4, r5, r6, pc}
    1cb4:	2400      	movs	r4, #0
    1cb6:	e7eb      	b.n	1c90 <pwmout_write+0x24>

00001cb8 <pwmout_period_ms>:
    1cb8:	b5f0      	push	{r4, r5, r6, r7, lr}
    1cba:	c824      	ldmia	r0!, {r2, r5}
    1cbc:	26fa      	movs	r6, #250	; 0xfa
    1cbe:	00b6      	lsls	r6, r6, #2
    1cc0:	434e      	muls	r6, r1
    1cc2:	00eb      	lsls	r3, r5, #3
    1cc4:	2480      	movs	r4, #128	; 0x80
    1cc6:	00ed      	lsls	r5, r5, #3
    1cc8:	18d3      	adds	r3, r2, r3
    1cca:	00a4      	lsls	r4, r4, #2
    1ccc:	3504      	adds	r5, #4
    1cce:	5919      	ldr	r1, [r3, r4]
    1cd0:	1955      	adds	r5, r2, r5
    1cd2:	4647      	mov	r7, r8
    1cd4:	b480      	push	{r7}
    1cd6:	5928      	ldr	r0, [r5, r4]
    1cd8:	511e      	str	r6, [r3, r4]
    1cda:	4688      	mov	r8, r1
    1cdc:	f001 fe82 	bl	39e4 <__aeabi_ui2f>
    1ce0:	1c07      	adds	r7, r0, #0
    1ce2:	4640      	mov	r0, r8
    1ce4:	f001 fe7e 	bl	39e4 <__aeabi_ui2f>
    1ce8:	1c01      	adds	r1, r0, #0
    1cea:	1c38      	adds	r0, r7, #0
    1cec:	f001 f980 	bl	2ff0 <__aeabi_fdiv>
    1cf0:	1c07      	adds	r7, r0, #0
    1cf2:	1c30      	adds	r0, r6, #0
    1cf4:	f001 fe1a 	bl	392c <__aeabi_i2f>
    1cf8:	1c01      	adds	r1, r0, #0
    1cfa:	1c38      	adds	r0, r7, #0
    1cfc:	f001 fb5c 	bl	33b8 <__aeabi_fmul>
    1d00:	f000 fffa 	bl	2cf8 <__aeabi_f2uiz>
    1d04:	5128      	str	r0, [r5, r4]
    1d06:	bc04      	pop	{r2}
    1d08:	4690      	mov	r8, r2
    1d0a:	bdf0      	pop	{r4, r5, r6, r7, pc}

00001d0c <pwmout_pulsewidth_us>:
    1d0c:	6842      	ldr	r2, [r0, #4]
    1d0e:	6803      	ldr	r3, [r0, #0]
    1d10:	2081      	movs	r0, #129	; 0x81
    1d12:	0080      	lsls	r0, r0, #2
    1d14:	00d2      	lsls	r2, r2, #3
    1d16:	1812      	adds	r2, r2, r0
    1d18:	50d1      	str	r1, [r2, r3]
    1d1a:	4770      	bx	lr

00001d1c <error>:
    1d1c:	b40f      	push	{r0, r1, r2, r3}
    1d1e:	2001      	movs	r0, #1
    1d20:	b508      	push	{r3, lr}
    1d22:	f003 fd01 	bl	5728 <exit>
    1d26:	46c0      	nop			; (mov r8, r8)

00001d28 <gpio_init_in_ex>:
    1d28:	b570      	push	{r4, r5, r6, lr}
    1d2a:	1c0d      	adds	r5, r1, #0
    1d2c:	1c04      	adds	r4, r0, #0
    1d2e:	1c16      	adds	r6, r2, #0
    1d30:	f000 fb2a 	bl	2388 <gpio_init>
    1d34:	3501      	adds	r5, #1
    1d36:	d007      	beq.n	1d48 <gpio_init_in_ex+0x20>
    1d38:	1c20      	adds	r0, r4, #0
    1d3a:	2100      	movs	r1, #0
    1d3c:	f000 fb44 	bl	23c8 <gpio_dir>
    1d40:	1c20      	adds	r0, r4, #0
    1d42:	1c31      	adds	r1, r6, #0
    1d44:	f000 fb3a 	bl	23bc <gpio_mode>
    1d48:	bd70      	pop	{r4, r5, r6, pc}
    1d4a:	46c0      	nop			; (mov r8, r8)

00001d4c <gpio_init_out>:
    1d4c:	b538      	push	{r3, r4, r5, lr}
    1d4e:	1c0d      	adds	r5, r1, #0
    1d50:	1c04      	adds	r4, r0, #0
    1d52:	f000 fb19 	bl	2388 <gpio_init>
    1d56:	3501      	adds	r5, #1
    1d58:	d00a      	beq.n	1d70 <gpio_init_out+0x24>
    1d5a:	6923      	ldr	r3, [r4, #16]
    1d5c:	6862      	ldr	r2, [r4, #4]
    1d5e:	1c20      	adds	r0, r4, #0
    1d60:	2101      	movs	r1, #1
    1d62:	601a      	str	r2, [r3, #0]
    1d64:	f000 fb30 	bl	23c8 <gpio_dir>
    1d68:	1c20      	adds	r0, r4, #0
    1d6a:	2100      	movs	r1, #0
    1d6c:	f000 fb26 	bl	23bc <gpio_mode>
    1d70:	bd38      	pop	{r3, r4, r5, pc}
    1d72:	46c0      	nop			; (mov r8, r8)

00001d74 <pinmap_peripheral>:
    1d74:	1c02      	adds	r2, r0, #0
    1d76:	b508      	push	{r3, lr}
    1d78:	1c53      	adds	r3, r2, #1
    1d7a:	d103      	bne.n	1d84 <pinmap_peripheral+0x10>
    1d7c:	e00b      	b.n	1d96 <pinmap_peripheral+0x22>
    1d7e:	429a      	cmp	r2, r3
    1d80:	d00a      	beq.n	1d98 <pinmap_peripheral+0x24>
    1d82:	310c      	adds	r1, #12
    1d84:	2000      	movs	r0, #0
    1d86:	5e0b      	ldrsh	r3, [r1, r0]
    1d88:	1c58      	adds	r0, r3, #1
    1d8a:	d1f8      	bne.n	1d7e <pinmap_peripheral+0xa>
    1d8c:	4804      	ldr	r0, [pc, #16]	; (1da0 <pinmap_peripheral+0x2c>)
    1d8e:	f7ff ffc5 	bl	1d1c <error>
    1d92:	2001      	movs	r0, #1
    1d94:	4240      	negs	r0, r0
    1d96:	bd08      	pop	{r3, pc}
    1d98:	6848      	ldr	r0, [r1, #4]
    1d9a:	1c43      	adds	r3, r0, #1
    1d9c:	d1fb      	bne.n	1d96 <pinmap_peripheral+0x22>
    1d9e:	e7f5      	b.n	1d8c <pinmap_peripheral+0x18>
    1da0:	000078f8 	.word	0x000078f8

00001da4 <wait_us>:
    1da4:	b538      	push	{r3, r4, r5, lr}
    1da6:	1c05      	adds	r5, r0, #0
    1da8:	f000 fd04 	bl	27b4 <us_ticker_read>
    1dac:	1c04      	adds	r4, r0, #0
    1dae:	f000 fd01 	bl	27b4 <us_ticker_read>
    1db2:	1b03      	subs	r3, r0, r4
    1db4:	42ab      	cmp	r3, r5
    1db6:	d3fa      	bcc.n	1dae <wait_us+0xa>
    1db8:	bd38      	pop	{r3, r4, r5, pc}
    1dba:	46c0      	nop			; (mov r8, r8)

00001dbc <wait>:
    1dbc:	b508      	push	{r3, lr}
    1dbe:	4904      	ldr	r1, [pc, #16]	; (1dd0 <wait+0x14>)
    1dc0:	f001 fafa 	bl	33b8 <__aeabi_fmul>
    1dc4:	f001 fd92 	bl	38ec <__aeabi_f2iz>
    1dc8:	f7ff ffec 	bl	1da4 <wait_us>
    1dcc:	bd08      	pop	{r3, pc}
    1dce:	46c0      	nop			; (mov r8, r8)
    1dd0:	49742400 	.word	0x49742400

00001dd4 <wait_ms>:
    1dd4:	b508      	push	{r3, lr}
    1dd6:	23fa      	movs	r3, #250	; 0xfa
    1dd8:	009b      	lsls	r3, r3, #2
    1dda:	4358      	muls	r0, r3
    1ddc:	f7ff ffe2 	bl	1da4 <wait_us>
    1de0:	bd08      	pop	{r3, pc}
    1de2:	46c0      	nop			; (mov r8, r8)

00001de4 <mbed::FileHandle::flen()>:
    1de4:	6803      	ldr	r3, [r0, #0]
    1de6:	b570      	push	{r4, r5, r6, lr}
    1de8:	691b      	ldr	r3, [r3, #16]
    1dea:	2100      	movs	r1, #0
    1dec:	2201      	movs	r2, #1
    1dee:	1c04      	adds	r4, r0, #0
    1df0:	4798      	blx	r3
    1df2:	1c05      	adds	r5, r0, #0
    1df4:	1c43      	adds	r3, r0, #1
    1df6:	d00d      	beq.n	1e14 <mbed::FileHandle::flen()+0x30>
    1df8:	6823      	ldr	r3, [r4, #0]
    1dfa:	2100      	movs	r1, #0
    1dfc:	691b      	ldr	r3, [r3, #16]
    1dfe:	2202      	movs	r2, #2
    1e00:	1c20      	adds	r0, r4, #0
    1e02:	4798      	blx	r3
    1e04:	6823      	ldr	r3, [r4, #0]
    1e06:	1c06      	adds	r6, r0, #0
    1e08:	691b      	ldr	r3, [r3, #16]
    1e0a:	1c20      	adds	r0, r4, #0
    1e0c:	1c29      	adds	r1, r5, #0
    1e0e:	2200      	movs	r2, #0
    1e10:	4798      	blx	r3
    1e12:	1c30      	adds	r0, r6, #0
    1e14:	bd70      	pop	{r4, r5, r6, pc}
    1e16:	46c0      	nop			; (mov r8, r8)

00001e18 <mbed::FileHandle::~FileHandle()>:
    1e18:	4b09      	ldr	r3, [pc, #36]	; (1e40 <mbed::FileHandle::~FileHandle()+0x28>)
    1e1a:	b510      	push	{r4, lr}
    1e1c:	3308      	adds	r3, #8
    1e1e:	6003      	str	r3, [r0, #0]
    1e20:	4b08      	ldr	r3, [pc, #32]	; (1e44 <mbed::FileHandle::~FileHandle()+0x2c>)
    1e22:	2100      	movs	r1, #0
    1e24:	1c5a      	adds	r2, r3, #1
    1e26:	32ff      	adds	r2, #255	; 0xff
    1e28:	e002      	b.n	1e30 <mbed::FileHandle::~FileHandle()+0x18>
    1e2a:	3304      	adds	r3, #4
    1e2c:	4293      	cmp	r3, r2
    1e2e:	d006      	beq.n	1e3e <mbed::FileHandle::~FileHandle()+0x26>
    1e30:	681c      	ldr	r4, [r3, #0]
    1e32:	4284      	cmp	r4, r0
    1e34:	d1f9      	bne.n	1e2a <mbed::FileHandle::~FileHandle()+0x12>
    1e36:	6019      	str	r1, [r3, #0]
    1e38:	3304      	adds	r3, #4
    1e3a:	4293      	cmp	r3, r2
    1e3c:	d1f8      	bne.n	1e30 <mbed::FileHandle::~FileHandle()+0x18>
    1e3e:	bd10      	pop	{r4, pc}
    1e40:	00007950 	.word	0x00007950
    1e44:	100002d8 	.word	0x100002d8

00001e48 <mbed::FileHandle::~FileHandle()>:
    1e48:	4b0c      	ldr	r3, [pc, #48]	; (1e7c <mbed::FileHandle::~FileHandle()+0x34>)
    1e4a:	b510      	push	{r4, lr}
    1e4c:	3308      	adds	r3, #8
    1e4e:	6003      	str	r3, [r0, #0]
    1e50:	4b0b      	ldr	r3, [pc, #44]	; (1e80 <mbed::FileHandle::~FileHandle()+0x38>)
    1e52:	1c04      	adds	r4, r0, #0
    1e54:	1c5a      	adds	r2, r3, #1
    1e56:	32ff      	adds	r2, #255	; 0xff
    1e58:	2100      	movs	r1, #0
    1e5a:	e002      	b.n	1e62 <mbed::FileHandle::~FileHandle()+0x1a>
    1e5c:	3304      	adds	r3, #4
    1e5e:	4293      	cmp	r3, r2
    1e60:	d006      	beq.n	1e70 <mbed::FileHandle::~FileHandle()+0x28>
    1e62:	6818      	ldr	r0, [r3, #0]
    1e64:	4284      	cmp	r4, r0
    1e66:	d1f9      	bne.n	1e5c <mbed::FileHandle::~FileHandle()+0x14>
    1e68:	6019      	str	r1, [r3, #0]
    1e6a:	3304      	adds	r3, #4
    1e6c:	4293      	cmp	r3, r2
    1e6e:	d1f8      	bne.n	1e62 <mbed::FileHandle::~FileHandle()+0x1a>
    1e70:	1c20      	adds	r0, r4, #0
    1e72:	f000 fe6b 	bl	2b4c <operator delete(void*)>
    1e76:	1c20      	adds	r0, r4, #0
    1e78:	bd10      	pop	{r4, pc}
    1e7a:	46c0      	nop			; (mov r8, r8)
    1e7c:	00007950 	.word	0x00007950
    1e80:	100002d8 	.word	0x100002d8

00001e84 <init_serial() [clone .part.0]>:
    1e84:	b508      	push	{r3, lr}
    1e86:	4803      	ldr	r0, [pc, #12]	; (1e94 <init_serial() [clone .part.0]+0x10>)
    1e88:	4903      	ldr	r1, [pc, #12]	; (1e98 <init_serial() [clone .part.0]+0x14>)
    1e8a:	4a04      	ldr	r2, [pc, #16]	; (1e9c <init_serial() [clone .part.0]+0x18>)
    1e8c:	f000 fb06 	bl	249c <serial_init>
    1e90:	bd08      	pop	{r3, pc}
    1e92:	46c0      	nop			; (mov r8, r8)
    1e94:	10000414 	.word	0x10000414
    1e98:	0000073c 	.word	0x0000073c
    1e9c:	00001278 	.word	0x00001278

00001ea0 <_open>:
    1ea0:	b5f0      	push	{r4, r5, r6, r7, lr}
    1ea2:	4647      	mov	r7, r8
    1ea4:	b480      	push	{r7}
    1ea6:	1c0e      	adds	r6, r1, #0
    1ea8:	b082      	sub	sp, #8
    1eaa:	4934      	ldr	r1, [pc, #208]	; (1f7c <_open+0xdc>)
    1eac:	1c05      	adds	r5, r0, #0
    1eae:	f004 f9db 	bl	6268 <strcmp>
    1eb2:	1e04      	subs	r4, r0, #0
    1eb4:	d108      	bne.n	1ec8 <_open+0x28>
    1eb6:	4b32      	ldr	r3, [pc, #200]	; (1f80 <_open+0xe0>)
    1eb8:	681b      	ldr	r3, [r3, #0]
    1eba:	2b00      	cmp	r3, #0
    1ebc:	d00f      	beq.n	1ede <_open+0x3e>
    1ebe:	1c20      	adds	r0, r4, #0
    1ec0:	b002      	add	sp, #8
    1ec2:	bc04      	pop	{r2}
    1ec4:	4690      	mov	r8, r2
    1ec6:	bdf0      	pop	{r4, r5, r6, r7, pc}
    1ec8:	1c28      	adds	r0, r5, #0
    1eca:	492e      	ldr	r1, [pc, #184]	; (1f84 <_open+0xe4>)
    1ecc:	f004 f9cc 	bl	6268 <strcmp>
    1ed0:	2800      	cmp	r0, #0
    1ed2:	d107      	bne.n	1ee4 <_open+0x44>
    1ed4:	4b2a      	ldr	r3, [pc, #168]	; (1f80 <_open+0xe0>)
    1ed6:	2401      	movs	r4, #1
    1ed8:	681b      	ldr	r3, [r3, #0]
    1eda:	2b00      	cmp	r3, #0
    1edc:	d1ef      	bne.n	1ebe <_open+0x1e>
    1ede:	f7ff ffd1 	bl	1e84 <init_serial() [clone .part.0]>
    1ee2:	e7ec      	b.n	1ebe <_open+0x1e>
    1ee4:	1c28      	adds	r0, r5, #0
    1ee6:	4928      	ldr	r1, [pc, #160]	; (1f88 <_open+0xe8>)
    1ee8:	f004 f9be 	bl	6268 <strcmp>
    1eec:	2800      	cmp	r0, #0
    1eee:	d030      	beq.n	1f52 <_open+0xb2>
    1ef0:	4f26      	ldr	r7, [pc, #152]	; (1f8c <_open+0xec>)
    1ef2:	2400      	movs	r4, #0
    1ef4:	1c3b      	adds	r3, r7, #0
    1ef6:	e003      	b.n	1f00 <_open+0x60>
    1ef8:	3401      	adds	r4, #1
    1efa:	3304      	adds	r3, #4
    1efc:	2c40      	cmp	r4, #64	; 0x40
    1efe:	d032      	beq.n	1f66 <_open+0xc6>
    1f00:	681a      	ldr	r2, [r3, #0]
    1f02:	2a00      	cmp	r2, #0
    1f04:	d1f8      	bne.n	1ef8 <_open+0x58>
    1f06:	782b      	ldrb	r3, [r5, #0]
    1f08:	2b3a      	cmp	r3, #58	; 0x3a
    1f0a:	d02f      	beq.n	1f6c <_open+0xcc>
    1f0c:	4668      	mov	r0, sp
    1f0e:	1c29      	adds	r1, r5, #0
    1f10:	f000 fd2a 	bl	2968 <mbed::FilePath::FilePath(char const*)>
    1f14:	4668      	mov	r0, sp
    1f16:	f000 fd7f 	bl	2a18 <mbed::FilePath::exists()>
    1f1a:	2800      	cmp	r0, #0
    1f1c:	d023      	beq.n	1f66 <_open+0xc6>
    1f1e:	4668      	mov	r0, sp
    1f20:	f000 fd5e 	bl	29e0 <mbed::FilePath::isFile()>
    1f24:	2800      	cmp	r0, #0
    1f26:	d11a      	bne.n	1f5e <_open+0xbe>
    1f28:	4668      	mov	r0, sp
    1f2a:	f000 fd4b 	bl	29c4 <mbed::FilePath::fileSystem()>
    1f2e:	1e05      	subs	r5, r0, #0
    1f30:	d019      	beq.n	1f66 <_open+0xc6>
    1f32:	6803      	ldr	r3, [r0, #0]
    1f34:	4668      	mov	r0, sp
    1f36:	689a      	ldr	r2, [r3, #8]
    1f38:	4690      	mov	r8, r2
    1f3a:	f000 fd41 	bl	29c0 <mbed::FilePath::fileName()>
    1f3e:	1c32      	adds	r2, r6, #0
    1f40:	1c01      	adds	r1, r0, #0
    1f42:	1c28      	adds	r0, r5, #0
    1f44:	47c0      	blx	r8
    1f46:	2800      	cmp	r0, #0
    1f48:	d00d      	beq.n	1f66 <_open+0xc6>
    1f4a:	00a3      	lsls	r3, r4, #2
    1f4c:	50f8      	str	r0, [r7, r3]
    1f4e:	3403      	adds	r4, #3
    1f50:	e7b5      	b.n	1ebe <_open+0x1e>
    1f52:	4b0b      	ldr	r3, [pc, #44]	; (1f80 <_open+0xe0>)
    1f54:	2402      	movs	r4, #2
    1f56:	681b      	ldr	r3, [r3, #0]
    1f58:	2b00      	cmp	r3, #0
    1f5a:	d1b0      	bne.n	1ebe <_open+0x1e>
    1f5c:	e7bf      	b.n	1ede <_open+0x3e>
    1f5e:	4668      	mov	r0, sp
    1f60:	f000 fd4a 	bl	29f8 <mbed::FilePath::file()>
    1f64:	e7ef      	b.n	1f46 <_open+0xa6>
    1f66:	2401      	movs	r4, #1
    1f68:	4264      	negs	r4, r4
    1f6a:	e7a8      	b.n	1ebe <_open+0x1e>
    1f6c:	1c28      	adds	r0, r5, #0
    1f6e:	4908      	ldr	r1, [pc, #32]	; (1f90 <_open+0xf0>)
    1f70:	466a      	mov	r2, sp
    1f72:	f004 f903 	bl	617c <siscanf>
    1f76:	9800      	ldr	r0, [sp, #0]
    1f78:	e7e5      	b.n	1f46 <_open+0xa6>
    1f7a:	46c0      	nop			; (mov r8, r8)
    1f7c:	00007938 	.word	0x00007938
    1f80:	100003dc 	.word	0x100003dc
    1f84:	00007948 	.word	0x00007948
    1f88:	00007940 	.word	0x00007940
    1f8c:	100002d8 	.word	0x100002d8
    1f90:	00007980 	.word	0x00007980

00001f94 <_close>:
    1f94:	b508      	push	{r3, lr}
    1f96:	2300      	movs	r3, #0
    1f98:	2802      	cmp	r0, #2
    1f9a:	dd0a      	ble.n	1fb2 <_close+0x1e>
    1f9c:	3803      	subs	r0, #3
    1f9e:	4a07      	ldr	r2, [pc, #28]	; (1fbc <_close+0x28>)
    1fa0:	0081      	lsls	r1, r0, #2
    1fa2:	5888      	ldr	r0, [r1, r2]
    1fa4:	508b      	str	r3, [r1, r2]
    1fa6:	2800      	cmp	r0, #0
    1fa8:	d005      	beq.n	1fb6 <_close+0x22>
    1faa:	6803      	ldr	r3, [r0, #0]
    1fac:	685b      	ldr	r3, [r3, #4]
    1fae:	4798      	blx	r3
    1fb0:	1c03      	adds	r3, r0, #0
    1fb2:	1c18      	adds	r0, r3, #0
    1fb4:	bd08      	pop	{r3, pc}
    1fb6:	2301      	movs	r3, #1
    1fb8:	425b      	negs	r3, r3
    1fba:	e7fa      	b.n	1fb2 <_close+0x1e>
    1fbc:	100002d8 	.word	0x100002d8

00001fc0 <_write>:
    1fc0:	b5f8      	push	{r3, r4, r5, r6, r7, lr}
    1fc2:	1c0c      	adds	r4, r1, #0
    1fc4:	1c17      	adds	r7, r2, #0
    1fc6:	2802      	cmp	r0, #2
    1fc8:	dc12      	bgt.n	1ff0 <_write+0x30>
    1fca:	4b10      	ldr	r3, [pc, #64]	; (200c <_write+0x4c>)
    1fcc:	681b      	ldr	r3, [r3, #0]
    1fce:	2b00      	cmp	r3, #0
    1fd0:	d101      	bne.n	1fd6 <_write+0x16>
    1fd2:	f7ff ff57 	bl	1e84 <init_serial() [clone .part.0]>
    1fd6:	2f00      	cmp	r7, #0
    1fd8:	d008      	beq.n	1fec <_write+0x2c>
    1fda:	4d0d      	ldr	r5, [pc, #52]	; (2010 <_write+0x50>)
    1fdc:	19e6      	adds	r6, r4, r7
    1fde:	7821      	ldrb	r1, [r4, #0]
    1fe0:	1c28      	adds	r0, r5, #0
    1fe2:	3401      	adds	r4, #1
    1fe4:	f000 fb9c 	bl	2720 <serial_putc>
    1fe8:	42b4      	cmp	r4, r6
    1fea:	d1f8      	bne.n	1fde <_write+0x1e>
    1fec:	1c38      	adds	r0, r7, #0
    1fee:	bdf8      	pop	{r3, r4, r5, r6, r7, pc}
    1ff0:	3803      	subs	r0, #3
    1ff2:	4b08      	ldr	r3, [pc, #32]	; (2014 <_write+0x54>)
    1ff4:	0080      	lsls	r0, r0, #2
    1ff6:	58c0      	ldr	r0, [r0, r3]
    1ff8:	2800      	cmp	r0, #0
    1ffa:	d003      	beq.n	2004 <_write+0x44>
    1ffc:	6803      	ldr	r3, [r0, #0]
    1ffe:	681b      	ldr	r3, [r3, #0]
    2000:	4798      	blx	r3
    2002:	e7f4      	b.n	1fee <_write+0x2e>
    2004:	2001      	movs	r0, #1
    2006:	4240      	negs	r0, r0
    2008:	e7f1      	b.n	1fee <_write+0x2e>
    200a:	46c0      	nop			; (mov r8, r8)
    200c:	100003dc 	.word	0x100003dc
    2010:	10000414 	.word	0x10000414
    2014:	100002d8 	.word	0x100002d8

00002018 <_read>:
    2018:	b510      	push	{r4, lr}
    201a:	1c0c      	adds	r4, r1, #0
    201c:	2802      	cmp	r0, #2
    201e:	dc09      	bgt.n	2034 <_read+0x1c>
    2020:	4b0c      	ldr	r3, [pc, #48]	; (2054 <_read+0x3c>)
    2022:	681b      	ldr	r3, [r3, #0]
    2024:	2b00      	cmp	r3, #0
    2026:	d00f      	beq.n	2048 <_read+0x30>
    2028:	480b      	ldr	r0, [pc, #44]	; (2058 <_read+0x40>)
    202a:	f000 fb71 	bl	2710 <serial_getc>
    202e:	7020      	strb	r0, [r4, #0]
    2030:	2001      	movs	r0, #1
    2032:	bd10      	pop	{r4, pc}
    2034:	3803      	subs	r0, #3
    2036:	4b09      	ldr	r3, [pc, #36]	; (205c <_read+0x44>)
    2038:	0080      	lsls	r0, r0, #2
    203a:	58c0      	ldr	r0, [r0, r3]
    203c:	2800      	cmp	r0, #0
    203e:	d006      	beq.n	204e <_read+0x36>
    2040:	6803      	ldr	r3, [r0, #0]
    2042:	689b      	ldr	r3, [r3, #8]
    2044:	4798      	blx	r3
    2046:	e7f4      	b.n	2032 <_read+0x1a>
    2048:	f7ff ff1c 	bl	1e84 <init_serial() [clone .part.0]>
    204c:	e7ec      	b.n	2028 <_read+0x10>
    204e:	2001      	movs	r0, #1
    2050:	4240      	negs	r0, r0
    2052:	e7ee      	b.n	2032 <_read+0x1a>
    2054:	100003dc 	.word	0x100003dc
    2058:	10000414 	.word	0x10000414
    205c:	100002d8 	.word	0x100002d8

00002060 <_isatty>:
    2060:	b508      	push	{r3, lr}
    2062:	1c03      	adds	r3, r0, #0
    2064:	2001      	movs	r0, #1
    2066:	2b02      	cmp	r3, #2
    2068:	dd08      	ble.n	207c <_isatty+0x1c>
    206a:	3b03      	subs	r3, #3
    206c:	4a05      	ldr	r2, [pc, #20]	; (2084 <_isatty+0x24>)
    206e:	009b      	lsls	r3, r3, #2
    2070:	5898      	ldr	r0, [r3, r2]
    2072:	2800      	cmp	r0, #0
    2074:	d003      	beq.n	207e <_isatty+0x1e>
    2076:	6803      	ldr	r3, [r0, #0]
    2078:	68db      	ldr	r3, [r3, #12]
    207a:	4798      	blx	r3
    207c:	bd08      	pop	{r3, pc}
    207e:	2001      	movs	r0, #1
    2080:	4240      	negs	r0, r0
    2082:	e7fb      	b.n	207c <_isatty+0x1c>
    2084:	100002d8 	.word	0x100002d8

00002088 <_lseek>:
    2088:	b508      	push	{r3, lr}
    208a:	1c03      	adds	r3, r0, #0
    208c:	2000      	movs	r0, #0
    208e:	2b02      	cmp	r3, #2
    2090:	dd08      	ble.n	20a4 <_lseek+0x1c>
    2092:	3b03      	subs	r3, #3
    2094:	4805      	ldr	r0, [pc, #20]	; (20ac <_lseek+0x24>)
    2096:	009b      	lsls	r3, r3, #2
    2098:	5818      	ldr	r0, [r3, r0]
    209a:	2800      	cmp	r0, #0
    209c:	d003      	beq.n	20a6 <_lseek+0x1e>
    209e:	6803      	ldr	r3, [r0, #0]
    20a0:	691b      	ldr	r3, [r3, #16]
    20a2:	4798      	blx	r3
    20a4:	bd08      	pop	{r3, pc}
    20a6:	2001      	movs	r0, #1
    20a8:	4240      	negs	r0, r0
    20aa:	e7fb      	b.n	20a4 <_lseek+0x1c>
    20ac:	100002d8 	.word	0x100002d8

000020b0 <_fstat>:
    20b0:	b508      	push	{r3, lr}
    20b2:	2802      	cmp	r0, #2
    20b4:	d804      	bhi.n	20c0 <_fstat+0x10>
    20b6:	2380      	movs	r3, #128	; 0x80
    20b8:	019b      	lsls	r3, r3, #6
    20ba:	604b      	str	r3, [r1, #4]
    20bc:	2000      	movs	r0, #0
    20be:	bd08      	pop	{r3, pc}
    20c0:	f003 fb2c 	bl	571c <__errno>
    20c4:	2309      	movs	r3, #9
    20c6:	6003      	str	r3, [r0, #0]
    20c8:	2001      	movs	r0, #1
    20ca:	4240      	negs	r0, r0
    20cc:	e7f7      	b.n	20be <_fstat+0xe>
    20ce:	46c0      	nop			; (mov r8, r8)

000020d0 <_sbrk>:
    20d0:	4a07      	ldr	r2, [pc, #28]	; (20f0 <_sbrk+0x20>)
    20d2:	6813      	ldr	r3, [r2, #0]
    20d4:	1818      	adds	r0, r3, r0
    20d6:	f3ef 8108 	mrs	r1, MSP
    20da:	4288      	cmp	r0, r1
    20dc:	d202      	bcs.n	20e4 <_sbrk+0x14>
    20de:	6010      	str	r0, [r2, #0]
    20e0:	1c18      	adds	r0, r3, #0
    20e2:	4770      	bx	lr
    20e4:	4b03      	ldr	r3, [pc, #12]	; (20f4 <_sbrk+0x24>)
    20e6:	220c      	movs	r2, #12
    20e8:	2001      	movs	r0, #1
    20ea:	601a      	str	r2, [r3, #0]
    20ec:	4240      	negs	r0, r0
    20ee:	e7f8      	b.n	20e2 <_sbrk+0x12>
    20f0:	100000cc 	.word	0x100000cc
    20f4:	10000424 	.word	0x10000424

000020f8 <_exit>:
    20f8:	b508      	push	{r3, lr}
    20fa:	2800      	cmp	r0, #0
    20fc:	d100      	bne.n	2100 <_exit+0x8>
    20fe:	e7fe      	b.n	20fe <_exit+0x6>
    2100:	f000 fbc8 	bl	2894 <mbed_die>
    2104:	e7fb      	b.n	20fe <_exit+0x6>
    2106:	46c0      	nop			; (mov r8, r8)

00002108 <mbed::mbed_set_unbuffered_stream(__sFILE*)>:
    2108:	b508      	push	{r3, lr}
    210a:	2100      	movs	r1, #0
    210c:	f003 ff84 	bl	6018 <setbuf>
    2110:	bd08      	pop	{r3, pc}
    2112:	46c0      	nop			; (mov r8, r8)

00002114 <mbed::Serial::_getc()>:
    2114:	b508      	push	{r3, lr}
    2116:	f000 f861 	bl	21dc <mbed::SerialBase::_base_getc()>
    211a:	bd08      	pop	{r3, pc}

0000211c <non-virtual thunk to mbed::Serial::_getc()>:
    211c:	b408      	push	{r3}
    211e:	4b02      	ldr	r3, [pc, #8]	; (2128 <non-virtual thunk to mbed::Serial::_getc()+0xc>)
    2120:	469c      	mov	r12, r3
    2122:	3840      	subs	r0, #64	; 0x40
    2124:	bc08      	pop	{r3}
    2126:	4760      	bx	r12
    2128:	00002115 	.word	0x00002115

0000212c <mbed::Serial::_putc(int)>:
    212c:	b508      	push	{r3, lr}
    212e:	f000 f85b 	bl	21e8 <mbed::SerialBase::_base_putc(int)>
    2132:	bd08      	pop	{r3, pc}

00002134 <non-virtual thunk to mbed::Serial::_putc(int)>:
    2134:	b408      	push	{r3}
    2136:	4b02      	ldr	r3, [pc, #8]	; (2140 <non-virtual thunk to mbed::Serial::_putc(int)+0xc>)
    2138:	469c      	mov	r12, r3
    213a:	3840      	subs	r0, #64	; 0x40
    213c:	bc08      	pop	{r3}
    213e:	4760      	bx	r12
    2140:	0000212d 	.word	0x0000212d

00002144 <mbed::Serial::Serial(PinName, PinName, char const*)>:
    2144:	b538      	push	{r3, r4, r5, lr}
    2146:	1c04      	adds	r4, r0, #0
    2148:	1c1d      	adds	r5, r3, #0
    214a:	f000 f829 	bl	21a0 <mbed::SerialBase::SerialBase(PinName, PinName)>
    214e:	1c20      	adds	r0, r4, #0
    2150:	1c29      	adds	r1, r5, #0
    2152:	3040      	adds	r0, #64	; 0x40
    2154:	f000 f8ba 	bl	22cc <mbed::Stream::Stream(char const*)>
    2158:	4b05      	ldr	r3, [pc, #20]	; (2170 <mbed::Serial::Serial(PinName, PinName, char const*)+0x2c>)
    215a:	1c20      	adds	r0, r4, #0
    215c:	1c1a      	adds	r2, r3, #0
    215e:	3208      	adds	r2, #8
    2160:	6022      	str	r2, [r4, #0]
    2162:	1c1a      	adds	r2, r3, #0
    2164:	3220      	adds	r2, #32
    2166:	3354      	adds	r3, #84	; 0x54
    2168:	6422      	str	r2, [r4, #64]	; 0x40
    216a:	6463      	str	r3, [r4, #68]	; 0x44
    216c:	bd38      	pop	{r3, r4, r5, pc}
    216e:	46c0      	nop			; (mov r8, r8)
    2170:	00007990 	.word	0x00007990

00002174 <mbed::SerialBase::_irq_handler(unsigned long, SerialIrq)>:
    2174:	b508      	push	{r3, lr}
    2176:	004b      	lsls	r3, r1, #1
    2178:	1859      	adds	r1, r3, r1
    217a:	00c9      	lsls	r1, r1, #3
    217c:	3108      	adds	r1, #8
    217e:	1840      	adds	r0, r0, r1
    2180:	1d01      	adds	r1, r0, #4
    2182:	694b      	ldr	r3, [r1, #20]
    2184:	2b00      	cmp	r3, #0
    2186:	d005      	beq.n	2194 <mbed::SerialBase::_irq_handler(unsigned long, SerialIrq)+0x20>
    2188:	6840      	ldr	r0, [r0, #4]
    218a:	2800      	cmp	r0, #0
    218c:	d001      	beq.n	2192 <mbed::SerialBase::_irq_handler(unsigned long, SerialIrq)+0x1e>
    218e:	3104      	adds	r1, #4
    2190:	4798      	blx	r3
    2192:	bd08      	pop	{r3, pc}
    2194:	6843      	ldr	r3, [r0, #4]
    2196:	2b00      	cmp	r3, #0
    2198:	d0fb      	beq.n	2192 <mbed::SerialBase::_irq_handler(unsigned long, SerialIrq)+0x1e>
    219a:	4798      	blx	r3
    219c:	e7f9      	b.n	2192 <mbed::SerialBase::_irq_handler(unsigned long, SerialIrq)+0x1e>
    219e:	46c0      	nop			; (mov r8, r8)

000021a0 <mbed::SerialBase::SerialBase(PinName, PinName)>:
    21a0:	b538      	push	{r3, r4, r5, lr}
    21a2:	4b0c      	ldr	r3, [pc, #48]	; (21d4 <mbed::SerialBase::SerialBase(PinName, PinName)+0x34>)
    21a4:	1d05      	adds	r5, r0, #4
    21a6:	6003      	str	r3, [r0, #0]
    21a8:	2300      	movs	r3, #0
    21aa:	6043      	str	r3, [r0, #4]
    21ac:	7203      	strb	r3, [r0, #8]
    21ae:	60c3      	str	r3, [r0, #12]
    21b0:	6203      	str	r3, [r0, #32]
    21b2:	6243      	str	r3, [r0, #36]	; 0x24
    21b4:	6383      	str	r3, [r0, #56]	; 0x38
    21b6:	2396      	movs	r3, #150	; 0x96
    21b8:	019b      	lsls	r3, r3, #6
    21ba:	1c04      	adds	r4, r0, #0
    21bc:	63c3      	str	r3, [r0, #60]	; 0x3c
    21be:	1c28      	adds	r0, r5, #0
    21c0:	f000 f96c 	bl	249c <serial_init>
    21c4:	1c28      	adds	r0, r5, #0
    21c6:	4904      	ldr	r1, [pc, #16]	; (21d8 <mbed::SerialBase::SerialBase(PinName, PinName)+0x38>)
    21c8:	1c22      	adds	r2, r4, #0
    21ca:	f000 fa95 	bl	26f8 <serial_irq_handler>
    21ce:	1c20      	adds	r0, r4, #0
    21d0:	bd38      	pop	{r3, r4, r5, pc}
    21d2:	46c0      	nop			; (mov r8, r8)
    21d4:	000077a0 	.word	0x000077a0
    21d8:	00002175 	.word	0x00002175

000021dc <mbed::SerialBase::_base_getc()>:
    21dc:	b508      	push	{r3, lr}
    21de:	3004      	adds	r0, #4
    21e0:	f000 fa96 	bl	2710 <serial_getc>
    21e4:	bd08      	pop	{r3, pc}
    21e6:	46c0      	nop			; (mov r8, r8)

000021e8 <mbed::SerialBase::_base_putc(int)>:
    21e8:	b510      	push	{r4, lr}
    21ea:	3004      	adds	r0, #4
    21ec:	1c0c      	adds	r4, r1, #0
    21ee:	f000 fa97 	bl	2720 <serial_putc>
    21f2:	1c20      	adds	r0, r4, #0
    21f4:	bd10      	pop	{r4, pc}
    21f6:	46c0      	nop			; (mov r8, r8)

000021f8 <mbed::Stream::close()>:
    21f8:	2000      	movs	r0, #0
    21fa:	4770      	bx	lr

000021fc <mbed::Stream::write(void const*, unsigned int)>:
    21fc:	b5f8      	push	{r3, r4, r5, r6, r7, lr}
    21fe:	188e      	adds	r6, r1, r2
    2200:	1c05      	adds	r5, r0, #0
    2202:	1e0f      	subs	r7, r1, #0
    2204:	42b7      	cmp	r7, r6
    2206:	d010      	beq.n	222a <mbed::Stream::write(void const*, unsigned int)+0x2e>
    2208:	1c0c      	adds	r4, r1, #0
    220a:	e001      	b.n	2210 <mbed::Stream::write(void const*, unsigned int)+0x14>
    220c:	42a6      	cmp	r6, r4
    220e:	d00a      	beq.n	2226 <mbed::Stream::write(void const*, unsigned int)+0x2a>
    2210:	3401      	adds	r4, #1
    2212:	682b      	ldr	r3, [r5, #0]
    2214:	1e62      	subs	r2, r4, #1
    2216:	7811      	ldrb	r1, [r2, #0]
    2218:	6a5b      	ldr	r3, [r3, #36]	; 0x24
    221a:	1c28      	adds	r0, r5, #0
    221c:	4798      	blx	r3
    221e:	3001      	adds	r0, #1
    2220:	d1f4      	bne.n	220c <mbed::Stream::write(void const*, unsigned int)+0x10>
    2222:	1be0      	subs	r0, r4, r7
    2224:	bdf8      	pop	{r3, r4, r5, r6, r7, pc}
    2226:	1bf0      	subs	r0, r6, r7
    2228:	e7fc      	b.n	2224 <mbed::Stream::write(void const*, unsigned int)+0x28>
    222a:	2000      	movs	r0, #0
    222c:	e7fa      	b.n	2224 <mbed::Stream::write(void const*, unsigned int)+0x28>
    222e:	46c0      	nop			; (mov r8, r8)

00002230 <mbed::Stream::read(void*, unsigned int)>:
    2230:	b5f8      	push	{r3, r4, r5, r6, r7, lr}
    2232:	188e      	adds	r6, r1, r2
    2234:	1c05      	adds	r5, r0, #0
    2236:	1e0f      	subs	r7, r1, #0
    2238:	42b7      	cmp	r7, r6
    223a:	d010      	beq.n	225e <mbed::Stream::read(void*, unsigned int)+0x2e>
    223c:	1c0c      	adds	r4, r1, #0
    223e:	e004      	b.n	224a <mbed::Stream::read(void*, unsigned int)+0x1a>
    2240:	3401      	adds	r4, #1
    2242:	1e63      	subs	r3, r4, #1
    2244:	7018      	strb	r0, [r3, #0]
    2246:	42a6      	cmp	r6, r4
    2248:	d007      	beq.n	225a <mbed::Stream::read(void*, unsigned int)+0x2a>
    224a:	682b      	ldr	r3, [r5, #0]
    224c:	1c28      	adds	r0, r5, #0
    224e:	6a9b      	ldr	r3, [r3, #40]	; 0x28
    2250:	4798      	blx	r3
    2252:	1c43      	adds	r3, r0, #1
    2254:	d1f4      	bne.n	2240 <mbed::Stream::read(void*, unsigned int)+0x10>
    2256:	1be0      	subs	r0, r4, r7
    2258:	bdf8      	pop	{r3, r4, r5, r6, r7, pc}
    225a:	1bf0      	subs	r0, r6, r7
    225c:	e7fc      	b.n	2258 <mbed::Stream::read(void*, unsigned int)+0x28>
    225e:	2000      	movs	r0, #0
    2260:	e7fa      	b.n	2258 <mbed::Stream::read(void*, unsigned int)+0x28>
    2262:	46c0      	nop			; (mov r8, r8)

00002264 <mbed::Stream::lseek(long, int)>:
    2264:	2000      	movs	r0, #0
    2266:	4770      	bx	lr

00002268 <mbed::Stream::isatty()>:
    2268:	2000      	movs	r0, #0
    226a:	4770      	bx	lr

0000226c <mbed::Stream::fsync()>:
    226c:	2000      	movs	r0, #0
    226e:	4770      	bx	lr

00002270 <mbed::Stream::flen()>:
    2270:	2000      	movs	r0, #0
    2272:	4770      	bx	lr

00002274 <mbed::Stream::~Stream()>:
    2274:	4b07      	ldr	r3, [pc, #28]	; (2294 <mbed::Stream::~Stream()+0x20>)
    2276:	b510      	push	{r4, lr}
    2278:	1c1a      	adds	r2, r3, #0
    227a:	3208      	adds	r2, #8
    227c:	333c      	adds	r3, #60	; 0x3c
    227e:	1c04      	adds	r4, r0, #0
    2280:	6002      	str	r2, [r0, #0]
    2282:	6043      	str	r3, [r0, #4]
    2284:	6940      	ldr	r0, [r0, #20]
    2286:	f003 fabd 	bl	5804 <fclose>
    228a:	1c20      	adds	r0, r4, #0
    228c:	f000 fb20 	bl	28d0 <mbed::FileLike::~FileLike()>
    2290:	1c20      	adds	r0, r4, #0
    2292:	bd10      	pop	{r4, pc}
    2294:	000079f0 	.word	0x000079f0

00002298 <non-virtual thunk to mbed::Stream::~Stream()>:
    2298:	b408      	push	{r3}
    229a:	4b02      	ldr	r3, [pc, #8]	; (22a4 <non-virtual thunk to mbed::Stream::~Stream()+0xc>)
    229c:	469c      	mov	r12, r3
    229e:	3804      	subs	r0, #4
    22a0:	bc08      	pop	{r3}
    22a2:	4760      	bx	r12
    22a4:	00002275 	.word	0x00002275

000022a8 <mbed::Stream::~Stream()>:
    22a8:	b510      	push	{r4, lr}
    22aa:	1c04      	adds	r4, r0, #0
    22ac:	f7ff ffe2 	bl	2274 <mbed::Stream::~Stream()>
    22b0:	1c20      	adds	r0, r4, #0
    22b2:	f000 fc4b 	bl	2b4c <operator delete(void*)>
    22b6:	1c20      	adds	r0, r4, #0
    22b8:	bd10      	pop	{r4, pc}
    22ba:	46c0      	nop			; (mov r8, r8)

000022bc <non-virtual thunk to mbed::Stream::~Stream()>:
    22bc:	b408      	push	{r3}
    22be:	4b02      	ldr	r3, [pc, #8]	; (22c8 <non-virtual thunk to mbed::Stream::~Stream()+0xc>)
    22c0:	469c      	mov	r12, r3
    22c2:	3804      	subs	r0, #4
    22c4:	bc08      	pop	{r3}
    22c6:	4760      	bx	r12
    22c8:	000022a9 	.word	0x000022a9

000022cc <mbed::Stream::Stream(char const*)>:
    22cc:	b510      	push	{r4, lr}
    22ce:	b084      	sub	sp, #16
    22d0:	1c04      	adds	r4, r0, #0
    22d2:	f000 fb35 	bl	2940 <mbed::FileLike::FileLike(char const*)>
    22d6:	4b0b      	ldr	r3, [pc, #44]	; (2304 <mbed::Stream::Stream(char const*)+0x38>)
    22d8:	a801      	add	r0, sp, #4
    22da:	1c1a      	adds	r2, r3, #0
    22dc:	333c      	adds	r3, #60	; 0x3c
    22de:	6063      	str	r3, [r4, #4]
    22e0:	3208      	adds	r2, #8
    22e2:	2300      	movs	r3, #0
    22e4:	6163      	str	r3, [r4, #20]
    22e6:	6022      	str	r2, [r4, #0]
    22e8:	4907      	ldr	r1, [pc, #28]	; (2308 <mbed::Stream::Stream(char const*)+0x3c>)
    22ea:	1c22      	adds	r2, r4, #0
    22ec:	f003 ff24 	bl	6138 <siprintf>
    22f0:	4906      	ldr	r1, [pc, #24]	; (230c <mbed::Stream::Stream(char const*)+0x40>)
    22f2:	a801      	add	r0, sp, #4
    22f4:	f003 fc5e 	bl	5bb4 <fopen>
    22f8:	6160      	str	r0, [r4, #20]
    22fa:	f7ff ff05 	bl	2108 <mbed::mbed_set_unbuffered_stream(__sFILE*)>
    22fe:	1c20      	adds	r0, r4, #0
    2300:	b004      	add	sp, #16
    2302:	bd10      	pop	{r4, pc}
    2304:	000079f0 	.word	0x000079f0
    2308:	00007980 	.word	0x00007980
    230c:	00007a38 	.word	0x00007a38

00002310 <mbed::Stream::printf(char const*, ...)>:
    2310:	b40e      	push	{r1, r2, r3}
    2312:	b510      	push	{r4, lr}
    2314:	b083      	sub	sp, #12
    2316:	ab05      	add	r3, sp, #20
    2318:	cb04      	ldmia	r3!, {r2}
    231a:	1c04      	adds	r4, r0, #0
    231c:	6940      	ldr	r0, [r0, #20]
    231e:	9301      	str	r3, [sp, #4]
    2320:	f003 fb30 	bl	5984 <fflush>
    2324:	6960      	ldr	r0, [r4, #20]
    2326:	9905      	ldr	r1, [sp, #20]
    2328:	9a01      	ldr	r2, [sp, #4]
    232a:	f004 fc37 	bl	6b9c <vfiprintf>
    232e:	b003      	add	sp, #12
    2330:	bc10      	pop	{r4}
    2332:	bc08      	pop	{r3}
    2334:	b003      	add	sp, #12
    2336:	4718      	bx	r3

00002338 <NMI_Handler>:
    2338:	e7fe      	b.n	2338 <NMI_Handler>

0000233a <HardFault_Handler>:
    233a:	e7fe      	b.n	233a <HardFault_Handler>

0000233c <SVC_Handler>:
    233c:	e7fe      	b.n	233c <SVC_Handler>

0000233e <PendSV_Handler>:
    233e:	e7fe      	b.n	233e <PendSV_Handler>

00002340 <SysTick_Handler>:
    2340:	e7fe      	b.n	2340 <SysTick_Handler>

00002342 <ADC_OVR_IRQHandler>:
    2342:	e7fe      	b.n	2342 <ADC_OVR_IRQHandler>

00002344 <gpio_set>:
    2344:	4b0d      	ldr	r3, [pc, #52]	; (237c <gpio_set+0x38>)
    2346:	b510      	push	{r4, lr}
    2348:	681a      	ldr	r2, [r3, #0]
    234a:	2a00      	cmp	r2, #0
    234c:	d110      	bne.n	2370 <gpio_set+0x2c>
    234e:	2201      	movs	r2, #1
    2350:	601a      	str	r2, [r3, #0]
    2352:	4b0b      	ldr	r3, [pc, #44]	; (2380 <gpio_set+0x3c>)
    2354:	2280      	movs	r2, #128	; 0x80
    2356:	589c      	ldr	r4, [r3, r2]
    2358:	2140      	movs	r1, #64	; 0x40
    235a:	4321      	orrs	r1, r4
    235c:	5099      	str	r1, [r3, r2]
    235e:	6859      	ldr	r1, [r3, #4]
    2360:	4a08      	ldr	r2, [pc, #32]	; (2384 <gpio_set+0x40>)
    2362:	400a      	ands	r2, r1
    2364:	605a      	str	r2, [r3, #4]
    2366:	6859      	ldr	r1, [r3, #4]
    2368:	2280      	movs	r2, #128	; 0x80
    236a:	00d2      	lsls	r2, r2, #3
    236c:	430a      	orrs	r2, r1
    236e:	605a      	str	r2, [r3, #4]
    2370:	1200      	asrs	r0, r0, #8
    2372:	2301      	movs	r3, #1
    2374:	4083      	lsls	r3, r0
    2376:	1c18      	adds	r0, r3, #0
    2378:	bd10      	pop	{r4, pc}
    237a:	46c0      	nop			; (mov r8, r8)
    237c:	100003d8 	.word	0x100003d8
    2380:	40048000 	.word	0x40048000
    2384:	fffffbff 	.word	0xfffffbff

00002388 <gpio_init>:
    2388:	b510      	push	{r4, lr}
    238a:	1c04      	adds	r4, r0, #0
    238c:	8001      	strh	r1, [r0, #0]
    238e:	1c4b      	adds	r3, r1, #1
    2390:	d00b      	beq.n	23aa <gpio_init+0x22>
    2392:	1c08      	adds	r0, r1, #0
    2394:	f7ff ffd6 	bl	2344 <gpio_set>
    2398:	4b04      	ldr	r3, [pc, #16]	; (23ac <gpio_init+0x24>)
    239a:	6060      	str	r0, [r4, #4]
    239c:	60e3      	str	r3, [r4, #12]
    239e:	4b04      	ldr	r3, [pc, #16]	; (23b0 <gpio_init+0x28>)
    23a0:	6123      	str	r3, [r4, #16]
    23a2:	4b04      	ldr	r3, [pc, #16]	; (23b4 <gpio_init+0x2c>)
    23a4:	6163      	str	r3, [r4, #20]
    23a6:	4b04      	ldr	r3, [pc, #16]	; (23b8 <gpio_init+0x30>)
    23a8:	60a3      	str	r3, [r4, #8]
    23aa:	bd10      	pop	{r4, pc}
    23ac:	a0002200 	.word	0xa0002200
    23b0:	a0002280 	.word	0xa0002280
    23b4:	a0002100 	.word	0xa0002100
    23b8:	a0002000 	.word	0xa0002000

000023bc <gpio_mode>:
    23bc:	b508      	push	{r3, lr}
    23be:	2300      	movs	r3, #0
    23c0:	5ec0      	ldrsh	r0, [r0, r3]
    23c2:	f000 f811 	bl	23e8 <pin_mode>
    23c6:	bd08      	pop	{r3, pc}

000023c8 <gpio_dir>:
    23c8:	2900      	cmp	r1, #0
    23ca:	d007      	beq.n	23dc <gpio_dir+0x14>
    23cc:	2901      	cmp	r1, #1
    23ce:	d104      	bne.n	23da <gpio_dir+0x12>
    23d0:	6883      	ldr	r3, [r0, #8]
    23d2:	6842      	ldr	r2, [r0, #4]
    23d4:	6819      	ldr	r1, [r3, #0]
    23d6:	430a      	orrs	r2, r1
    23d8:	601a      	str	r2, [r3, #0]
    23da:	4770      	bx	lr
    23dc:	6883      	ldr	r3, [r0, #8]
    23de:	6841      	ldr	r1, [r0, #4]
    23e0:	681a      	ldr	r2, [r3, #0]
    23e2:	438a      	bics	r2, r1
    23e4:	601a      	str	r2, [r3, #0]
    23e6:	e7f8      	b.n	23da <gpio_dir+0x12>

000023e8 <pin_mode>:
    23e8:	23a2      	movs	r3, #162	; 0xa2
    23ea:	011b      	lsls	r3, r3, #4
    23ec:	4298      	cmp	r0, r3
    23ee:	d011      	beq.n	2414 <pin_mode+0x2c>
    23f0:	4b0b      	ldr	r3, [pc, #44]	; (2420 <pin_mode+0x38>)
    23f2:	4298      	cmp	r0, r3
    23f4:	d00e      	beq.n	2414 <pin_mode+0x2c>
    23f6:	23ff      	movs	r3, #255	; 0xff
    23f8:	4018      	ands	r0, r3
    23fa:	4b0a      	ldr	r3, [pc, #40]	; (2424 <pin_mode+0x3c>)
    23fc:	18c0      	adds	r0, r0, r3
    23fe:	6802      	ldr	r2, [r0, #0]
    2400:	2904      	cmp	r1, #4
    2402:	d008      	beq.n	2416 <pin_mode+0x2e>
    2404:	2318      	movs	r3, #24
    2406:	439a      	bics	r2, r3
    2408:	2303      	movs	r3, #3
    240a:	4019      	ands	r1, r3
    240c:	00cb      	lsls	r3, r1, #3
    240e:	1c11      	adds	r1, r2, #0
    2410:	4319      	orrs	r1, r3
    2412:	6001      	str	r1, [r0, #0]
    2414:	4770      	bx	lr
    2416:	2380      	movs	r3, #128	; 0x80
    2418:	00db      	lsls	r3, r3, #3
    241a:	4313      	orrs	r3, r2
    241c:	6003      	str	r3, [r0, #0]
    241e:	e7f9      	b.n	2414 <pin_mode+0x2c>
    2420:	00000b1c 	.word	0x00000b1c
    2424:	40044000 	.word	0x40044000

00002428 <serial_baud>:
    2428:	b5f8      	push	{r3, r4, r5, r6, r7, lr}
    242a:	4b0e      	ldr	r3, [pc, #56]	; (2464 <serial_baud+0x3c>)
    242c:	6807      	ldr	r7, [r0, #0]
    242e:	681e      	ldr	r6, [r3, #0]
    2430:	1c0d      	adds	r5, r1, #0
    2432:	0936      	lsrs	r6, r6, #4
    2434:	1c30      	adds	r0, r6, #0
    2436:	f000 fb97 	bl	2b68 <__aeabi_uidiv>
    243a:	4c0b      	ldr	r4, [pc, #44]	; (2468 <serial_baud+0x40>)
    243c:	23f0      	movs	r3, #240	; 0xf0
    243e:	22ff      	movs	r2, #255	; 0xff
    2440:	3801      	subs	r0, #1
    2442:	6238      	str	r0, [r7, #32]
    2444:	50e2      	str	r2, [r4, r3]
    2446:	58e0      	ldr	r0, [r4, r3]
    2448:	6a39      	ldr	r1, [r7, #32]
    244a:	3001      	adds	r0, #1
    244c:	3101      	adds	r1, #1
    244e:	4370      	muls	r0, r6
    2450:	4369      	muls	r1, r5
    2452:	58e7      	ldr	r7, [r4, r3]
    2454:	f000 fb88 	bl	2b68 <__aeabi_uidiv>
    2458:	43ff      	mvns	r7, r7
    245a:	183f      	adds	r7, r7, r0
    245c:	23f4      	movs	r3, #244	; 0xf4
    245e:	50e7      	str	r7, [r4, r3]
    2460:	bdf8      	pop	{r3, r4, r5, r6, r7, pc}
    2462:	46c0      	nop			; (mov r8, r8)
    2464:	100003f4 	.word	0x100003f4
    2468:	40048000 	.word	0x40048000

0000246c <serial_format>:
    246c:	b530      	push	{r4, r5, lr}
    246e:	3b01      	subs	r3, #1
    2470:	3907      	subs	r1, #7
    2472:	2a01      	cmp	r2, #1
    2474:	d00f      	beq.n	2496 <serial_format+0x2a>
    2476:	3a02      	subs	r2, #2
    2478:	4254      	negs	r4, r2
    247a:	4162      	adcs	r2, r4
    247c:	0152      	lsls	r2, r2, #5
    247e:	6800      	ldr	r0, [r0, #0]
    2480:	2401      	movs	r4, #1
    2482:	6805      	ldr	r5, [r0, #0]
    2484:	0089      	lsls	r1, r1, #2
    2486:	43a5      	bics	r5, r4
    2488:	019b      	lsls	r3, r3, #6
    248a:	430c      	orrs	r4, r1
    248c:	431c      	orrs	r4, r3
    248e:	4314      	orrs	r4, r2
    2490:	6005      	str	r5, [r0, #0]
    2492:	6004      	str	r4, [r0, #0]
    2494:	bd30      	pop	{r4, r5, pc}
    2496:	2230      	movs	r2, #48	; 0x30
    2498:	e7f1      	b.n	247e <serial_format+0x12>
    249a:	46c0      	nop			; (mov r8, r8)

0000249c <serial_init>:
    249c:	b5f0      	push	{r4, r5, r6, r7, lr}
    249e:	464d      	mov	r5, r9
    24a0:	4644      	mov	r4, r8
    24a2:	465f      	mov	r7, r11
    24a4:	4656      	mov	r6, r10
    24a6:	b4f0      	push	{r4, r5, r6, r7}
    24a8:	4c84      	ldr	r4, [pc, #528]	; (26bc <serial_init+0x220>)
    24aa:	b087      	sub	sp, #28
    24ac:	9103      	str	r1, [sp, #12]
    24ae:	7821      	ldrb	r1, [r4, #0]
    24b0:	1c05      	adds	r5, r0, #0
    24b2:	9204      	str	r2, [sp, #16]
    24b4:	2900      	cmp	r1, #0
    24b6:	d100      	bne.n	24ba <serial_init+0x1e>
    24b8:	e0cf      	b.n	265a <serial_init+0x1be>
    24ba:	9c03      	ldr	r4, [sp, #12]
    24bc:	4880      	ldr	r0, [pc, #512]	; (26c0 <serial_init+0x224>)
    24be:	1224      	asrs	r4, r4, #8
    24c0:	9f04      	ldr	r7, [sp, #16]
    24c2:	b226      	sxth	r6, r4
    24c4:	4683      	mov	r11, r0
    24c6:	123f      	asrs	r7, r7, #8
    24c8:	46a1      	mov	r9, r4
    24ca:	9601      	str	r6, [sp, #4]
    24cc:	22ff      	movs	r2, #255	; 0xff
    24ce:	2600      	movs	r6, #0
    24d0:	4c7c      	ldr	r4, [pc, #496]	; (26c4 <serial_init+0x228>)
    24d2:	487d      	ldr	r0, [pc, #500]	; (26c8 <serial_init+0x22c>)
    24d4:	468c      	mov	r12, r1
    24d6:	46ba      	mov	r10, r7
    24d8:	4659      	mov	r1, r11
    24da:	2300      	movs	r3, #0
    24dc:	46ab      	mov	r11, r5
    24de:	4690      	mov	r8, r2
    24e0:	9705      	str	r7, [sp, #20]
    24e2:	1c35      	adds	r5, r6, #0
    24e4:	5ce2      	ldrb	r2, [r4, r3]
    24e6:	4646      	mov	r6, r8
    24e8:	0092      	lsls	r2, r2, #2
    24ea:	5817      	ldr	r7, [r2, r0]
    24ec:	18e2      	adds	r2, r4, r3
    24ee:	7852      	ldrb	r2, [r2, #1]
    24f0:	4096      	lsls	r6, r2
    24f2:	4037      	ands	r7, r6
    24f4:	5cce      	ldrb	r6, [r1, r3]
    24f6:	40d7      	lsrs	r7, r2
    24f8:	00b6      	lsls	r6, r6, #2
    24fa:	5836      	ldr	r6, [r6, r0]
    24fc:	1c3a      	adds	r2, r7, #0
    24fe:	9f01      	ldr	r7, [sp, #4]
    2500:	9602      	str	r6, [sp, #8]
    2502:	18ce      	adds	r6, r1, r3
    2504:	7876      	ldrb	r6, [r6, #1]
    2506:	42ba      	cmp	r2, r7
    2508:	d100      	bne.n	250c <serial_init+0x70>
    250a:	e094      	b.n	2636 <serial_init+0x19a>
    250c:	3302      	adds	r3, #2
    250e:	3501      	adds	r5, #1
    2510:	2b06      	cmp	r3, #6
    2512:	d1e7      	bne.n	24e4 <serial_init+0x48>
    2514:	465d      	mov	r5, r11
    2516:	468b      	mov	r11, r1
    2518:	4661      	mov	r1, r12
    251a:	4652      	mov	r2, r10
    251c:	4648      	mov	r0, r9
    251e:	b292      	uxth	r2, r2
    2520:	b286      	uxth	r6, r0
    2522:	4692      	mov	r10, r2
    2524:	2300      	movs	r3, #0
    2526:	2701      	movs	r7, #1
    2528:	1c08      	adds	r0, r1, #0
    252a:	4118      	asrs	r0, r3
    252c:	2201      	movs	r2, #1
    252e:	4207      	tst	r7, r0
    2530:	d100      	bne.n	2534 <serial_init+0x98>
    2532:	e0a7      	b.n	2684 <serial_init+0x1e8>
    2534:	3301      	adds	r3, #1
    2536:	2b03      	cmp	r3, #3
    2538:	d1f6      	bne.n	2528 <serial_init+0x8c>
    253a:	4864      	ldr	r0, [pc, #400]	; (26cc <serial_init+0x230>)
    253c:	f7ff fbee 	bl	1d1c <error>
    2540:	2305      	movs	r3, #5
    2542:	425b      	negs	r3, r3
    2544:	4699      	mov	r9, r3
    2546:	2380      	movs	r3, #128	; 0x80
    2548:	4f5c      	ldr	r7, [pc, #368]	; (26bc <serial_init+0x220>)
    254a:	019b      	lsls	r3, r3, #6
    254c:	9301      	str	r3, [sp, #4]
    254e:	4b60      	ldr	r3, [pc, #384]	; (26d0 <serial_init+0x234>)
    2550:	7839      	ldrb	r1, [r7, #0]
    2552:	2704      	movs	r7, #4
    2554:	9700      	str	r7, [sp, #0]
    2556:	2004      	movs	r0, #4
    2558:	2200      	movs	r2, #0
    255a:	469c      	mov	r12, r3
    255c:	27ff      	movs	r7, #255	; 0xff
    255e:	2301      	movs	r3, #1
    2560:	9002      	str	r0, [sp, #8]
    2562:	4690      	mov	r8, r2
    2564:	9705      	str	r7, [sp, #20]
    2566:	425b      	negs	r3, r3
    2568:	4647      	mov	r7, r8
    256a:	9805      	ldr	r0, [sp, #20]
    256c:	4339      	orrs	r1, r7
    256e:	4f53      	ldr	r7, [pc, #332]	; (26bc <serial_init+0x220>)
    2570:	4662      	mov	r2, r12
    2572:	005b      	lsls	r3, r3, #1
    2574:	7128      	strb	r0, [r5, #4]
    2576:	7039      	strb	r1, [r7, #0]
    2578:	602a      	str	r2, [r5, #0]
    257a:	18e2      	adds	r2, r4, r3
    257c:	7811      	ldrb	r1, [r2, #0]
    257e:	7852      	ldrb	r2, [r2, #1]
    2580:	4851      	ldr	r0, [pc, #324]	; (26c8 <serial_init+0x22c>)
    2582:	b236      	sxth	r6, r6
    2584:	4694      	mov	r12, r2
    2586:	4096      	lsls	r6, r2
    2588:	0089      	lsls	r1, r1, #2
    258a:	22ff      	movs	r2, #255	; 0xff
    258c:	1809      	adds	r1, r1, r0
    258e:	1c14      	adds	r4, r2, #0
    2590:	4660      	mov	r0, r12
    2592:	680f      	ldr	r7, [r1, #0]
    2594:	4084      	lsls	r4, r0
    2596:	46a4      	mov	r12, r4
    2598:	4660      	mov	r0, r12
    259a:	1c3c      	adds	r4, r7, #0
    259c:	4384      	bics	r4, r0
    259e:	4334      	orrs	r4, r6
    25a0:	600c      	str	r4, [r1, #0]
    25a2:	445b      	add	r3, r11
    25a4:	7819      	ldrb	r1, [r3, #0]
    25a6:	4c48      	ldr	r4, [pc, #288]	; (26c8 <serial_init+0x22c>)
    25a8:	0089      	lsls	r1, r1, #2
    25aa:	1909      	adds	r1, r1, r4
    25ac:	6808      	ldr	r0, [r1, #0]
    25ae:	785b      	ldrb	r3, [r3, #1]
    25b0:	4656      	mov	r6, r10
    25b2:	b234      	sxth	r4, r6
    25b4:	409c      	lsls	r4, r3
    25b6:	409a      	lsls	r2, r3
    25b8:	1c03      	adds	r3, r0, #0
    25ba:	4393      	bics	r3, r2
    25bc:	4323      	orrs	r3, r4
    25be:	600b      	str	r3, [r1, #0]
    25c0:	9f00      	ldr	r7, [sp, #0]
    25c2:	4b44      	ldr	r3, [pc, #272]	; (26d4 <serial_init+0x238>)
    25c4:	4e44      	ldr	r6, [pc, #272]	; (26d8 <serial_init+0x23c>)
    25c6:	2280      	movs	r2, #128	; 0x80
    25c8:	2194      	movs	r1, #148	; 0x94
    25ca:	2401      	movs	r4, #1
    25cc:	505c      	str	r4, [r3, r1]
    25ce:	50b7      	str	r7, [r6, r2]
    25d0:	5898      	ldr	r0, [r3, r2]
    25d2:	1c07      	adds	r7, r0, #0
    25d4:	9801      	ldr	r0, [sp, #4]
    25d6:	4307      	orrs	r7, r0
    25d8:	509f      	str	r7, [r3, r2]
    25da:	685a      	ldr	r2, [r3, #4]
    25dc:	464f      	mov	r7, r9
    25de:	403a      	ands	r2, r7
    25e0:	605a      	str	r2, [r3, #4]
    25e2:	685a      	ldr	r2, [r3, #4]
    25e4:	9802      	ldr	r0, [sp, #8]
    25e6:	4302      	orrs	r2, r0
    25e8:	605a      	str	r2, [r3, #4]
    25ea:	5859      	ldr	r1, [r3, r1]
    25ec:	4b3b      	ldr	r3, [pc, #236]	; (26dc <serial_init+0x240>)
    25ee:	6818      	ldr	r0, [r3, #0]
    25f0:	f000 faba 	bl	2b68 <__aeabi_uidiv>
    25f4:	4b3a      	ldr	r3, [pc, #232]	; (26e0 <serial_init+0x244>)
    25f6:	2196      	movs	r1, #150	; 0x96
    25f8:	6018      	str	r0, [r3, #0]
    25fa:	0189      	lsls	r1, r1, #6
    25fc:	1c28      	adds	r0, r5, #0
    25fe:	f7ff ff13 	bl	2428 <serial_baud>
    2602:	2200      	movs	r2, #0
    2604:	2301      	movs	r3, #1
    2606:	1c28      	adds	r0, r5, #0
    2608:	2108      	movs	r1, #8
    260a:	f7ff ff2f 	bl	246c <serial_format>
    260e:	682b      	ldr	r3, [r5, #0]
    2610:	2282      	movs	r2, #130	; 0x82
    2612:	9f00      	ldr	r7, [sp, #0]
    2614:	0112      	lsls	r2, r2, #4
    2616:	609a      	str	r2, [r3, #8]
    2618:	6037      	str	r7, [r6, #0]
    261a:	681a      	ldr	r2, [r3, #0]
    261c:	9e03      	ldr	r6, [sp, #12]
    261e:	4322      	orrs	r2, r4
    2620:	601a      	str	r2, [r3, #0]
    2622:	4b30      	ldr	r3, [pc, #192]	; (26e4 <serial_init+0x248>)
    2624:	429e      	cmp	r6, r3
    2626:	d021      	beq.n	266c <serial_init+0x1d0>
    2628:	b007      	add	sp, #28
    262a:	bc3c      	pop	{r2, r3, r4, r5}
    262c:	4690      	mov	r8, r2
    262e:	4699      	mov	r9, r3
    2630:	46a2      	mov	r10, r4
    2632:	46ab      	mov	r11, r5
    2634:	bdf0      	pop	{r4, r5, r6, r7, pc}
    2636:	4642      	mov	r2, r8
    2638:	9f02      	ldr	r7, [sp, #8]
    263a:	40b2      	lsls	r2, r6
    263c:	403a      	ands	r2, r7
    263e:	40f2      	lsrs	r2, r6
    2640:	1c16      	adds	r6, r2, #0
    2642:	9a05      	ldr	r2, [sp, #20]
    2644:	4296      	cmp	r6, r2
    2646:	d000      	beq.n	264a <serial_init+0x1ae>
    2648:	e760      	b.n	250c <serial_init+0x70>
    264a:	1c2e      	adds	r6, r5, #0
    264c:	4b26      	ldr	r3, [pc, #152]	; (26e8 <serial_init+0x24c>)
    264e:	465d      	mov	r5, r11
    2650:	712e      	strb	r6, [r5, #4]
    2652:	03b6      	lsls	r6, r6, #14
    2654:	18f6      	adds	r6, r6, r3
    2656:	602e      	str	r6, [r5, #0]
    2658:	e7e6      	b.n	2628 <serial_init+0x18c>
    265a:	9e03      	ldr	r6, [sp, #12]
    265c:	4f18      	ldr	r7, [pc, #96]	; (26c0 <serial_init+0x224>)
    265e:	1236      	asrs	r6, r6, #8
    2660:	1212      	asrs	r2, r2, #8
    2662:	46b1      	mov	r9, r6
    2664:	4692      	mov	r10, r2
    2666:	4c17      	ldr	r4, [pc, #92]	; (26c4 <serial_init+0x228>)
    2668:	46bb      	mov	r11, r7
    266a:	e756      	b.n	251a <serial_init+0x7e>
    266c:	4b1f      	ldr	r3, [pc, #124]	; (26ec <serial_init+0x250>)
    266e:	9f04      	ldr	r7, [sp, #16]
    2670:	429f      	cmp	r7, r3
    2672:	d1d9      	bne.n	2628 <serial_init+0x18c>
    2674:	4b1e      	ldr	r3, [pc, #120]	; (26f0 <serial_init+0x254>)
    2676:	1c29      	adds	r1, r5, #0
    2678:	2208      	movs	r2, #8
    267a:	481e      	ldr	r0, [pc, #120]	; (26f4 <serial_init+0x258>)
    267c:	601c      	str	r4, [r3, #0]
    267e:	f003 fbf8 	bl	5e72 <memcpy>
    2682:	e7d1      	b.n	2628 <serial_init+0x18c>
    2684:	b2df      	uxtb	r7, r3
    2686:	9705      	str	r7, [sp, #20]
    2688:	0398      	lsls	r0, r3, #14
    268a:	4f17      	ldr	r7, [pc, #92]	; (26e8 <serial_init+0x24c>)
    268c:	4684      	mov	r12, r0
    268e:	44bc      	add	r12, r7
    2690:	1c17      	adds	r7, r2, #0
    2692:	409f      	lsls	r7, r3
    2694:	b2ff      	uxtb	r7, r7
    2696:	200e      	movs	r0, #14
    2698:	18c0      	adds	r0, r0, r3
    269a:	46b8      	mov	r8, r7
    269c:	1c17      	adds	r7, r2, #0
    269e:	4087      	lsls	r7, r0
    26a0:	9701      	str	r7, [sp, #4]
    26a2:	1cd8      	adds	r0, r3, #3
    26a4:	1c17      	adds	r7, r2, #0
    26a6:	4087      	lsls	r7, r0
    26a8:	9702      	str	r7, [sp, #8]
    26aa:	43ff      	mvns	r7, r7
    26ac:	46b9      	mov	r9, r7
    26ae:	9f05      	ldr	r7, [sp, #20]
    26b0:	3703      	adds	r7, #3
    26b2:	b2ff      	uxtb	r7, r7
    26b4:	40ba      	lsls	r2, r7
    26b6:	9200      	str	r2, [sp, #0]
    26b8:	e756      	b.n	2568 <serial_init+0xcc>
    26ba:	46c0      	nop			; (mov r8, r8)
    26bc:	100003f0 	.word	0x100003f0
    26c0:	00007a3c 	.word	0x00007a3c
    26c4:	00007a44 	.word	0x00007a44
    26c8:	4000c000 	.word	0x4000c000
    26cc:	00007a4c 	.word	0x00007a4c
    26d0:	40060000 	.word	0x40060000
    26d4:	40048000 	.word	0x40048000
    26d8:	e000e100 	.word	0xe000e100
    26dc:	100000c4 	.word	0x100000c4
    26e0:	100003f4 	.word	0x100003f4
    26e4:	0000073c 	.word	0x0000073c
    26e8:	40064000 	.word	0x40064000
    26ec:	00001278 	.word	0x00001278
    26f0:	100003dc 	.word	0x100003dc
    26f4:	10000414 	.word	0x10000414

000026f8 <serial_irq_handler>:
    26f8:	4b03      	ldr	r3, [pc, #12]	; (2708 <serial_irq_handler+0x10>)
    26fa:	6019      	str	r1, [r3, #0]
    26fc:	7901      	ldrb	r1, [r0, #4]
    26fe:	4b03      	ldr	r3, [pc, #12]	; (270c <serial_irq_handler+0x14>)
    2700:	0089      	lsls	r1, r1, #2
    2702:	50ca      	str	r2, [r1, r3]
    2704:	4770      	bx	lr
    2706:	46c0      	nop			; (mov r8, r8)
    2708:	100003ec 	.word	0x100003ec
    270c:	100003e0 	.word	0x100003e0

00002710 <serial_getc>:
    2710:	6802      	ldr	r2, [r0, #0]
    2712:	2101      	movs	r1, #1
    2714:	6893      	ldr	r3, [r2, #8]
    2716:	4219      	tst	r1, r3
    2718:	d0fc      	beq.n	2714 <serial_getc+0x4>
    271a:	6950      	ldr	r0, [r2, #20]
    271c:	4770      	bx	lr
    271e:	46c0      	nop			; (mov r8, r8)

00002720 <serial_putc>:
    2720:	6802      	ldr	r2, [r0, #0]
    2722:	2004      	movs	r0, #4
    2724:	6893      	ldr	r3, [r2, #8]
    2726:	4218      	tst	r0, r3
    2728:	d0fc      	beq.n	2724 <serial_putc+0x4>
    272a:	61d1      	str	r1, [r2, #28]
    272c:	4770      	bx	lr
    272e:	46c0      	nop			; (mov r8, r8)

00002730 <us_ticker_init>:
    2730:	4b17      	ldr	r3, [pc, #92]	; (2790 <us_ticker_init+0x60>)
    2732:	b570      	push	{r4, r5, r6, lr}
    2734:	681c      	ldr	r4, [r3, #0]
    2736:	2c00      	cmp	r4, #0
    2738:	d128      	bne.n	278c <us_ticker_init+0x5c>
    273a:	2601      	movs	r6, #1
    273c:	601e      	str	r6, [r3, #0]
    273e:	4b15      	ldr	r3, [pc, #84]	; (2794 <us_ticker_init+0x64>)
    2740:	4915      	ldr	r1, [pc, #84]	; (2798 <us_ticker_init+0x68>)
    2742:	6818      	ldr	r0, [r3, #0]
    2744:	f000 fa10 	bl	2b68 <__aeabi_uidiv>
    2748:	4b14      	ldr	r3, [pc, #80]	; (279c <us_ticker_init+0x6c>)
    274a:	1c01      	adds	r1, r0, #0
    274c:	6018      	str	r0, [r3, #0]
    274e:	2080      	movs	r0, #128	; 0x80
    2750:	0600      	lsls	r0, r0, #24
    2752:	f000 fa09 	bl	2b68 <__aeabi_uidiv>
    2756:	4b12      	ldr	r3, [pc, #72]	; (27a0 <us_ticker_init+0x70>)
    2758:	2280      	movs	r2, #128	; 0x80
    275a:	6018      	str	r0, [r3, #0]
    275c:	4b11      	ldr	r3, [pc, #68]	; (27a4 <us_ticker_init+0x74>)
    275e:	2580      	movs	r5, #128	; 0x80
    2760:	5899      	ldr	r1, [r3, r2]
    2762:	00ed      	lsls	r5, r5, #3
    2764:	4329      	orrs	r1, r5
    2766:	5099      	str	r1, [r3, r2]
    2768:	6859      	ldr	r1, [r3, #4]
    276a:	200a      	movs	r0, #10
    276c:	430a      	orrs	r2, r1
    276e:	605a      	str	r2, [r3, #4]
    2770:	4b0d      	ldr	r3, [pc, #52]	; (27a8 <us_ticker_init+0x78>)
    2772:	2201      	movs	r2, #1
    2774:	4252      	negs	r2, r2
    2776:	601a      	str	r2, [r3, #0]
    2778:	2280      	movs	r2, #128	; 0x80
    277a:	0612      	lsls	r2, r2, #24
    277c:	609e      	str	r6, [r3, #8]
    277e:	490b      	ldr	r1, [pc, #44]	; (27ac <us_ticker_init+0x7c>)
    2780:	611a      	str	r2, [r3, #16]
    2782:	619c      	str	r4, [r3, #24]
    2784:	f000 f86c 	bl	2860 <NVIC_SetVector>
    2788:	4b09      	ldr	r3, [pc, #36]	; (27b0 <us_ticker_init+0x80>)
    278a:	601d      	str	r5, [r3, #0]
    278c:	bd70      	pop	{r4, r5, r6, pc}
    278e:	46c0      	nop			; (mov r8, r8)
    2790:	100003f8 	.word	0x100003f8
    2794:	100000c8 	.word	0x100000c8
    2798:	000f4240 	.word	0x000f4240
    279c:	1000041c 	.word	0x1000041c
    27a0:	10000420 	.word	0x10000420
    27a4:	40048000 	.word	0x40048000
    27a8:	40004000 	.word	0x40004000
    27ac:	000028c1 	.word	0x000028c1
    27b0:	e000e100 	.word	0xe000e100

000027b4 <us_ticker_read>:
    27b4:	b508      	push	{r3, lr}
    27b6:	4b09      	ldr	r3, [pc, #36]	; (27dc <us_ticker_read+0x28>)
    27b8:	681b      	ldr	r3, [r3, #0]
    27ba:	2b00      	cmp	r3, #0
    27bc:	d101      	bne.n	27c2 <us_ticker_read+0xe>
    27be:	f7ff ffb7 	bl	2730 <us_ticker_init>
    27c2:	4b07      	ldr	r3, [pc, #28]	; (27e0 <us_ticker_read+0x2c>)
    27c4:	4807      	ldr	r0, [pc, #28]	; (27e4 <us_ticker_read+0x30>)
    27c6:	685b      	ldr	r3, [r3, #4]
    27c8:	1ac0      	subs	r0, r0, r3
    27ca:	4b07      	ldr	r3, [pc, #28]	; (27e8 <us_ticker_read+0x34>)
    27cc:	6819      	ldr	r1, [r3, #0]
    27ce:	f000 f9cb 	bl	2b68 <__aeabi_uidiv>
    27d2:	4b06      	ldr	r3, [pc, #24]	; (27ec <us_ticker_read+0x38>)
    27d4:	681b      	ldr	r3, [r3, #0]
    27d6:	18c0      	adds	r0, r0, r3
    27d8:	bd08      	pop	{r3, pc}
    27da:	46c0      	nop			; (mov r8, r8)
    27dc:	100003f8 	.word	0x100003f8
    27e0:	40004000 	.word	0x40004000
    27e4:	7fffffff 	.word	0x7fffffff
    27e8:	1000041c 	.word	0x1000041c
    27ec:	100003fc 	.word	0x100003fc

000027f0 <us_ticker_set_interrupt>:
    27f0:	b510      	push	{r4, lr}
    27f2:	1c04      	adds	r4, r0, #0
    27f4:	f7ff ffde 	bl	27b4 <us_ticker_read>
    27f8:	4b06      	ldr	r3, [pc, #24]	; (2814 <us_ticker_set_interrupt+0x24>)
    27fa:	1a24      	subs	r4, r4, r0
    27fc:	6818      	ldr	r0, [r3, #0]
    27fe:	4b06      	ldr	r3, [pc, #24]	; (2818 <us_ticker_set_interrupt+0x28>)
    2800:	4360      	muls	r0, r4
    2802:	2480      	movs	r4, #128	; 0x80
    2804:	0624      	lsls	r4, r4, #24
    2806:	4304      	orrs	r4, r0
    2808:	611c      	str	r4, [r3, #16]
    280a:	6999      	ldr	r1, [r3, #24]
    280c:	2201      	movs	r2, #1
    280e:	430a      	orrs	r2, r1
    2810:	619a      	str	r2, [r3, #24]
    2812:	bd10      	pop	{r4, pc}
    2814:	1000041c 	.word	0x1000041c
    2818:	40004000 	.word	0x40004000

0000281c <us_ticker_disable_interrupt>:
    281c:	4b02      	ldr	r3, [pc, #8]	; (2828 <us_ticker_disable_interrupt+0xc>)
    281e:	2101      	movs	r1, #1
    2820:	699a      	ldr	r2, [r3, #24]
    2822:	438a      	bics	r2, r1
    2824:	619a      	str	r2, [r3, #24]
    2826:	4770      	bx	lr
    2828:	40004000 	.word	0x40004000

0000282c <us_ticker_clear_interrupt>:
    282c:	4b09      	ldr	r3, [pc, #36]	; (2854 <us_ticker_clear_interrupt+0x28>)
    282e:	2201      	movs	r2, #1
    2830:	69d9      	ldr	r1, [r3, #28]
    2832:	420a      	tst	r2, r1
    2834:	d000      	beq.n	2838 <us_ticker_clear_interrupt+0xc>
    2836:	61da      	str	r2, [r3, #28]
    2838:	4b06      	ldr	r3, [pc, #24]	; (2854 <us_ticker_clear_interrupt+0x28>)
    283a:	2201      	movs	r2, #1
    283c:	68d9      	ldr	r1, [r3, #12]
    283e:	420a      	tst	r2, r1
    2840:	d006      	beq.n	2850 <us_ticker_clear_interrupt+0x24>
    2842:	60da      	str	r2, [r3, #12]
    2844:	4b04      	ldr	r3, [pc, #16]	; (2858 <us_ticker_clear_interrupt+0x2c>)
    2846:	4a05      	ldr	r2, [pc, #20]	; (285c <us_ticker_clear_interrupt+0x30>)
    2848:	6819      	ldr	r1, [r3, #0]
    284a:	6812      	ldr	r2, [r2, #0]
    284c:	1852      	adds	r2, r2, r1
    284e:	601a      	str	r2, [r3, #0]
    2850:	4770      	bx	lr
    2852:	46c0      	nop			; (mov r8, r8)
    2854:	40004000 	.word	0x40004000
    2858:	100003fc 	.word	0x100003fc
    285c:	10000420 	.word	0x10000420

00002860 <NVIC_SetVector>:
    2860:	4b0b      	ldr	r3, [pc, #44]	; (2890 <NVIC_SetVector+0x30>)
    2862:	b530      	push	{r4, r5, lr}
    2864:	689c      	ldr	r4, [r3, #8]
    2866:	689b      	ldr	r3, [r3, #8]
    2868:	1c22      	adds	r2, r4, #0
    286a:	2b00      	cmp	r3, #0
    286c:	d10b      	bne.n	2886 <NVIC_SetVector+0x26>
    286e:	2580      	movs	r5, #128	; 0x80
    2870:	056d      	lsls	r5, r5, #21
    2872:	195a      	adds	r2, r3, r5
    2874:	591d      	ldr	r5, [r3, r4]
    2876:	3304      	adds	r3, #4
    2878:	6015      	str	r5, [r2, #0]
    287a:	2bc0      	cmp	r3, #192	; 0xc0
    287c:	d1f7      	bne.n	286e <NVIC_SetVector+0xe>
    287e:	2280      	movs	r2, #128	; 0x80
    2880:	4b03      	ldr	r3, [pc, #12]	; (2890 <NVIC_SetVector+0x30>)
    2882:	0552      	lsls	r2, r2, #21
    2884:	609a      	str	r2, [r3, #8]
    2886:	3010      	adds	r0, #16
    2888:	0080      	lsls	r0, r0, #2
    288a:	5081      	str	r1, [r0, r2]
    288c:	bd30      	pop	{r4, r5, pc}
    288e:	46c0      	nop			; (mov r8, r8)
    2890:	e000ed00 	.word	0xe000ed00

00002894 <mbed_die>:
    2894:	b500      	push	{lr}
    2896:	b087      	sub	sp, #28
    2898:	b672      	cpsid	i
    289a:	4908      	ldr	r1, [pc, #32]	; (28bc <mbed_die+0x28>)
    289c:	4668      	mov	r0, sp
    289e:	f7ff fa55 	bl	1d4c <gpio_init_out>
    28a2:	9b03      	ldr	r3, [sp, #12]
    28a4:	9a01      	ldr	r2, [sp, #4]
    28a6:	2096      	movs	r0, #150	; 0x96
    28a8:	601a      	str	r2, [r3, #0]
    28aa:	f7ff fa93 	bl	1dd4 <wait_ms>
    28ae:	9b04      	ldr	r3, [sp, #16]
    28b0:	9a01      	ldr	r2, [sp, #4]
    28b2:	2096      	movs	r0, #150	; 0x96
    28b4:	601a      	str	r2, [r3, #0]
    28b6:	f7ff fa8d 	bl	1dd4 <wait_ms>
    28ba:	e7f2      	b.n	28a2 <mbed_die+0xe>
    28bc:	00001470 	.word	0x00001470

000028c0 <us_ticker_irq_handler>:
    28c0:	b508      	push	{r3, lr}
    28c2:	4802      	ldr	r0, [pc, #8]	; (28cc <us_ticker_irq_handler+0xc>)
    28c4:	f000 f8ae 	bl	2a24 <ticker_irq_handler>
    28c8:	bd08      	pop	{r3, pc}
    28ca:	46c0      	nop			; (mov r8, r8)
    28cc:	00007a74 	.word	0x00007a74

000028d0 <mbed::FileLike::~FileLike()>:
    28d0:	4b07      	ldr	r3, [pc, #28]	; (28f0 <mbed::FileLike::~FileLike()+0x20>)
    28d2:	b510      	push	{r4, lr}
    28d4:	1c1a      	adds	r2, r3, #0
    28d6:	3208      	adds	r2, #8
    28d8:	3334      	adds	r3, #52	; 0x34
    28da:	1c04      	adds	r4, r0, #0
    28dc:	6002      	str	r2, [r0, #0]
    28de:	6043      	str	r3, [r0, #4]
    28e0:	3004      	adds	r0, #4
    28e2:	f000 f8c5 	bl	2a70 <mbed::FileBase::~FileBase()>
    28e6:	1c20      	adds	r0, r4, #0
    28e8:	f7ff fa96 	bl	1e18 <mbed::FileHandle::~FileHandle()>
    28ec:	1c20      	adds	r0, r4, #0
    28ee:	bd10      	pop	{r4, pc}
    28f0:	00007a80 	.word	0x00007a80

000028f4 <non-virtual thunk to mbed::FileLike::~FileLike()>:
    28f4:	b408      	push	{r3}
    28f6:	4b02      	ldr	r3, [pc, #8]	; (2900 <non-virtual thunk to mbed::FileLike::~FileLike()+0xc>)
    28f8:	469c      	mov	r12, r3
    28fa:	3804      	subs	r0, #4
    28fc:	bc08      	pop	{r3}
    28fe:	4760      	bx	r12
    2900:	000028d1 	.word	0x000028d1

00002904 <mbed::FileLike::~FileLike()>:
    2904:	4b09      	ldr	r3, [pc, #36]	; (292c <mbed::FileLike::~FileLike()+0x28>)
    2906:	b510      	push	{r4, lr}
    2908:	1c1a      	adds	r2, r3, #0
    290a:	3208      	adds	r2, #8
    290c:	3334      	adds	r3, #52	; 0x34
    290e:	1c04      	adds	r4, r0, #0
    2910:	6002      	str	r2, [r0, #0]
    2912:	6043      	str	r3, [r0, #4]
    2914:	3004      	adds	r0, #4
    2916:	f000 f8ab 	bl	2a70 <mbed::FileBase::~FileBase()>
    291a:	1c20      	adds	r0, r4, #0
    291c:	f7ff fa7c 	bl	1e18 <mbed::FileHandle::~FileHandle()>
    2920:	1c20      	adds	r0, r4, #0
    2922:	f000 f913 	bl	2b4c <operator delete(void*)>
    2926:	1c20      	adds	r0, r4, #0
    2928:	bd10      	pop	{r4, pc}
    292a:	46c0      	nop			; (mov r8, r8)
    292c:	00007a80 	.word	0x00007a80

00002930 <non-virtual thunk to mbed::FileLike::~FileLike()>:
    2930:	b408      	push	{r3}
    2932:	4b02      	ldr	r3, [pc, #8]	; (293c <non-virtual thunk to mbed::FileLike::~FileLike()+0xc>)
    2934:	469c      	mov	r12, r3
    2936:	3804      	subs	r0, #4
    2938:	bc08      	pop	{r3}
    293a:	4760      	bx	r12
    293c:	00002905 	.word	0x00002905

00002940 <mbed::FileLike::FileLike(char const*)>:
    2940:	4b07      	ldr	r3, [pc, #28]	; (2960 <mbed::FileLike::FileLike(char const*)+0x20>)
    2942:	b510      	push	{r4, lr}
    2944:	2200      	movs	r2, #0
    2946:	1c04      	adds	r4, r0, #0
    2948:	c008      	stmia	r0!, {r3}
    294a:	f000 f8cb 	bl	2ae4 <mbed::FileBase::FileBase(char const*, mbed::PathType)>
    294e:	4b05      	ldr	r3, [pc, #20]	; (2964 <mbed::FileLike::FileLike(char const*)+0x24>)
    2950:	1c20      	adds	r0, r4, #0
    2952:	1c1a      	adds	r2, r3, #0
    2954:	3208      	adds	r2, #8
    2956:	3334      	adds	r3, #52	; 0x34
    2958:	6022      	str	r2, [r4, #0]
    295a:	6063      	str	r3, [r4, #4]
    295c:	bd10      	pop	{r4, pc}
    295e:	46c0      	nop			; (mov r8, r8)
    2960:	00007958 	.word	0x00007958
    2964:	00007a80 	.word	0x00007a80

00002968 <mbed::FilePath::FilePath(char const*)>:
    2968:	b538      	push	{r3, r4, r5, lr}
    296a:	2300      	movs	r3, #0
    296c:	6003      	str	r3, [r0, #0]
    296e:	6043      	str	r3, [r0, #4]
    2970:	780b      	ldrb	r3, [r1, #0]
    2972:	1c04      	adds	r4, r0, #0
    2974:	2b2f      	cmp	r3, #47	; 0x2f
    2976:	d001      	beq.n	297c <mbed::FilePath::FilePath(char const*)+0x14>
    2978:	1c20      	adds	r0, r4, #0
    297a:	bd38      	pop	{r3, r4, r5, pc}
    297c:	784b      	ldrb	r3, [r1, #1]
    297e:	2b00      	cmp	r3, #0
    2980:	d0fa      	beq.n	2978 <mbed::FilePath::FilePath(char const*)+0x10>
    2982:	1c48      	adds	r0, r1, #1
    2984:	6020      	str	r0, [r4, #0]
    2986:	784b      	ldrb	r3, [r1, #1]
    2988:	2b2f      	cmp	r3, #47	; 0x2f
    298a:	d014      	beq.n	29b6 <mbed::FilePath::FilePath(char const*)+0x4e>
    298c:	2b00      	cmp	r3, #0
    298e:	d015      	beq.n	29bc <mbed::FilePath::FilePath(char const*)+0x54>
    2990:	1c03      	adds	r3, r0, #0
    2992:	e001      	b.n	2998 <mbed::FilePath::FilePath(char const*)+0x30>
    2994:	2a00      	cmp	r2, #0
    2996:	d00c      	beq.n	29b2 <mbed::FilePath::FilePath(char const*)+0x4a>
    2998:	1a5d      	subs	r5, r3, r1
    299a:	3301      	adds	r3, #1
    299c:	6023      	str	r3, [r4, #0]
    299e:	781a      	ldrb	r2, [r3, #0]
    29a0:	2a2f      	cmp	r2, #47	; 0x2f
    29a2:	d1f7      	bne.n	2994 <mbed::FilePath::FilePath(char const*)+0x2c>
    29a4:	1c29      	adds	r1, r5, #0
    29a6:	3301      	adds	r3, #1
    29a8:	6023      	str	r3, [r4, #0]
    29aa:	f000 f8ad 	bl	2b08 <mbed::FileBase::lookup(char const*, unsigned int)>
    29ae:	6060      	str	r0, [r4, #4]
    29b0:	e7e2      	b.n	2978 <mbed::FilePath::FilePath(char const*)+0x10>
    29b2:	1c29      	adds	r1, r5, #0
    29b4:	e7f9      	b.n	29aa <mbed::FilePath::FilePath(char const*)+0x42>
    29b6:	1c03      	adds	r3, r0, #0
    29b8:	2100      	movs	r1, #0
    29ba:	e7f4      	b.n	29a6 <mbed::FilePath::FilePath(char const*)+0x3e>
    29bc:	2100      	movs	r1, #0
    29be:	e7f4      	b.n	29aa <mbed::FilePath::FilePath(char const*)+0x42>

000029c0 <mbed::FilePath::fileName()>:
    29c0:	6800      	ldr	r0, [r0, #0]
    29c2:	4770      	bx	lr

000029c4 <mbed::FilePath::fileSystem()>:
    29c4:	b510      	push	{r4, lr}
    29c6:	1c04      	adds	r4, r0, #0
    29c8:	6840      	ldr	r0, [r0, #4]
    29ca:	2800      	cmp	r0, #0
    29cc:	d005      	beq.n	29da <mbed::FilePath::fileSystem()+0x16>
    29ce:	f000 f8bb 	bl	2b48 <mbed::FileBase::getPathType()>
    29d2:	2801      	cmp	r0, #1
    29d4:	d101      	bne.n	29da <mbed::FilePath::fileSystem()+0x16>
    29d6:	6860      	ldr	r0, [r4, #4]
    29d8:	bd10      	pop	{r4, pc}
    29da:	2000      	movs	r0, #0
    29dc:	e7fc      	b.n	29d8 <mbed::FilePath::fileSystem()+0x14>
    29de:	46c0      	nop			; (mov r8, r8)

000029e0 <mbed::FilePath::isFile()>:
    29e0:	6840      	ldr	r0, [r0, #4]
    29e2:	b508      	push	{r3, lr}
    29e4:	2800      	cmp	r0, #0
    29e6:	d005      	beq.n	29f4 <mbed::FilePath::isFile()+0x14>
    29e8:	f000 f8ae 	bl	2b48 <mbed::FileBase::getPathType()>
    29ec:	4243      	negs	r3, r0
    29ee:	4158      	adcs	r0, r3
    29f0:	b2c0      	uxtb	r0, r0
    29f2:	bd08      	pop	{r3, pc}
    29f4:	2000      	movs	r0, #0
    29f6:	e7fc      	b.n	29f2 <mbed::FilePath::isFile()+0x12>

000029f8 <mbed::FilePath::file()>:
    29f8:	b510      	push	{r4, lr}
    29fa:	1c04      	adds	r4, r0, #0
    29fc:	6840      	ldr	r0, [r0, #4]
    29fe:	2800      	cmp	r0, #0
    2a00:	d008      	beq.n	2a14 <mbed::FilePath::file()+0x1c>
    2a02:	f000 f8a1 	bl	2b48 <mbed::FileBase::getPathType()>
    2a06:	2800      	cmp	r0, #0
    2a08:	d104      	bne.n	2a14 <mbed::FilePath::file()+0x1c>
    2a0a:	6860      	ldr	r0, [r4, #4]
    2a0c:	2800      	cmp	r0, #0
    2a0e:	d001      	beq.n	2a14 <mbed::FilePath::file()+0x1c>
    2a10:	3804      	subs	r0, #4
    2a12:	bd10      	pop	{r4, pc}
    2a14:	2000      	movs	r0, #0
    2a16:	e7fc      	b.n	2a12 <mbed::FilePath::file()+0x1a>

00002a18 <mbed::FilePath::exists()>:
    2a18:	6840      	ldr	r0, [r0, #4]
    2a1a:	1e43      	subs	r3, r0, #1
    2a1c:	4198      	sbcs	r0, r3
    2a1e:	b2c0      	uxtb	r0, r0
    2a20:	4770      	bx	lr
    2a22:	46c0      	nop			; (mov r8, r8)

00002a24 <ticker_irq_handler>:
    2a24:	b538      	push	{r3, r4, r5, lr}
    2a26:	6803      	ldr	r3, [r0, #0]
    2a28:	1c04      	adds	r4, r0, #0
    2a2a:	68db      	ldr	r3, [r3, #12]
    2a2c:	4798      	blx	r3
    2a2e:	6863      	ldr	r3, [r4, #4]
    2a30:	685b      	ldr	r3, [r3, #4]
    2a32:	e00d      	b.n	2a50 <ticker_irq_handler+0x2c>
    2a34:	681d      	ldr	r5, [r3, #0]
    2a36:	6823      	ldr	r3, [r4, #0]
    2a38:	685b      	ldr	r3, [r3, #4]
    2a3a:	4798      	blx	r3
    2a3c:	1a2d      	subs	r5, r5, r0
    2a3e:	2d00      	cmp	r5, #0
    2a40:	dc0c      	bgt.n	2a5c <ticker_irq_handler+0x38>
    2a42:	6862      	ldr	r2, [r4, #4]
    2a44:	6851      	ldr	r1, [r2, #4]
    2a46:	688b      	ldr	r3, [r1, #8]
    2a48:	6053      	str	r3, [r2, #4]
    2a4a:	6812      	ldr	r2, [r2, #0]
    2a4c:	2a00      	cmp	r2, #0
    2a4e:	d10c      	bne.n	2a6a <ticker_irq_handler+0x46>
    2a50:	2b00      	cmp	r3, #0
    2a52:	d1ef      	bne.n	2a34 <ticker_irq_handler+0x10>
    2a54:	6823      	ldr	r3, [r4, #0]
    2a56:	689b      	ldr	r3, [r3, #8]
    2a58:	4798      	blx	r3
    2a5a:	bd38      	pop	{r3, r4, r5, pc}
    2a5c:	6862      	ldr	r2, [r4, #4]
    2a5e:	6823      	ldr	r3, [r4, #0]
    2a60:	6852      	ldr	r2, [r2, #4]
    2a62:	691b      	ldr	r3, [r3, #16]
    2a64:	6810      	ldr	r0, [r2, #0]
    2a66:	4798      	blx	r3
    2a68:	e7f7      	b.n	2a5a <ticker_irq_handler+0x36>
    2a6a:	6848      	ldr	r0, [r1, #4]
    2a6c:	4790      	blx	r2
    2a6e:	e7de      	b.n	2a2e <ticker_irq_handler+0xa>

00002a70 <mbed::FileBase::~FileBase()>:
    2a70:	4b0a      	ldr	r3, [pc, #40]	; (2a9c <mbed::FileBase::~FileBase()+0x2c>)
    2a72:	6882      	ldr	r2, [r0, #8]
    2a74:	3308      	adds	r3, #8
    2a76:	6003      	str	r3, [r0, #0]
    2a78:	2a00      	cmp	r2, #0
    2a7a:	d00a      	beq.n	2a92 <mbed::FileBase::~FileBase()+0x22>
    2a7c:	4b08      	ldr	r3, [pc, #32]	; (2aa0 <mbed::FileBase::~FileBase()+0x30>)
    2a7e:	681a      	ldr	r2, [r3, #0]
    2a80:	4282      	cmp	r2, r0
    2a82:	d101      	bne.n	2a88 <mbed::FileBase::~FileBase()+0x18>
    2a84:	e006      	b.n	2a94 <mbed::FileBase::~FileBase()+0x24>
    2a86:	1c1a      	adds	r2, r3, #0
    2a88:	6853      	ldr	r3, [r2, #4]
    2a8a:	4283      	cmp	r3, r0
    2a8c:	d1fb      	bne.n	2a86 <mbed::FileBase::~FileBase()+0x16>
    2a8e:	6843      	ldr	r3, [r0, #4]
    2a90:	6053      	str	r3, [r2, #4]
    2a92:	4770      	bx	lr
    2a94:	6842      	ldr	r2, [r0, #4]
    2a96:	601a      	str	r2, [r3, #0]
    2a98:	e7fb      	b.n	2a92 <mbed::FileBase::~FileBase()+0x22>
    2a9a:	46c0      	nop			; (mov r8, r8)
    2a9c:	00007ac0 	.word	0x00007ac0
    2aa0:	10000408 	.word	0x10000408

00002aa4 <mbed::FileBase::~FileBase()>:
    2aa4:	4b0d      	ldr	r3, [pc, #52]	; (2adc <mbed::FileBase::~FileBase()+0x38>)
    2aa6:	6882      	ldr	r2, [r0, #8]
    2aa8:	3308      	adds	r3, #8
    2aaa:	b510      	push	{r4, lr}
    2aac:	1c04      	adds	r4, r0, #0
    2aae:	6003      	str	r3, [r0, #0]
    2ab0:	2a00      	cmp	r2, #0
    2ab2:	d00a      	beq.n	2aca <mbed::FileBase::~FileBase()+0x26>
    2ab4:	4b0a      	ldr	r3, [pc, #40]	; (2ae0 <mbed::FileBase::~FileBase()+0x3c>)
    2ab6:	681a      	ldr	r2, [r3, #0]
    2ab8:	4290      	cmp	r0, r2
    2aba:	d101      	bne.n	2ac0 <mbed::FileBase::~FileBase()+0x1c>
    2abc:	e00a      	b.n	2ad4 <mbed::FileBase::~FileBase()+0x30>
    2abe:	1c1a      	adds	r2, r3, #0
    2ac0:	6853      	ldr	r3, [r2, #4]
    2ac2:	429c      	cmp	r4, r3
    2ac4:	d1fb      	bne.n	2abe <mbed::FileBase::~FileBase()+0x1a>
    2ac6:	6863      	ldr	r3, [r4, #4]
    2ac8:	6053      	str	r3, [r2, #4]
    2aca:	1c20      	adds	r0, r4, #0
    2acc:	f000 f83e 	bl	2b4c <operator delete(void*)>
    2ad0:	1c20      	adds	r0, r4, #0
    2ad2:	bd10      	pop	{r4, pc}
    2ad4:	6842      	ldr	r2, [r0, #4]
    2ad6:	601a      	str	r2, [r3, #0]
    2ad8:	e7f7      	b.n	2aca <mbed::FileBase::~FileBase()+0x26>
    2ada:	46c0      	nop			; (mov r8, r8)
    2adc:	00007ac0 	.word	0x00007ac0
    2ae0:	10000408 	.word	0x10000408

00002ae4 <mbed::FileBase::FileBase(char const*, mbed::PathType)>:
    2ae4:	4b06      	ldr	r3, [pc, #24]	; (2b00 <mbed::FileBase::FileBase(char const*, mbed::PathType)+0x1c>)
    2ae6:	6081      	str	r1, [r0, #8]
    2ae8:	3308      	adds	r3, #8
    2aea:	6003      	str	r3, [r0, #0]
    2aec:	2300      	movs	r3, #0
    2aee:	6043      	str	r3, [r0, #4]
    2af0:	7302      	strb	r2, [r0, #12]
    2af2:	2900      	cmp	r1, #0
    2af4:	d003      	beq.n	2afe <mbed::FileBase::FileBase(char const*, mbed::PathType)+0x1a>
    2af6:	4b03      	ldr	r3, [pc, #12]	; (2b04 <mbed::FileBase::FileBase(char const*, mbed::PathType)+0x20>)
    2af8:	681a      	ldr	r2, [r3, #0]
    2afa:	6018      	str	r0, [r3, #0]
    2afc:	6042      	str	r2, [r0, #4]
    2afe:	4770      	bx	lr
    2b00:	00007ac0 	.word	0x00007ac0
    2b04:	10000408 	.word	0x10000408

00002b08 <mbed::FileBase::lookup(char const*, unsigned int)>:
    2b08:	b5f8      	push	{r3, r4, r5, r6, r7, lr}
    2b0a:	4b0e      	ldr	r3, [pc, #56]	; (2b44 <mbed::FileBase::lookup(char const*, unsigned int)+0x3c>)
    2b0c:	1c07      	adds	r7, r0, #0
    2b0e:	681c      	ldr	r4, [r3, #0]
    2b10:	1c0e      	adds	r6, r1, #0
    2b12:	2c00      	cmp	r4, #0
    2b14:	d011      	beq.n	2b3a <mbed::FileBase::lookup(char const*, unsigned int)+0x32>
    2b16:	68a5      	ldr	r5, [r4, #8]
    2b18:	2d00      	cmp	r5, #0
    2b1a:	d00b      	beq.n	2b34 <mbed::FileBase::lookup(char const*, unsigned int)+0x2c>
    2b1c:	1c28      	adds	r0, r5, #0
    2b1e:	1c39      	adds	r1, r7, #0
    2b20:	1c32      	adds	r2, r6, #0
    2b22:	f003 fbb2 	bl	628a <strncmp>
    2b26:	2800      	cmp	r0, #0
    2b28:	d104      	bne.n	2b34 <mbed::FileBase::lookup(char const*, unsigned int)+0x2c>
    2b2a:	1c28      	adds	r0, r5, #0
    2b2c:	f003 fba6 	bl	627c <strlen>
    2b30:	42b0      	cmp	r0, r6
    2b32:	d004      	beq.n	2b3e <mbed::FileBase::lookup(char const*, unsigned int)+0x36>
    2b34:	6864      	ldr	r4, [r4, #4]
    2b36:	2c00      	cmp	r4, #0
    2b38:	d1ed      	bne.n	2b16 <mbed::FileBase::lookup(char const*, unsigned int)+0xe>
    2b3a:	2000      	movs	r0, #0
    2b3c:	bdf8      	pop	{r3, r4, r5, r6, r7, pc}
    2b3e:	1c20      	adds	r0, r4, #0
    2b40:	e7fc      	b.n	2b3c <mbed::FileBase::lookup(char const*, unsigned int)+0x34>
    2b42:	46c0      	nop			; (mov r8, r8)
    2b44:	10000408 	.word	0x10000408

00002b48 <mbed::FileBase::getPathType()>:
    2b48:	7b00      	ldrb	r0, [r0, #12]
    2b4a:	4770      	bx	lr

00002b4c <operator delete(void*)>:
    2b4c:	b508      	push	{r3, lr}
    2b4e:	2800      	cmp	r0, #0
    2b50:	d001      	beq.n	2b56 <operator delete(void*)+0xa>
    2b52:	f7fe fea9 	bl	18a8 <__wrap_free>
    2b56:	bd08      	pop	{r3, pc}

00002b58 <__aeabi_atexit>:
    2b58:	b508      	push	{r3, lr}
    2b5a:	1c03      	adds	r3, r0, #0
    2b5c:	1c08      	adds	r0, r1, #0
    2b5e:	1c19      	adds	r1, r3, #0
    2b60:	f002 fdcc 	bl	56fc <__cxa_atexit>
    2b64:	bd08      	pop	{r3, pc}
	...

00002b68 <__aeabi_uidiv>:
    2b68:	2900      	cmp	r1, #0
    2b6a:	d034      	beq.n	2bd6 <.udivsi3_skip_div0_test+0x6a>

00002b6c <.udivsi3_skip_div0_test>:
    2b6c:	2301      	movs	r3, #1
    2b6e:	2200      	movs	r2, #0
    2b70:	b410      	push	{r4}
    2b72:	4288      	cmp	r0, r1
    2b74:	d32c      	bcc.n	2bd0 <.udivsi3_skip_div0_test+0x64>
    2b76:	2401      	movs	r4, #1
    2b78:	0724      	lsls	r4, r4, #28
    2b7a:	42a1      	cmp	r1, r4
    2b7c:	d204      	bcs.n	2b88 <.udivsi3_skip_div0_test+0x1c>
    2b7e:	4281      	cmp	r1, r0
    2b80:	d202      	bcs.n	2b88 <.udivsi3_skip_div0_test+0x1c>
    2b82:	0109      	lsls	r1, r1, #4
    2b84:	011b      	lsls	r3, r3, #4
    2b86:	e7f8      	b.n	2b7a <.udivsi3_skip_div0_test+0xe>
    2b88:	00e4      	lsls	r4, r4, #3
    2b8a:	42a1      	cmp	r1, r4
    2b8c:	d204      	bcs.n	2b98 <.udivsi3_skip_div0_test+0x2c>
    2b8e:	4281      	cmp	r1, r0
    2b90:	d202      	bcs.n	2b98 <.udivsi3_skip_div0_test+0x2c>
    2b92:	0049      	lsls	r1, r1, #1
    2b94:	005b      	lsls	r3, r3, #1
    2b96:	e7f8      	b.n	2b8a <.udivsi3_skip_div0_test+0x1e>
    2b98:	4288      	cmp	r0, r1
    2b9a:	d301      	bcc.n	2ba0 <.udivsi3_skip_div0_test+0x34>
    2b9c:	1a40      	subs	r0, r0, r1
    2b9e:	431a      	orrs	r2, r3
    2ba0:	084c      	lsrs	r4, r1, #1
    2ba2:	42a0      	cmp	r0, r4
    2ba4:	d302      	bcc.n	2bac <.udivsi3_skip_div0_test+0x40>
    2ba6:	1b00      	subs	r0, r0, r4
    2ba8:	085c      	lsrs	r4, r3, #1
    2baa:	4322      	orrs	r2, r4
    2bac:	088c      	lsrs	r4, r1, #2
    2bae:	42a0      	cmp	r0, r4
    2bb0:	d302      	bcc.n	2bb8 <.udivsi3_skip_div0_test+0x4c>
    2bb2:	1b00      	subs	r0, r0, r4
    2bb4:	089c      	lsrs	r4, r3, #2
    2bb6:	4322      	orrs	r2, r4
    2bb8:	08cc      	lsrs	r4, r1, #3
    2bba:	42a0      	cmp	r0, r4
    2bbc:	d302      	bcc.n	2bc4 <.udivsi3_skip_div0_test+0x58>
    2bbe:	1b00      	subs	r0, r0, r4
    2bc0:	08dc      	lsrs	r4, r3, #3
    2bc2:	4322      	orrs	r2, r4
    2bc4:	2800      	cmp	r0, #0
    2bc6:	d003      	beq.n	2bd0 <.udivsi3_skip_div0_test+0x64>
    2bc8:	091b      	lsrs	r3, r3, #4
    2bca:	d001      	beq.n	2bd0 <.udivsi3_skip_div0_test+0x64>
    2bcc:	0909      	lsrs	r1, r1, #4
    2bce:	e7e3      	b.n	2b98 <.udivsi3_skip_div0_test+0x2c>
    2bd0:	1c10      	adds	r0, r2, #0
    2bd2:	bc10      	pop	{r4}
    2bd4:	4770      	bx	lr
    2bd6:	2800      	cmp	r0, #0
    2bd8:	d001      	beq.n	2bde <.udivsi3_skip_div0_test+0x72>
    2bda:	2000      	movs	r0, #0
    2bdc:	43c0      	mvns	r0, r0
    2bde:	b407      	push	{r0, r1, r2}
    2be0:	4802      	ldr	r0, [pc, #8]	; (2bec <.udivsi3_skip_div0_test+0x80>)
    2be2:	a102      	add	r1, pc, #8	; (adr r1, 2bec <.udivsi3_skip_div0_test+0x80>)
    2be4:	1840      	adds	r0, r0, r1
    2be6:	9002      	str	r0, [sp, #8]
    2be8:	bd03      	pop	{r0, r1, pc}
    2bea:	46c0      	nop			; (mov r8, r8)
    2bec:	00000019 	.word	0x00000019

00002bf0 <__aeabi_uidivmod>:
    2bf0:	2900      	cmp	r1, #0
    2bf2:	d0f0      	beq.n	2bd6 <.udivsi3_skip_div0_test+0x6a>
    2bf4:	b503      	push	{r0, r1, lr}
    2bf6:	f7ff ffb9 	bl	2b6c <.udivsi3_skip_div0_test>
    2bfa:	bc0e      	pop	{r1, r2, r3}
    2bfc:	4342      	muls	r2, r0
    2bfe:	1a89      	subs	r1, r1, r2
    2c00:	4718      	bx	r3
    2c02:	46c0      	nop			; (mov r8, r8)

00002c04 <__aeabi_idiv0>:
    2c04:	4770      	bx	lr
    2c06:	46c0      	nop			; (mov r8, r8)

00002c08 <__aeabi_cdrcmple>:
    2c08:	4684      	mov	r12, r0
    2c0a:	1c10      	adds	r0, r2, #0
    2c0c:	4662      	mov	r2, r12
    2c0e:	468c      	mov	r12, r1
    2c10:	1c19      	adds	r1, r3, #0
    2c12:	4663      	mov	r3, r12
    2c14:	e000      	b.n	2c18 <__aeabi_cdcmpeq>
    2c16:	46c0      	nop			; (mov r8, r8)

00002c18 <__aeabi_cdcmpeq>:
    2c18:	b51f      	push	{r0, r1, r2, r3, r4, lr}
    2c1a:	f001 fe3b 	bl	4894 <__ledf2>
    2c1e:	2800      	cmp	r0, #0
    2c20:	d401      	bmi.n	2c26 <__aeabi_cdcmpeq+0xe>
    2c22:	2100      	movs	r1, #0
    2c24:	42c8      	cmn	r0, r1
    2c26:	bd1f      	pop	{r0, r1, r2, r3, r4, pc}

00002c28 <__aeabi_dcmpeq>:
    2c28:	b510      	push	{r4, lr}
    2c2a:	f001 fd6b 	bl	4704 <__eqdf2>
    2c2e:	4240      	negs	r0, r0
    2c30:	3001      	adds	r0, #1
    2c32:	bd10      	pop	{r4, pc}

00002c34 <__aeabi_dcmplt>:
    2c34:	b510      	push	{r4, lr}
    2c36:	f001 fe2d 	bl	4894 <__ledf2>
    2c3a:	2800      	cmp	r0, #0
    2c3c:	db01      	blt.n	2c42 <__aeabi_dcmplt+0xe>
    2c3e:	2000      	movs	r0, #0
    2c40:	bd10      	pop	{r4, pc}
    2c42:	2001      	movs	r0, #1
    2c44:	bd10      	pop	{r4, pc}
    2c46:	46c0      	nop			; (mov r8, r8)

00002c48 <__aeabi_dcmple>:
    2c48:	b510      	push	{r4, lr}
    2c4a:	f001 fe23 	bl	4894 <__ledf2>
    2c4e:	2800      	cmp	r0, #0
    2c50:	dd01      	ble.n	2c56 <__aeabi_dcmple+0xe>
    2c52:	2000      	movs	r0, #0
    2c54:	bd10      	pop	{r4, pc}
    2c56:	2001      	movs	r0, #1
    2c58:	bd10      	pop	{r4, pc}
    2c5a:	46c0      	nop			; (mov r8, r8)

00002c5c <__aeabi_dcmpgt>:
    2c5c:	b510      	push	{r4, lr}
    2c5e:	f001 fd9b 	bl	4798 <__gedf2>
    2c62:	2800      	cmp	r0, #0
    2c64:	dc01      	bgt.n	2c6a <__aeabi_dcmpgt+0xe>
    2c66:	2000      	movs	r0, #0
    2c68:	bd10      	pop	{r4, pc}
    2c6a:	2001      	movs	r0, #1
    2c6c:	bd10      	pop	{r4, pc}
    2c6e:	46c0      	nop			; (mov r8, r8)

00002c70 <__aeabi_dcmpge>:
    2c70:	b510      	push	{r4, lr}
    2c72:	f001 fd91 	bl	4798 <__gedf2>
    2c76:	2800      	cmp	r0, #0
    2c78:	da01      	bge.n	2c7e <__aeabi_dcmpge+0xe>
    2c7a:	2000      	movs	r0, #0
    2c7c:	bd10      	pop	{r4, pc}
    2c7e:	2001      	movs	r0, #1
    2c80:	bd10      	pop	{r4, pc}
    2c82:	46c0      	nop			; (mov r8, r8)

00002c84 <__aeabi_cfrcmple>:
    2c84:	4684      	mov	r12, r0
    2c86:	1c08      	adds	r0, r1, #0
    2c88:	4661      	mov	r1, r12
    2c8a:	e7ff      	b.n	2c8c <__aeabi_cfcmpeq>

00002c8c <__aeabi_cfcmpeq>:
    2c8c:	b51f      	push	{r0, r1, r2, r3, r4, lr}
    2c8e:	f000 fb47 	bl	3320 <__lesf2>
    2c92:	2800      	cmp	r0, #0
    2c94:	d401      	bmi.n	2c9a <__aeabi_cfcmpeq+0xe>
    2c96:	2100      	movs	r1, #0
    2c98:	42c8      	cmn	r0, r1
    2c9a:	bd1f      	pop	{r0, r1, r2, r3, r4, pc}

00002c9c <__aeabi_fcmpeq>:
    2c9c:	b510      	push	{r4, lr}
    2c9e:	f000 facd 	bl	323c <__eqsf2>
    2ca2:	4240      	negs	r0, r0
    2ca4:	3001      	adds	r0, #1
    2ca6:	bd10      	pop	{r4, pc}

00002ca8 <__aeabi_fcmplt>:
    2ca8:	b510      	push	{r4, lr}
    2caa:	f000 fb39 	bl	3320 <__lesf2>
    2cae:	2800      	cmp	r0, #0
    2cb0:	db01      	blt.n	2cb6 <__aeabi_fcmplt+0xe>
    2cb2:	2000      	movs	r0, #0
    2cb4:	bd10      	pop	{r4, pc}
    2cb6:	2001      	movs	r0, #1
    2cb8:	bd10      	pop	{r4, pc}
    2cba:	46c0      	nop			; (mov r8, r8)

00002cbc <__aeabi_fcmple>:
    2cbc:	b510      	push	{r4, lr}
    2cbe:	f000 fb2f 	bl	3320 <__lesf2>
    2cc2:	2800      	cmp	r0, #0
    2cc4:	dd01      	ble.n	2cca <__aeabi_fcmple+0xe>
    2cc6:	2000      	movs	r0, #0
    2cc8:	bd10      	pop	{r4, pc}
    2cca:	2001      	movs	r0, #1
    2ccc:	bd10      	pop	{r4, pc}
    2cce:	46c0      	nop			; (mov r8, r8)

00002cd0 <__aeabi_fcmpgt>:
    2cd0:	b510      	push	{r4, lr}
    2cd2:	f000 fadd 	bl	3290 <__gesf2>
    2cd6:	2800      	cmp	r0, #0
    2cd8:	dc01      	bgt.n	2cde <__aeabi_fcmpgt+0xe>
    2cda:	2000      	movs	r0, #0
    2cdc:	bd10      	pop	{r4, pc}
    2cde:	2001      	movs	r0, #1
    2ce0:	bd10      	pop	{r4, pc}
    2ce2:	46c0      	nop			; (mov r8, r8)

00002ce4 <__aeabi_fcmpge>:
    2ce4:	b510      	push	{r4, lr}
    2ce6:	f000 fad3 	bl	3290 <__gesf2>
    2cea:	2800      	cmp	r0, #0
    2cec:	da01      	bge.n	2cf2 <__aeabi_fcmpge+0xe>
    2cee:	2000      	movs	r0, #0
    2cf0:	bd10      	pop	{r4, pc}
    2cf2:	2001      	movs	r0, #1
    2cf4:	bd10      	pop	{r4, pc}
    2cf6:	46c0      	nop			; (mov r8, r8)

00002cf8 <__aeabi_f2uiz>:
    2cf8:	219e      	movs	r1, #158	; 0x9e
    2cfa:	b510      	push	{r4, lr}
    2cfc:	05c9      	lsls	r1, r1, #23
    2cfe:	1c04      	adds	r4, r0, #0
    2d00:	f7ff fff0 	bl	2ce4 <__aeabi_fcmpge>
    2d04:	2800      	cmp	r0, #0
    2d06:	d103      	bne.n	2d10 <__aeabi_f2uiz+0x18>
    2d08:	1c20      	adds	r0, r4, #0
    2d0a:	f000 fdef 	bl	38ec <__aeabi_f2iz>
    2d0e:	bd10      	pop	{r4, pc}
    2d10:	219e      	movs	r1, #158	; 0x9e
    2d12:	05c9      	lsls	r1, r1, #23
    2d14:	1c20      	adds	r0, r4, #0
    2d16:	f000 fc79 	bl	360c <__aeabi_fsub>
    2d1a:	f000 fde7 	bl	38ec <__aeabi_f2iz>
    2d1e:	2380      	movs	r3, #128	; 0x80
    2d20:	061b      	lsls	r3, r3, #24
    2d22:	18c0      	adds	r0, r0, r3
    2d24:	e7f3      	b.n	2d0e <__aeabi_f2uiz+0x16>
    2d26:	46c0      	nop			; (mov r8, r8)

00002d28 <__aeabi_fadd>:
    2d28:	b5f8      	push	{r3, r4, r5, r6, r7, lr}
    2d2a:	0243      	lsls	r3, r0, #9
    2d2c:	0044      	lsls	r4, r0, #1
    2d2e:	0fc5      	lsrs	r5, r0, #31
    2d30:	024e      	lsls	r6, r1, #9
    2d32:	0048      	lsls	r0, r1, #1
    2d34:	0e24      	lsrs	r4, r4, #24
    2d36:	1c2a      	adds	r2, r5, #0
    2d38:	099b      	lsrs	r3, r3, #6
    2d3a:	0e00      	lsrs	r0, r0, #24
    2d3c:	0fc9      	lsrs	r1, r1, #31
    2d3e:	09b6      	lsrs	r6, r6, #6
    2d40:	428d      	cmp	r5, r1
    2d42:	d056      	beq.n	2df2 <__aeabi_fadd+0xca>
    2d44:	1a22      	subs	r2, r4, r0
    2d46:	2a00      	cmp	r2, #0
    2d48:	dc00      	bgt.n	2d4c <__aeabi_fadd+0x24>
    2d4a:	e083      	b.n	2e54 <__aeabi_fadd+0x12c>
    2d4c:	2800      	cmp	r0, #0
    2d4e:	d11a      	bne.n	2d86 <__aeabi_fadd+0x5e>
    2d50:	2e00      	cmp	r6, #0
    2d52:	d000      	beq.n	2d56 <__aeabi_fadd+0x2e>
    2d54:	e06f      	b.n	2e36 <__aeabi_fadd+0x10e>
    2d56:	0758      	lsls	r0, r3, #29
    2d58:	d004      	beq.n	2d64 <__aeabi_fadd+0x3c>
    2d5a:	220f      	movs	r2, #15
    2d5c:	401a      	ands	r2, r3
    2d5e:	2a04      	cmp	r2, #4
    2d60:	d000      	beq.n	2d64 <__aeabi_fadd+0x3c>
    2d62:	3304      	adds	r3, #4
    2d64:	0159      	lsls	r1, r3, #5
    2d66:	d537      	bpl.n	2dd8 <__aeabi_fadd+0xb0>
    2d68:	3401      	adds	r4, #1
    2d6a:	2cff      	cmp	r4, #255	; 0xff
    2d6c:	d100      	bne.n	2d70 <__aeabi_fadd+0x48>
    2d6e:	e07d      	b.n	2e6c <__aeabi_fadd+0x144>
    2d70:	019b      	lsls	r3, r3, #6
    2d72:	0a5b      	lsrs	r3, r3, #9
    2d74:	b2e0      	uxtb	r0, r4
    2d76:	1c2a      	adds	r2, r5, #0
    2d78:	025b      	lsls	r3, r3, #9
    2d7a:	05c4      	lsls	r4, r0, #23
    2d7c:	0a58      	lsrs	r0, r3, #9
    2d7e:	07d2      	lsls	r2, r2, #31
    2d80:	4320      	orrs	r0, r4
    2d82:	4310      	orrs	r0, r2
    2d84:	bdf8      	pop	{r3, r4, r5, r6, r7, pc}
    2d86:	2cff      	cmp	r4, #255	; 0xff
    2d88:	d0e5      	beq.n	2d56 <__aeabi_fadd+0x2e>
    2d8a:	2180      	movs	r1, #128	; 0x80
    2d8c:	04c9      	lsls	r1, r1, #19
    2d8e:	430e      	orrs	r6, r1
    2d90:	2a1b      	cmp	r2, #27
    2d92:	dd00      	ble.n	2d96 <__aeabi_fadd+0x6e>
    2d94:	e127      	b.n	2fe6 <__aeabi_fadd+0x2be>
    2d96:	1c31      	adds	r1, r6, #0
    2d98:	2020      	movs	r0, #32
    2d9a:	40d1      	lsrs	r1, r2
    2d9c:	1a82      	subs	r2, r0, r2
    2d9e:	4096      	lsls	r6, r2
    2da0:	1e72      	subs	r2, r6, #1
    2da2:	4196      	sbcs	r6, r2
    2da4:	430e      	orrs	r6, r1
    2da6:	1b9b      	subs	r3, r3, r6
    2da8:	0158      	lsls	r0, r3, #5
    2daa:	d5d4      	bpl.n	2d56 <__aeabi_fadd+0x2e>
    2dac:	019b      	lsls	r3, r3, #6
    2dae:	099f      	lsrs	r7, r3, #6
    2db0:	1c38      	adds	r0, r7, #0
    2db2:	f002 fc85 	bl	56c0 <__clzsi2>
    2db6:	1f42      	subs	r2, r0, #5
    2db8:	4097      	lsls	r7, r2
    2dba:	4294      	cmp	r4, r2
    2dbc:	dc5a      	bgt.n	2e74 <__aeabi_fadd+0x14c>
    2dbe:	1b14      	subs	r4, r2, r4
    2dc0:	231f      	movs	r3, #31
    2dc2:	1b1b      	subs	r3, r3, r4
    2dc4:	1c3a      	adds	r2, r7, #0
    2dc6:	409f      	lsls	r7, r3
    2dc8:	1c61      	adds	r1, r4, #1
    2dca:	1c3b      	adds	r3, r7, #0
    2dcc:	40ca      	lsrs	r2, r1
    2dce:	1e5f      	subs	r7, r3, #1
    2dd0:	41bb      	sbcs	r3, r7
    2dd2:	4313      	orrs	r3, r2
    2dd4:	2400      	movs	r4, #0
    2dd6:	e7be      	b.n	2d56 <__aeabi_fadd+0x2e>
    2dd8:	08db      	lsrs	r3, r3, #3
    2dda:	b2e0      	uxtb	r0, r4
    2ddc:	1c2a      	adds	r2, r5, #0
    2dde:	2cff      	cmp	r4, #255	; 0xff
    2de0:	d104      	bne.n	2dec <__aeabi_fadd+0xc4>
    2de2:	2b00      	cmp	r3, #0
    2de4:	d079      	beq.n	2eda <__aeabi_fadd+0x1b2>
    2de6:	2180      	movs	r1, #128	; 0x80
    2de8:	03c9      	lsls	r1, r1, #15
    2dea:	430b      	orrs	r3, r1
    2dec:	025b      	lsls	r3, r3, #9
    2dee:	0a5b      	lsrs	r3, r3, #9
    2df0:	e7c2      	b.n	2d78 <__aeabi_fadd+0x50>
    2df2:	1a21      	subs	r1, r4, r0
    2df4:	2900      	cmp	r1, #0
    2df6:	dd41      	ble.n	2e7c <__aeabi_fadd+0x154>
    2df8:	2800      	cmp	r0, #0
    2dfa:	d022      	beq.n	2e42 <__aeabi_fadd+0x11a>
    2dfc:	2cff      	cmp	r4, #255	; 0xff
    2dfe:	d0aa      	beq.n	2d56 <__aeabi_fadd+0x2e>
    2e00:	2080      	movs	r0, #128	; 0x80
    2e02:	04c0      	lsls	r0, r0, #19
    2e04:	4306      	orrs	r6, r0
    2e06:	291b      	cmp	r1, #27
    2e08:	dd00      	ble.n	2e0c <__aeabi_fadd+0xe4>
    2e0a:	e0ea      	b.n	2fe2 <__aeabi_fadd+0x2ba>
    2e0c:	1c30      	adds	r0, r6, #0
    2e0e:	2720      	movs	r7, #32
    2e10:	40c8      	lsrs	r0, r1
    2e12:	1a79      	subs	r1, r7, r1
    2e14:	408e      	lsls	r6, r1
    2e16:	1e71      	subs	r1, r6, #1
    2e18:	418e      	sbcs	r6, r1
    2e1a:	4306      	orrs	r6, r0
    2e1c:	199b      	adds	r3, r3, r6
    2e1e:	0159      	lsls	r1, r3, #5
    2e20:	d599      	bpl.n	2d56 <__aeabi_fadd+0x2e>
    2e22:	3401      	adds	r4, #1
    2e24:	2cff      	cmp	r4, #255	; 0xff
    2e26:	d057      	beq.n	2ed8 <__aeabi_fadd+0x1b0>
    2e28:	4970      	ldr	r1, [pc, #448]	; (2fec <__aeabi_fadd+0x2c4>)
    2e2a:	2201      	movs	r2, #1
    2e2c:	401a      	ands	r2, r3
    2e2e:	400b      	ands	r3, r1
    2e30:	085b      	lsrs	r3, r3, #1
    2e32:	4313      	orrs	r3, r2
    2e34:	e78f      	b.n	2d56 <__aeabi_fadd+0x2e>
    2e36:	3a01      	subs	r2, #1
    2e38:	2a00      	cmp	r2, #0
    2e3a:	d0b4      	beq.n	2da6 <__aeabi_fadd+0x7e>
    2e3c:	2cff      	cmp	r4, #255	; 0xff
    2e3e:	d1a7      	bne.n	2d90 <__aeabi_fadd+0x68>
    2e40:	e789      	b.n	2d56 <__aeabi_fadd+0x2e>
    2e42:	2e00      	cmp	r6, #0
    2e44:	d100      	bne.n	2e48 <__aeabi_fadd+0x120>
    2e46:	e786      	b.n	2d56 <__aeabi_fadd+0x2e>
    2e48:	3901      	subs	r1, #1
    2e4a:	2900      	cmp	r1, #0
    2e4c:	d0e6      	beq.n	2e1c <__aeabi_fadd+0xf4>
    2e4e:	2cff      	cmp	r4, #255	; 0xff
    2e50:	d1d9      	bne.n	2e06 <__aeabi_fadd+0xde>
    2e52:	e780      	b.n	2d56 <__aeabi_fadd+0x2e>
    2e54:	2a00      	cmp	r2, #0
    2e56:	d11d      	bne.n	2e94 <__aeabi_fadd+0x16c>
    2e58:	1c62      	adds	r2, r4, #1
    2e5a:	b2d2      	uxtb	r2, r2
    2e5c:	2a01      	cmp	r2, #1
    2e5e:	dd4d      	ble.n	2efc <__aeabi_fadd+0x1d4>
    2e60:	1b9f      	subs	r7, r3, r6
    2e62:	017a      	lsls	r2, r7, #5
    2e64:	d525      	bpl.n	2eb2 <__aeabi_fadd+0x18a>
    2e66:	1af7      	subs	r7, r6, r3
    2e68:	1c0d      	adds	r5, r1, #0
    2e6a:	e7a1      	b.n	2db0 <__aeabi_fadd+0x88>
    2e6c:	1c2a      	adds	r2, r5, #0
    2e6e:	20ff      	movs	r0, #255	; 0xff
    2e70:	2300      	movs	r3, #0
    2e72:	e781      	b.n	2d78 <__aeabi_fadd+0x50>
    2e74:	4b5d      	ldr	r3, [pc, #372]	; (2fec <__aeabi_fadd+0x2c4>)
    2e76:	1aa4      	subs	r4, r4, r2
    2e78:	403b      	ands	r3, r7
    2e7a:	e76c      	b.n	2d56 <__aeabi_fadd+0x2e>
    2e7c:	2900      	cmp	r1, #0
    2e7e:	d146      	bne.n	2f0e <__aeabi_fadd+0x1e6>
    2e80:	1c61      	adds	r1, r4, #1
    2e82:	b2c8      	uxtb	r0, r1
    2e84:	2801      	cmp	r0, #1
    2e86:	dd2a      	ble.n	2ede <__aeabi_fadd+0x1b6>
    2e88:	29ff      	cmp	r1, #255	; 0xff
    2e8a:	d025      	beq.n	2ed8 <__aeabi_fadd+0x1b0>
    2e8c:	18f3      	adds	r3, r6, r3
    2e8e:	085b      	lsrs	r3, r3, #1
    2e90:	1c0c      	adds	r4, r1, #0
    2e92:	e760      	b.n	2d56 <__aeabi_fadd+0x2e>
    2e94:	2c00      	cmp	r4, #0
    2e96:	d013      	beq.n	2ec0 <__aeabi_fadd+0x198>
    2e98:	28ff      	cmp	r0, #255	; 0xff
    2e9a:	d018      	beq.n	2ece <__aeabi_fadd+0x1a6>
    2e9c:	2480      	movs	r4, #128	; 0x80
    2e9e:	04e4      	lsls	r4, r4, #19
    2ea0:	4252      	negs	r2, r2
    2ea2:	4323      	orrs	r3, r4
    2ea4:	2a1b      	cmp	r2, #27
    2ea6:	dd4d      	ble.n	2f44 <__aeabi_fadd+0x21c>
    2ea8:	2301      	movs	r3, #1
    2eaa:	1af3      	subs	r3, r6, r3
    2eac:	1c04      	adds	r4, r0, #0
    2eae:	1c0d      	adds	r5, r1, #0
    2eb0:	e77a      	b.n	2da8 <__aeabi_fadd+0x80>
    2eb2:	2f00      	cmp	r7, #0
    2eb4:	d000      	beq.n	2eb8 <__aeabi_fadd+0x190>
    2eb6:	e77b      	b.n	2db0 <__aeabi_fadd+0x88>
    2eb8:	2200      	movs	r2, #0
    2eba:	2000      	movs	r0, #0
    2ebc:	2300      	movs	r3, #0
    2ebe:	e795      	b.n	2dec <__aeabi_fadd+0xc4>
    2ec0:	2b00      	cmp	r3, #0
    2ec2:	d03b      	beq.n	2f3c <__aeabi_fadd+0x214>
    2ec4:	43d2      	mvns	r2, r2
    2ec6:	2a00      	cmp	r2, #0
    2ec8:	d0ef      	beq.n	2eaa <__aeabi_fadd+0x182>
    2eca:	28ff      	cmp	r0, #255	; 0xff
    2ecc:	d1ea      	bne.n	2ea4 <__aeabi_fadd+0x17c>
    2ece:	1c33      	adds	r3, r6, #0
    2ed0:	24ff      	movs	r4, #255	; 0xff
    2ed2:	1c0d      	adds	r5, r1, #0
    2ed4:	e73f      	b.n	2d56 <__aeabi_fadd+0x2e>
    2ed6:	2200      	movs	r2, #0
    2ed8:	20ff      	movs	r0, #255	; 0xff
    2eda:	2300      	movs	r3, #0
    2edc:	e74c      	b.n	2d78 <__aeabi_fadd+0x50>
    2ede:	2c00      	cmp	r4, #0
    2ee0:	d15a      	bne.n	2f98 <__aeabi_fadd+0x270>
    2ee2:	2b00      	cmp	r3, #0
    2ee4:	d077      	beq.n	2fd6 <__aeabi_fadd+0x2ae>
    2ee6:	2e00      	cmp	r6, #0
    2ee8:	d100      	bne.n	2eec <__aeabi_fadd+0x1c4>
    2eea:	e734      	b.n	2d56 <__aeabi_fadd+0x2e>
    2eec:	199b      	adds	r3, r3, r6
    2eee:	0158      	lsls	r0, r3, #5
    2ef0:	d400      	bmi.n	2ef4 <__aeabi_fadd+0x1cc>
    2ef2:	e730      	b.n	2d56 <__aeabi_fadd+0x2e>
    2ef4:	4a3d      	ldr	r2, [pc, #244]	; (2fec <__aeabi_fadd+0x2c4>)
    2ef6:	2401      	movs	r4, #1
    2ef8:	4013      	ands	r3, r2
    2efa:	e72c      	b.n	2d56 <__aeabi_fadd+0x2e>
    2efc:	2c00      	cmp	r4, #0
    2efe:	d115      	bne.n	2f2c <__aeabi_fadd+0x204>
    2f00:	2b00      	cmp	r3, #0
    2f02:	d12f      	bne.n	2f64 <__aeabi_fadd+0x23c>
    2f04:	2e00      	cmp	r6, #0
    2f06:	d0d7      	beq.n	2eb8 <__aeabi_fadd+0x190>
    2f08:	1c33      	adds	r3, r6, #0
    2f0a:	1c0d      	adds	r5, r1, #0
    2f0c:	e723      	b.n	2d56 <__aeabi_fadd+0x2e>
    2f0e:	2c00      	cmp	r4, #0
    2f10:	d121      	bne.n	2f56 <__aeabi_fadd+0x22e>
    2f12:	2b00      	cmp	r3, #0
    2f14:	d053      	beq.n	2fbe <__aeabi_fadd+0x296>
    2f16:	43c9      	mvns	r1, r1
    2f18:	2900      	cmp	r1, #0
    2f1a:	d004      	beq.n	2f26 <__aeabi_fadd+0x1fe>
    2f1c:	28ff      	cmp	r0, #255	; 0xff
    2f1e:	d04b      	beq.n	2fb8 <__aeabi_fadd+0x290>
    2f20:	291b      	cmp	r1, #27
    2f22:	dd4f      	ble.n	2fc4 <__aeabi_fadd+0x29c>
    2f24:	2301      	movs	r3, #1
    2f26:	199b      	adds	r3, r3, r6
    2f28:	1c04      	adds	r4, r0, #0
    2f2a:	e778      	b.n	2e1e <__aeabi_fadd+0xf6>
    2f2c:	2b00      	cmp	r3, #0
    2f2e:	d122      	bne.n	2f76 <__aeabi_fadd+0x24e>
    2f30:	2e00      	cmp	r6, #0
    2f32:	d0d0      	beq.n	2ed6 <__aeabi_fadd+0x1ae>
    2f34:	1c33      	adds	r3, r6, #0
    2f36:	1c0d      	adds	r5, r1, #0
    2f38:	24ff      	movs	r4, #255	; 0xff
    2f3a:	e70c      	b.n	2d56 <__aeabi_fadd+0x2e>
    2f3c:	1c33      	adds	r3, r6, #0
    2f3e:	1c04      	adds	r4, r0, #0
    2f40:	1c0d      	adds	r5, r1, #0
    2f42:	e708      	b.n	2d56 <__aeabi_fadd+0x2e>
    2f44:	1c1c      	adds	r4, r3, #0
    2f46:	2520      	movs	r5, #32
    2f48:	40d4      	lsrs	r4, r2
    2f4a:	1aaa      	subs	r2, r5, r2
    2f4c:	4093      	lsls	r3, r2
    2f4e:	1e5a      	subs	r2, r3, #1
    2f50:	4193      	sbcs	r3, r2
    2f52:	4323      	orrs	r3, r4
    2f54:	e7a9      	b.n	2eaa <__aeabi_fadd+0x182>
    2f56:	28ff      	cmp	r0, #255	; 0xff
    2f58:	d02e      	beq.n	2fb8 <__aeabi_fadd+0x290>
    2f5a:	2480      	movs	r4, #128	; 0x80
    2f5c:	04e4      	lsls	r4, r4, #19
    2f5e:	4249      	negs	r1, r1
    2f60:	4323      	orrs	r3, r4
    2f62:	e7dd      	b.n	2f20 <__aeabi_fadd+0x1f8>
    2f64:	2e00      	cmp	r6, #0
    2f66:	d100      	bne.n	2f6a <__aeabi_fadd+0x242>
    2f68:	e6f5      	b.n	2d56 <__aeabi_fadd+0x2e>
    2f6a:	1b9a      	subs	r2, r3, r6
    2f6c:	0150      	lsls	r0, r2, #5
    2f6e:	d534      	bpl.n	2fda <__aeabi_fadd+0x2b2>
    2f70:	1af3      	subs	r3, r6, r3
    2f72:	1c0d      	adds	r5, r1, #0
    2f74:	e6ef      	b.n	2d56 <__aeabi_fadd+0x2e>
    2f76:	24ff      	movs	r4, #255	; 0xff
    2f78:	2e00      	cmp	r6, #0
    2f7a:	d100      	bne.n	2f7e <__aeabi_fadd+0x256>
    2f7c:	e6eb      	b.n	2d56 <__aeabi_fadd+0x2e>
    2f7e:	2280      	movs	r2, #128	; 0x80
    2f80:	08db      	lsrs	r3, r3, #3
    2f82:	03d2      	lsls	r2, r2, #15
    2f84:	4213      	tst	r3, r2
    2f86:	d004      	beq.n	2f92 <__aeabi_fadd+0x26a>
    2f88:	08f6      	lsrs	r6, r6, #3
    2f8a:	4216      	tst	r6, r2
    2f8c:	d101      	bne.n	2f92 <__aeabi_fadd+0x26a>
    2f8e:	1c33      	adds	r3, r6, #0
    2f90:	1c0d      	adds	r5, r1, #0
    2f92:	00db      	lsls	r3, r3, #3
    2f94:	24ff      	movs	r4, #255	; 0xff
    2f96:	e6de      	b.n	2d56 <__aeabi_fadd+0x2e>
    2f98:	2b00      	cmp	r3, #0
    2f9a:	d00d      	beq.n	2fb8 <__aeabi_fadd+0x290>
    2f9c:	24ff      	movs	r4, #255	; 0xff
    2f9e:	2e00      	cmp	r6, #0
    2fa0:	d100      	bne.n	2fa4 <__aeabi_fadd+0x27c>
    2fa2:	e6d8      	b.n	2d56 <__aeabi_fadd+0x2e>
    2fa4:	2280      	movs	r2, #128	; 0x80
    2fa6:	08db      	lsrs	r3, r3, #3
    2fa8:	03d2      	lsls	r2, r2, #15
    2faa:	4213      	tst	r3, r2
    2fac:	d0f1      	beq.n	2f92 <__aeabi_fadd+0x26a>
    2fae:	08f6      	lsrs	r6, r6, #3
    2fb0:	4216      	tst	r6, r2
    2fb2:	d1ee      	bne.n	2f92 <__aeabi_fadd+0x26a>
    2fb4:	1c33      	adds	r3, r6, #0
    2fb6:	e7ec      	b.n	2f92 <__aeabi_fadd+0x26a>
    2fb8:	1c33      	adds	r3, r6, #0
    2fba:	24ff      	movs	r4, #255	; 0xff
    2fbc:	e6cb      	b.n	2d56 <__aeabi_fadd+0x2e>
    2fbe:	1c33      	adds	r3, r6, #0
    2fc0:	1c04      	adds	r4, r0, #0
    2fc2:	e6c8      	b.n	2d56 <__aeabi_fadd+0x2e>
    2fc4:	1c1c      	adds	r4, r3, #0
    2fc6:	2720      	movs	r7, #32
    2fc8:	40cc      	lsrs	r4, r1
    2fca:	1a79      	subs	r1, r7, r1
    2fcc:	408b      	lsls	r3, r1
    2fce:	1e59      	subs	r1, r3, #1
    2fd0:	418b      	sbcs	r3, r1
    2fd2:	4323      	orrs	r3, r4
    2fd4:	e7a7      	b.n	2f26 <__aeabi_fadd+0x1fe>
    2fd6:	1c33      	adds	r3, r6, #0
    2fd8:	e6bd      	b.n	2d56 <__aeabi_fadd+0x2e>
    2fda:	1e13      	subs	r3, r2, #0
    2fdc:	d000      	beq.n	2fe0 <__aeabi_fadd+0x2b8>
    2fde:	e6ba      	b.n	2d56 <__aeabi_fadd+0x2e>
    2fe0:	e76a      	b.n	2eb8 <__aeabi_fadd+0x190>
    2fe2:	2601      	movs	r6, #1
    2fe4:	e71a      	b.n	2e1c <__aeabi_fadd+0xf4>
    2fe6:	2601      	movs	r6, #1
    2fe8:	e6dd      	b.n	2da6 <__aeabi_fadd+0x7e>
    2fea:	46c0      	nop			; (mov r8, r8)
    2fec:	fbffffff 	.word	0xfbffffff

00002ff0 <__aeabi_fdiv>:
    2ff0:	b5f0      	push	{r4, r5, r6, r7, lr}
    2ff2:	465f      	mov	r7, r11
    2ff4:	4656      	mov	r6, r10
    2ff6:	464d      	mov	r5, r9
    2ff8:	4644      	mov	r4, r8
    2ffa:	b4f0      	push	{r4, r5, r6, r7}
    2ffc:	0246      	lsls	r6, r0, #9
    2ffe:	0045      	lsls	r5, r0, #1
    3000:	0fc0      	lsrs	r0, r0, #31
    3002:	b085      	sub	sp, #20
    3004:	1c0f      	adds	r7, r1, #0
    3006:	0a76      	lsrs	r6, r6, #9
    3008:	0e2d      	lsrs	r5, r5, #24
    300a:	4680      	mov	r8, r0
    300c:	d041      	beq.n	3092 <__aeabi_fdiv+0xa2>
    300e:	2dff      	cmp	r5, #255	; 0xff
    3010:	d026      	beq.n	3060 <__aeabi_fdiv+0x70>
    3012:	2480      	movs	r4, #128	; 0x80
    3014:	0424      	lsls	r4, r4, #16
    3016:	2100      	movs	r1, #0
    3018:	4326      	orrs	r6, r4
    301a:	00f6      	lsls	r6, r6, #3
    301c:	3d7f      	subs	r5, #127	; 0x7f
    301e:	4689      	mov	r9, r1
    3020:	468b      	mov	r11, r1
    3022:	0ff9      	lsrs	r1, r7, #31
    3024:	027c      	lsls	r4, r7, #9
    3026:	0078      	lsls	r0, r7, #1
    3028:	0a64      	lsrs	r4, r4, #9
    302a:	0e00      	lsrs	r0, r0, #24
    302c:	9100      	str	r1, [sp, #0]
    302e:	468a      	mov	r10, r1
    3030:	d03c      	beq.n	30ac <__aeabi_fdiv+0xbc>
    3032:	28ff      	cmp	r0, #255	; 0xff
    3034:	d034      	beq.n	30a0 <__aeabi_fdiv+0xb0>
    3036:	2380      	movs	r3, #128	; 0x80
    3038:	041b      	lsls	r3, r3, #16
    303a:	431c      	orrs	r4, r3
    303c:	2300      	movs	r3, #0
    303e:	00e4      	lsls	r4, r4, #3
    3040:	387f      	subs	r0, #127	; 0x7f
    3042:	9301      	str	r3, [sp, #4]
    3044:	9f00      	ldr	r7, [sp, #0]
    3046:	4643      	mov	r3, r8
    3048:	9a01      	ldr	r2, [sp, #4]
    304a:	407b      	eors	r3, r7
    304c:	4649      	mov	r1, r9
    304e:	469c      	mov	r12, r3
    3050:	4311      	orrs	r1, r2
    3052:	290f      	cmp	r1, #15
    3054:	d900      	bls.n	3058 <__aeabi_fdiv+0x68>
    3056:	e071      	b.n	313c <__aeabi_fdiv+0x14c>
    3058:	4f76      	ldr	r7, [pc, #472]	; (3234 <__aeabi_fdiv+0x244>)
    305a:	0089      	lsls	r1, r1, #2
    305c:	587f      	ldr	r7, [r7, r1]
    305e:	46bf      	mov	pc, r7
    3060:	2e00      	cmp	r6, #0
    3062:	d13e      	bne.n	30e2 <__aeabi_fdiv+0xf2>
    3064:	2208      	movs	r2, #8
    3066:	2302      	movs	r3, #2
    3068:	4691      	mov	r9, r2
    306a:	469b      	mov	r11, r3
    306c:	e7d9      	b.n	3022 <__aeabi_fdiv+0x32>
    306e:	465a      	mov	r2, r11
    3070:	1c34      	adds	r4, r6, #0
    3072:	46c2      	mov	r10, r8
    3074:	9201      	str	r2, [sp, #4]
    3076:	9901      	ldr	r1, [sp, #4]
    3078:	2902      	cmp	r1, #2
    307a:	d037      	beq.n	30ec <__aeabi_fdiv+0xfc>
    307c:	2903      	cmp	r1, #3
    307e:	d100      	bne.n	3082 <__aeabi_fdiv+0x92>
    3080:	e0cf      	b.n	3222 <__aeabi_fdiv+0x232>
    3082:	2901      	cmp	r1, #1
    3084:	d000      	beq.n	3088 <__aeabi_fdiv+0x98>
    3086:	e0ab      	b.n	31e0 <__aeabi_fdiv+0x1f0>
    3088:	4653      	mov	r3, r10
    308a:	400b      	ands	r3, r1
    308c:	2200      	movs	r2, #0
    308e:	2600      	movs	r6, #0
    3090:	e032      	b.n	30f8 <__aeabi_fdiv+0x108>
    3092:	2e00      	cmp	r6, #0
    3094:	d119      	bne.n	30ca <__aeabi_fdiv+0xda>
    3096:	2104      	movs	r1, #4
    3098:	2201      	movs	r2, #1
    309a:	4689      	mov	r9, r1
    309c:	4693      	mov	r11, r2
    309e:	e7c0      	b.n	3022 <__aeabi_fdiv+0x32>
    30a0:	1c22      	adds	r2, r4, #0
    30a2:	1e53      	subs	r3, r2, #1
    30a4:	419a      	sbcs	r2, r3
    30a6:	3202      	adds	r2, #2
    30a8:	9201      	str	r2, [sp, #4]
    30aa:	e7cb      	b.n	3044 <__aeabi_fdiv+0x54>
    30ac:	2701      	movs	r7, #1
    30ae:	9701      	str	r7, [sp, #4]
    30b0:	2c00      	cmp	r4, #0
    30b2:	d0c7      	beq.n	3044 <__aeabi_fdiv+0x54>
    30b4:	1c20      	adds	r0, r4, #0
    30b6:	f002 fb03 	bl	56c0 <__clzsi2>
    30ba:	1f43      	subs	r3, r0, #5
    30bc:	409c      	lsls	r4, r3
    30be:	2376      	movs	r3, #118	; 0x76
    30c0:	425b      	negs	r3, r3
    30c2:	2100      	movs	r1, #0
    30c4:	1a18      	subs	r0, r3, r0
    30c6:	9101      	str	r1, [sp, #4]
    30c8:	e7bc      	b.n	3044 <__aeabi_fdiv+0x54>
    30ca:	1c30      	adds	r0, r6, #0
    30cc:	f002 faf8 	bl	56c0 <__clzsi2>
    30d0:	2576      	movs	r5, #118	; 0x76
    30d2:	1f43      	subs	r3, r0, #5
    30d4:	409e      	lsls	r6, r3
    30d6:	426d      	negs	r5, r5
    30d8:	2300      	movs	r3, #0
    30da:	1a2d      	subs	r5, r5, r0
    30dc:	4699      	mov	r9, r3
    30de:	469b      	mov	r11, r3
    30e0:	e79f      	b.n	3022 <__aeabi_fdiv+0x32>
    30e2:	230c      	movs	r3, #12
    30e4:	2103      	movs	r1, #3
    30e6:	4699      	mov	r9, r3
    30e8:	468b      	mov	r11, r1
    30ea:	e79a      	b.n	3022 <__aeabi_fdiv+0x32>
    30ec:	46d4      	mov	r12, r10
    30ee:	2301      	movs	r3, #1
    30f0:	4667      	mov	r7, r12
    30f2:	403b      	ands	r3, r7
    30f4:	22ff      	movs	r2, #255	; 0xff
    30f6:	2600      	movs	r6, #0
    30f8:	0276      	lsls	r6, r6, #9
    30fa:	05d2      	lsls	r2, r2, #23
    30fc:	0a70      	lsrs	r0, r6, #9
    30fe:	07db      	lsls	r3, r3, #31
    3100:	4310      	orrs	r0, r2
    3102:	4318      	orrs	r0, r3
    3104:	b005      	add	sp, #20
    3106:	bc3c      	pop	{r2, r3, r4, r5}
    3108:	4690      	mov	r8, r2
    310a:	4699      	mov	r9, r3
    310c:	46a2      	mov	r10, r4
    310e:	46ab      	mov	r11, r5
    3110:	bdf0      	pop	{r4, r5, r6, r7, pc}
    3112:	2680      	movs	r6, #128	; 0x80
    3114:	2300      	movs	r3, #0
    3116:	03f6      	lsls	r6, r6, #15
    3118:	22ff      	movs	r2, #255	; 0xff
    311a:	e7ed      	b.n	30f8 <__aeabi_fdiv+0x108>
    311c:	2200      	movs	r2, #0
    311e:	2600      	movs	r6, #0
    3120:	e7ea      	b.n	30f8 <__aeabi_fdiv+0x108>
    3122:	2080      	movs	r0, #128	; 0x80
    3124:	03c0      	lsls	r0, r0, #15
    3126:	4206      	tst	r6, r0
    3128:	d03b      	beq.n	31a2 <__aeabi_fdiv+0x1b2>
    312a:	4204      	tst	r4, r0
    312c:	d139      	bne.n	31a2 <__aeabi_fdiv+0x1b2>
    312e:	1c06      	adds	r6, r0, #0
    3130:	4326      	orrs	r6, r4
    3132:	0276      	lsls	r6, r6, #9
    3134:	0a76      	lsrs	r6, r6, #9
    3136:	9b00      	ldr	r3, [sp, #0]
    3138:	22ff      	movs	r2, #255	; 0xff
    313a:	e7dd      	b.n	30f8 <__aeabi_fdiv+0x108>
    313c:	1a28      	subs	r0, r5, r0
    313e:	9003      	str	r0, [sp, #12]
    3140:	0176      	lsls	r6, r6, #5
    3142:	0164      	lsls	r4, r4, #5
    3144:	42a6      	cmp	r6, r4
    3146:	d339      	bcc.n	31bc <__aeabi_fdiv+0x1cc>
    3148:	1b36      	subs	r6, r6, r4
    314a:	221a      	movs	r2, #26
    314c:	2301      	movs	r3, #1
    314e:	2001      	movs	r0, #1
    3150:	1c31      	adds	r1, r6, #0
    3152:	005b      	lsls	r3, r3, #1
    3154:	0076      	lsls	r6, r6, #1
    3156:	2900      	cmp	r1, #0
    3158:	db01      	blt.n	315e <__aeabi_fdiv+0x16e>
    315a:	42b4      	cmp	r4, r6
    315c:	d801      	bhi.n	3162 <__aeabi_fdiv+0x172>
    315e:	1b36      	subs	r6, r6, r4
    3160:	4303      	orrs	r3, r0
    3162:	3a01      	subs	r2, #1
    3164:	2a00      	cmp	r2, #0
    3166:	dcf3      	bgt.n	3150 <__aeabi_fdiv+0x160>
    3168:	1e74      	subs	r4, r6, #1
    316a:	41a6      	sbcs	r6, r4
    316c:	1c34      	adds	r4, r6, #0
    316e:	431c      	orrs	r4, r3
    3170:	9a03      	ldr	r2, [sp, #12]
    3172:	327f      	adds	r2, #127	; 0x7f
    3174:	2a00      	cmp	r2, #0
    3176:	dd27      	ble.n	31c8 <__aeabi_fdiv+0x1d8>
    3178:	0763      	lsls	r3, r4, #29
    317a:	d004      	beq.n	3186 <__aeabi_fdiv+0x196>
    317c:	230f      	movs	r3, #15
    317e:	4023      	ands	r3, r4
    3180:	2b04      	cmp	r3, #4
    3182:	d000      	beq.n	3186 <__aeabi_fdiv+0x196>
    3184:	3404      	adds	r4, #4
    3186:	0127      	lsls	r7, r4, #4
    3188:	d503      	bpl.n	3192 <__aeabi_fdiv+0x1a2>
    318a:	4b2b      	ldr	r3, [pc, #172]	; (3238 <__aeabi_fdiv+0x248>)
    318c:	9a03      	ldr	r2, [sp, #12]
    318e:	401c      	ands	r4, r3
    3190:	3280      	adds	r2, #128	; 0x80
    3192:	2afe      	cmp	r2, #254	; 0xfe
    3194:	dd0b      	ble.n	31ae <__aeabi_fdiv+0x1be>
    3196:	2301      	movs	r3, #1
    3198:	4661      	mov	r1, r12
    319a:	400b      	ands	r3, r1
    319c:	22ff      	movs	r2, #255	; 0xff
    319e:	2600      	movs	r6, #0
    31a0:	e7aa      	b.n	30f8 <__aeabi_fdiv+0x108>
    31a2:	4306      	orrs	r6, r0
    31a4:	0276      	lsls	r6, r6, #9
    31a6:	0a76      	lsrs	r6, r6, #9
    31a8:	4643      	mov	r3, r8
    31aa:	22ff      	movs	r2, #255	; 0xff
    31ac:	e7a4      	b.n	30f8 <__aeabi_fdiv+0x108>
    31ae:	01a4      	lsls	r4, r4, #6
    31b0:	2301      	movs	r3, #1
    31b2:	4667      	mov	r7, r12
    31b4:	0a66      	lsrs	r6, r4, #9
    31b6:	b2d2      	uxtb	r2, r2
    31b8:	403b      	ands	r3, r7
    31ba:	e79d      	b.n	30f8 <__aeabi_fdiv+0x108>
    31bc:	9f03      	ldr	r7, [sp, #12]
    31be:	221b      	movs	r2, #27
    31c0:	3f01      	subs	r7, #1
    31c2:	9703      	str	r7, [sp, #12]
    31c4:	2300      	movs	r3, #0
    31c6:	e7c2      	b.n	314e <__aeabi_fdiv+0x15e>
    31c8:	237e      	movs	r3, #126	; 0x7e
    31ca:	9f03      	ldr	r7, [sp, #12]
    31cc:	425b      	negs	r3, r3
    31ce:	1bdb      	subs	r3, r3, r7
    31d0:	2b1b      	cmp	r3, #27
    31d2:	dd07      	ble.n	31e4 <__aeabi_fdiv+0x1f4>
    31d4:	2301      	movs	r3, #1
    31d6:	4661      	mov	r1, r12
    31d8:	400b      	ands	r3, r1
    31da:	2200      	movs	r2, #0
    31dc:	2600      	movs	r6, #0
    31de:	e78b      	b.n	30f8 <__aeabi_fdiv+0x108>
    31e0:	46d4      	mov	r12, r10
    31e2:	e7c5      	b.n	3170 <__aeabi_fdiv+0x180>
    31e4:	1c22      	adds	r2, r4, #0
    31e6:	40da      	lsrs	r2, r3
    31e8:	9b03      	ldr	r3, [sp, #12]
    31ea:	339e      	adds	r3, #158	; 0x9e
    31ec:	409c      	lsls	r4, r3
    31ee:	1c23      	adds	r3, r4, #0
    31f0:	1e5c      	subs	r4, r3, #1
    31f2:	41a3      	sbcs	r3, r4
    31f4:	4313      	orrs	r3, r2
    31f6:	075a      	lsls	r2, r3, #29
    31f8:	d004      	beq.n	3204 <__aeabi_fdiv+0x214>
    31fa:	220f      	movs	r2, #15
    31fc:	401a      	ands	r2, r3
    31fe:	2a04      	cmp	r2, #4
    3200:	d000      	beq.n	3204 <__aeabi_fdiv+0x214>
    3202:	3304      	adds	r3, #4
    3204:	015f      	lsls	r7, r3, #5
    3206:	d505      	bpl.n	3214 <__aeabi_fdiv+0x224>
    3208:	2301      	movs	r3, #1
    320a:	4661      	mov	r1, r12
    320c:	400b      	ands	r3, r1
    320e:	2201      	movs	r2, #1
    3210:	2600      	movs	r6, #0
    3212:	e771      	b.n	30f8 <__aeabi_fdiv+0x108>
    3214:	019e      	lsls	r6, r3, #6
    3216:	4662      	mov	r2, r12
    3218:	2301      	movs	r3, #1
    321a:	4013      	ands	r3, r2
    321c:	0a76      	lsrs	r6, r6, #9
    321e:	2200      	movs	r2, #0
    3220:	e76a      	b.n	30f8 <__aeabi_fdiv+0x108>
    3222:	2680      	movs	r6, #128	; 0x80
    3224:	03f6      	lsls	r6, r6, #15
    3226:	4326      	orrs	r6, r4
    3228:	0276      	lsls	r6, r6, #9
    322a:	0a76      	lsrs	r6, r6, #9
    322c:	4653      	mov	r3, r10
    322e:	22ff      	movs	r2, #255	; 0xff
    3230:	e762      	b.n	30f8 <__aeabi_fdiv+0x108>
    3232:	46c0      	nop			; (mov r8, r8)
    3234:	00007ad0 	.word	0x00007ad0
    3238:	f7ffffff 	.word	0xf7ffffff

0000323c <__eqsf2>:
    323c:	024a      	lsls	r2, r1, #9
    323e:	0243      	lsls	r3, r0, #9
    3240:	b570      	push	{r4, r5, r6, lr}
    3242:	0a5c      	lsrs	r4, r3, #9
    3244:	0a55      	lsrs	r5, r2, #9
    3246:	0043      	lsls	r3, r0, #1
    3248:	004a      	lsls	r2, r1, #1
    324a:	0e1b      	lsrs	r3, r3, #24
    324c:	0fc6      	lsrs	r6, r0, #31
    324e:	0e12      	lsrs	r2, r2, #24
    3250:	0fc9      	lsrs	r1, r1, #31
    3252:	2bff      	cmp	r3, #255	; 0xff
    3254:	d005      	beq.n	3262 <__eqsf2+0x26>
    3256:	2aff      	cmp	r2, #255	; 0xff
    3258:	d008      	beq.n	326c <__eqsf2+0x30>
    325a:	2001      	movs	r0, #1
    325c:	4293      	cmp	r3, r2
    325e:	d00b      	beq.n	3278 <__eqsf2+0x3c>
    3260:	bd70      	pop	{r4, r5, r6, pc}
    3262:	2001      	movs	r0, #1
    3264:	2c00      	cmp	r4, #0
    3266:	d1fb      	bne.n	3260 <__eqsf2+0x24>
    3268:	2aff      	cmp	r2, #255	; 0xff
    326a:	d1f6      	bne.n	325a <__eqsf2+0x1e>
    326c:	2001      	movs	r0, #1
    326e:	2d00      	cmp	r5, #0
    3270:	d1f6      	bne.n	3260 <__eqsf2+0x24>
    3272:	2001      	movs	r0, #1
    3274:	4293      	cmp	r3, r2
    3276:	d1f3      	bne.n	3260 <__eqsf2+0x24>
    3278:	42ac      	cmp	r4, r5
    327a:	d1f1      	bne.n	3260 <__eqsf2+0x24>
    327c:	428e      	cmp	r6, r1
    327e:	d005      	beq.n	328c <__eqsf2+0x50>
    3280:	2b00      	cmp	r3, #0
    3282:	d1ed      	bne.n	3260 <__eqsf2+0x24>
    3284:	1c20      	adds	r0, r4, #0
    3286:	1e44      	subs	r4, r0, #1
    3288:	41a0      	sbcs	r0, r4
    328a:	e7e9      	b.n	3260 <__eqsf2+0x24>
    328c:	2000      	movs	r0, #0
    328e:	e7e7      	b.n	3260 <__eqsf2+0x24>

00003290 <__gesf2>:
    3290:	024a      	lsls	r2, r1, #9
    3292:	0243      	lsls	r3, r0, #9
    3294:	b5f0      	push	{r4, r5, r6, r7, lr}
    3296:	0a5c      	lsrs	r4, r3, #9
    3298:	0a55      	lsrs	r5, r2, #9
    329a:	0043      	lsls	r3, r0, #1
    329c:	004a      	lsls	r2, r1, #1
    329e:	0e1b      	lsrs	r3, r3, #24
    32a0:	0fc6      	lsrs	r6, r0, #31
    32a2:	0e12      	lsrs	r2, r2, #24
    32a4:	0fc9      	lsrs	r1, r1, #31
    32a6:	2bff      	cmp	r3, #255	; 0xff
    32a8:	d031      	beq.n	330e <__gesf2+0x7e>
    32aa:	2aff      	cmp	r2, #255	; 0xff
    32ac:	d034      	beq.n	3318 <__gesf2+0x88>
    32ae:	2b00      	cmp	r3, #0
    32b0:	d116      	bne.n	32e0 <__gesf2+0x50>
    32b2:	4260      	negs	r0, r4
    32b4:	4160      	adcs	r0, r4
    32b6:	4684      	mov	r12, r0
    32b8:	2a00      	cmp	r2, #0
    32ba:	d014      	beq.n	32e6 <__gesf2+0x56>
    32bc:	2800      	cmp	r0, #0
    32be:	d120      	bne.n	3302 <__gesf2+0x72>
    32c0:	428e      	cmp	r6, r1
    32c2:	d117      	bne.n	32f4 <__gesf2+0x64>
    32c4:	4293      	cmp	r3, r2
    32c6:	dc15      	bgt.n	32f4 <__gesf2+0x64>
    32c8:	db04      	blt.n	32d4 <__gesf2+0x44>
    32ca:	42ac      	cmp	r4, r5
    32cc:	d812      	bhi.n	32f4 <__gesf2+0x64>
    32ce:	2000      	movs	r0, #0
    32d0:	42ac      	cmp	r4, r5
    32d2:	d212      	bcs.n	32fa <__gesf2+0x6a>
    32d4:	4270      	negs	r0, r6
    32d6:	4170      	adcs	r0, r6
    32d8:	4240      	negs	r0, r0
    32da:	2301      	movs	r3, #1
    32dc:	4318      	orrs	r0, r3
    32de:	e00c      	b.n	32fa <__gesf2+0x6a>
    32e0:	2a00      	cmp	r2, #0
    32e2:	d1ed      	bne.n	32c0 <__gesf2+0x30>
    32e4:	4694      	mov	r12, r2
    32e6:	426f      	negs	r7, r5
    32e8:	416f      	adcs	r7, r5
    32ea:	4660      	mov	r0, r12
    32ec:	2800      	cmp	r0, #0
    32ee:	d105      	bne.n	32fc <__gesf2+0x6c>
    32f0:	2f00      	cmp	r7, #0
    32f2:	d0e5      	beq.n	32c0 <__gesf2+0x30>
    32f4:	4270      	negs	r0, r6
    32f6:	2301      	movs	r3, #1
    32f8:	4318      	orrs	r0, r3
    32fa:	bdf0      	pop	{r4, r5, r6, r7, pc}
    32fc:	2000      	movs	r0, #0
    32fe:	2f00      	cmp	r7, #0
    3300:	d1fb      	bne.n	32fa <__gesf2+0x6a>
    3302:	4248      	negs	r0, r1
    3304:	4148      	adcs	r0, r1
    3306:	4240      	negs	r0, r0
    3308:	2301      	movs	r3, #1
    330a:	4318      	orrs	r0, r3
    330c:	e7f5      	b.n	32fa <__gesf2+0x6a>
    330e:	2c00      	cmp	r4, #0
    3310:	d0cb      	beq.n	32aa <__gesf2+0x1a>
    3312:	2002      	movs	r0, #2
    3314:	4240      	negs	r0, r0
    3316:	e7f0      	b.n	32fa <__gesf2+0x6a>
    3318:	2d00      	cmp	r5, #0
    331a:	d0c8      	beq.n	32ae <__gesf2+0x1e>
    331c:	e7f9      	b.n	3312 <__gesf2+0x82>
    331e:	46c0      	nop			; (mov r8, r8)

00003320 <__lesf2>:
    3320:	024a      	lsls	r2, r1, #9
    3322:	0243      	lsls	r3, r0, #9
    3324:	b5f0      	push	{r4, r5, r6, r7, lr}
    3326:	0a5c      	lsrs	r4, r3, #9
    3328:	0a55      	lsrs	r5, r2, #9
    332a:	0043      	lsls	r3, r0, #1
    332c:	004a      	lsls	r2, r1, #1
    332e:	0e1b      	lsrs	r3, r3, #24
    3330:	0fc6      	lsrs	r6, r0, #31
    3332:	0e12      	lsrs	r2, r2, #24
    3334:	0fc9      	lsrs	r1, r1, #31
    3336:	2bff      	cmp	r3, #255	; 0xff
    3338:	d027      	beq.n	338a <__lesf2+0x6a>
    333a:	2aff      	cmp	r2, #255	; 0xff
    333c:	d029      	beq.n	3392 <__lesf2+0x72>
    333e:	2b00      	cmp	r3, #0
    3340:	d010      	beq.n	3364 <__lesf2+0x44>
    3342:	2a00      	cmp	r2, #0
    3344:	d115      	bne.n	3372 <__lesf2+0x52>
    3346:	4694      	mov	r12, r2
    3348:	426f      	negs	r7, r5
    334a:	416f      	adcs	r7, r5
    334c:	4660      	mov	r0, r12
    334e:	2800      	cmp	r0, #0
    3350:	d015      	beq.n	337e <__lesf2+0x5e>
    3352:	2000      	movs	r0, #0
    3354:	2f00      	cmp	r7, #0
    3356:	d104      	bne.n	3362 <__lesf2+0x42>
    3358:	4248      	negs	r0, r1
    335a:	4148      	adcs	r0, r1
    335c:	4240      	negs	r0, r0
    335e:	2301      	movs	r3, #1
    3360:	4318      	orrs	r0, r3
    3362:	bdf0      	pop	{r4, r5, r6, r7, pc}
    3364:	4260      	negs	r0, r4
    3366:	4160      	adcs	r0, r4
    3368:	4684      	mov	r12, r0
    336a:	2a00      	cmp	r2, #0
    336c:	d0ec      	beq.n	3348 <__lesf2+0x28>
    336e:	2800      	cmp	r0, #0
    3370:	d1f2      	bne.n	3358 <__lesf2+0x38>
    3372:	428e      	cmp	r6, r1
    3374:	d011      	beq.n	339a <__lesf2+0x7a>
    3376:	4270      	negs	r0, r6
    3378:	2301      	movs	r3, #1
    337a:	4318      	orrs	r0, r3
    337c:	e7f1      	b.n	3362 <__lesf2+0x42>
    337e:	2f00      	cmp	r7, #0
    3380:	d0f7      	beq.n	3372 <__lesf2+0x52>
    3382:	4270      	negs	r0, r6
    3384:	2301      	movs	r3, #1
    3386:	4318      	orrs	r0, r3
    3388:	e7eb      	b.n	3362 <__lesf2+0x42>
    338a:	2002      	movs	r0, #2
    338c:	2c00      	cmp	r4, #0
    338e:	d1e8      	bne.n	3362 <__lesf2+0x42>
    3390:	e7d3      	b.n	333a <__lesf2+0x1a>
    3392:	2002      	movs	r0, #2
    3394:	2d00      	cmp	r5, #0
    3396:	d1e4      	bne.n	3362 <__lesf2+0x42>
    3398:	e7d1      	b.n	333e <__lesf2+0x1e>
    339a:	4293      	cmp	r3, r2
    339c:	dceb      	bgt.n	3376 <__lesf2+0x56>
    339e:	db04      	blt.n	33aa <__lesf2+0x8a>
    33a0:	42ac      	cmp	r4, r5
    33a2:	d8e8      	bhi.n	3376 <__lesf2+0x56>
    33a4:	2000      	movs	r0, #0
    33a6:	42ac      	cmp	r4, r5
    33a8:	d2db      	bcs.n	3362 <__lesf2+0x42>
    33aa:	4270      	negs	r0, r6
    33ac:	4170      	adcs	r0, r6
    33ae:	4240      	negs	r0, r0
    33b0:	2301      	movs	r3, #1
    33b2:	4318      	orrs	r0, r3
    33b4:	e7d5      	b.n	3362 <__lesf2+0x42>
    33b6:	46c0      	nop			; (mov r8, r8)

000033b8 <__aeabi_fmul>:
    33b8:	b5f0      	push	{r4, r5, r6, r7, lr}
    33ba:	465f      	mov	r7, r11
    33bc:	4656      	mov	r6, r10
    33be:	464d      	mov	r5, r9
    33c0:	4644      	mov	r4, r8
    33c2:	b4f0      	push	{r4, r5, r6, r7}
    33c4:	0244      	lsls	r4, r0, #9
    33c6:	0046      	lsls	r6, r0, #1
    33c8:	b083      	sub	sp, #12
    33ca:	1c0f      	adds	r7, r1, #0
    33cc:	0a64      	lsrs	r4, r4, #9
    33ce:	0e36      	lsrs	r6, r6, #24
    33d0:	0fc5      	lsrs	r5, r0, #31
    33d2:	2e00      	cmp	r6, #0
    33d4:	d041      	beq.n	345a <__aeabi_fmul+0xa2>
    33d6:	2eff      	cmp	r6, #255	; 0xff
    33d8:	d022      	beq.n	3420 <__aeabi_fmul+0x68>
    33da:	2380      	movs	r3, #128	; 0x80
    33dc:	041b      	lsls	r3, r3, #16
    33de:	2000      	movs	r0, #0
    33e0:	431c      	orrs	r4, r3
    33e2:	00e4      	lsls	r4, r4, #3
    33e4:	3e7f      	subs	r6, #127	; 0x7f
    33e6:	4682      	mov	r10, r0
    33e8:	4680      	mov	r8, r0
    33ea:	1c39      	adds	r1, r7, #0
    33ec:	004b      	lsls	r3, r1, #1
    33ee:	027f      	lsls	r7, r7, #9
    33f0:	0fc9      	lsrs	r1, r1, #31
    33f2:	0a7f      	lsrs	r7, r7, #9
    33f4:	0e1b      	lsrs	r3, r3, #24
    33f6:	468b      	mov	r11, r1
    33f8:	d03b      	beq.n	3472 <__aeabi_fmul+0xba>
    33fa:	2bff      	cmp	r3, #255	; 0xff
    33fc:	d034      	beq.n	3468 <__aeabi_fmul+0xb0>
    33fe:	2280      	movs	r2, #128	; 0x80
    3400:	0412      	lsls	r2, r2, #16
    3402:	4317      	orrs	r7, r2
    3404:	00ff      	lsls	r7, r7, #3
    3406:	3b7f      	subs	r3, #127	; 0x7f
    3408:	2100      	movs	r1, #0
    340a:	465a      	mov	r2, r11
    340c:	406a      	eors	r2, r5
    340e:	9201      	str	r2, [sp, #4]
    3410:	4652      	mov	r2, r10
    3412:	430a      	orrs	r2, r1
    3414:	2a0f      	cmp	r2, #15
    3416:	d863      	bhi.n	34e0 <__aeabi_fmul+0x128>
    3418:	487a      	ldr	r0, [pc, #488]	; (3604 <__aeabi_fmul+0x24c>)
    341a:	0092      	lsls	r2, r2, #2
    341c:	5882      	ldr	r2, [r0, r2]
    341e:	4697      	mov	pc, r2
    3420:	2c00      	cmp	r4, #0
    3422:	d13f      	bne.n	34a4 <__aeabi_fmul+0xec>
    3424:	2208      	movs	r2, #8
    3426:	2302      	movs	r3, #2
    3428:	4692      	mov	r10, r2
    342a:	4698      	mov	r8, r3
    342c:	e7dd      	b.n	33ea <__aeabi_fmul+0x32>
    342e:	9501      	str	r5, [sp, #4]
    3430:	4640      	mov	r0, r8
    3432:	2802      	cmp	r0, #2
    3434:	d12a      	bne.n	348c <__aeabi_fmul+0xd4>
    3436:	9a01      	ldr	r2, [sp, #4]
    3438:	2501      	movs	r5, #1
    343a:	4015      	ands	r5, r2
    343c:	23ff      	movs	r3, #255	; 0xff
    343e:	2400      	movs	r4, #0
    3440:	0264      	lsls	r4, r4, #9
    3442:	05db      	lsls	r3, r3, #23
    3444:	0a60      	lsrs	r0, r4, #9
    3446:	07ed      	lsls	r5, r5, #31
    3448:	4318      	orrs	r0, r3
    344a:	4328      	orrs	r0, r5
    344c:	b003      	add	sp, #12
    344e:	bc3c      	pop	{r2, r3, r4, r5}
    3450:	4690      	mov	r8, r2
    3452:	4699      	mov	r9, r3
    3454:	46a2      	mov	r10, r4
    3456:	46ab      	mov	r11, r5
    3458:	bdf0      	pop	{r4, r5, r6, r7, pc}
    345a:	2c00      	cmp	r4, #0
    345c:	d127      	bne.n	34ae <__aeabi_fmul+0xf6>
    345e:	2004      	movs	r0, #4
    3460:	2201      	movs	r2, #1
    3462:	4682      	mov	r10, r0
    3464:	4690      	mov	r8, r2
    3466:	e7c0      	b.n	33ea <__aeabi_fmul+0x32>
    3468:	1c39      	adds	r1, r7, #0
    346a:	1e4a      	subs	r2, r1, #1
    346c:	4191      	sbcs	r1, r2
    346e:	3102      	adds	r1, #2
    3470:	e7cb      	b.n	340a <__aeabi_fmul+0x52>
    3472:	2101      	movs	r1, #1
    3474:	2f00      	cmp	r7, #0
    3476:	d0c8      	beq.n	340a <__aeabi_fmul+0x52>
    3478:	1c38      	adds	r0, r7, #0
    347a:	f002 f921 	bl	56c0 <__clzsi2>
    347e:	1f43      	subs	r3, r0, #5
    3480:	409f      	lsls	r7, r3
    3482:	2376      	movs	r3, #118	; 0x76
    3484:	425b      	negs	r3, r3
    3486:	1a1b      	subs	r3, r3, r0
    3488:	2100      	movs	r1, #0
    348a:	e7be      	b.n	340a <__aeabi_fmul+0x52>
    348c:	2803      	cmp	r0, #3
    348e:	d100      	bne.n	3492 <__aeabi_fmul+0xda>
    3490:	e0ae      	b.n	35f0 <__aeabi_fmul+0x238>
    3492:	2801      	cmp	r0, #1
    3494:	d14f      	bne.n	3536 <__aeabi_fmul+0x17e>
    3496:	9801      	ldr	r0, [sp, #4]
    3498:	4642      	mov	r2, r8
    349a:	4010      	ands	r0, r2
    349c:	b2c5      	uxtb	r5, r0
    349e:	2300      	movs	r3, #0
    34a0:	2400      	movs	r4, #0
    34a2:	e7cd      	b.n	3440 <__aeabi_fmul+0x88>
    34a4:	230c      	movs	r3, #12
    34a6:	2003      	movs	r0, #3
    34a8:	469a      	mov	r10, r3
    34aa:	4680      	mov	r8, r0
    34ac:	e79d      	b.n	33ea <__aeabi_fmul+0x32>
    34ae:	1c20      	adds	r0, r4, #0
    34b0:	f002 f906 	bl	56c0 <__clzsi2>
    34b4:	2676      	movs	r6, #118	; 0x76
    34b6:	1f43      	subs	r3, r0, #5
    34b8:	409c      	lsls	r4, r3
    34ba:	4276      	negs	r6, r6
    34bc:	2300      	movs	r3, #0
    34be:	1a36      	subs	r6, r6, r0
    34c0:	469a      	mov	r10, r3
    34c2:	4698      	mov	r8, r3
    34c4:	e791      	b.n	33ea <__aeabi_fmul+0x32>
    34c6:	2480      	movs	r4, #128	; 0x80
    34c8:	2500      	movs	r5, #0
    34ca:	03e4      	lsls	r4, r4, #15
    34cc:	23ff      	movs	r3, #255	; 0xff
    34ce:	e7b7      	b.n	3440 <__aeabi_fmul+0x88>
    34d0:	465b      	mov	r3, r11
    34d2:	1c3c      	adds	r4, r7, #0
    34d4:	9301      	str	r3, [sp, #4]
    34d6:	4688      	mov	r8, r1
    34d8:	e7aa      	b.n	3430 <__aeabi_fmul+0x78>
    34da:	1c3c      	adds	r4, r7, #0
    34dc:	4688      	mov	r8, r1
    34de:	e7a7      	b.n	3430 <__aeabi_fmul+0x78>
    34e0:	0c25      	lsrs	r5, r4, #16
    34e2:	0424      	lsls	r4, r4, #16
    34e4:	0c3a      	lsrs	r2, r7, #16
    34e6:	0c24      	lsrs	r4, r4, #16
    34e8:	043f      	lsls	r7, r7, #16
    34ea:	18f6      	adds	r6, r6, r3
    34ec:	0c3f      	lsrs	r7, r7, #16
    34ee:	1c21      	adds	r1, r4, #0
    34f0:	1c23      	adds	r3, r4, #0
    34f2:	4379      	muls	r1, r7
    34f4:	4353      	muls	r3, r2
    34f6:	436f      	muls	r7, r5
    34f8:	4355      	muls	r5, r2
    34fa:	18fb      	adds	r3, r7, r3
    34fc:	0c0a      	lsrs	r2, r1, #16
    34fe:	189b      	adds	r3, r3, r2
    3500:	46b1      	mov	r9, r6
    3502:	429f      	cmp	r7, r3
    3504:	d902      	bls.n	350c <__aeabi_fmul+0x154>
    3506:	2280      	movs	r2, #128	; 0x80
    3508:	0252      	lsls	r2, r2, #9
    350a:	18ad      	adds	r5, r5, r2
    350c:	0409      	lsls	r1, r1, #16
    350e:	041a      	lsls	r2, r3, #16
    3510:	0c09      	lsrs	r1, r1, #16
    3512:	1852      	adds	r2, r2, r1
    3514:	0194      	lsls	r4, r2, #6
    3516:	0c1b      	lsrs	r3, r3, #16
    3518:	1e61      	subs	r1, r4, #1
    351a:	418c      	sbcs	r4, r1
    351c:	0e92      	lsrs	r2, r2, #26
    351e:	18ed      	adds	r5, r5, r3
    3520:	4314      	orrs	r4, r2
    3522:	01ad      	lsls	r5, r5, #6
    3524:	432c      	orrs	r4, r5
    3526:	0123      	lsls	r3, r4, #4
    3528:	d505      	bpl.n	3536 <__aeabi_fmul+0x17e>
    352a:	2201      	movs	r2, #1
    352c:	0863      	lsrs	r3, r4, #1
    352e:	2001      	movs	r0, #1
    3530:	4014      	ands	r4, r2
    3532:	4481      	add	r9, r0
    3534:	431c      	orrs	r4, r3
    3536:	464b      	mov	r3, r9
    3538:	337f      	adds	r3, #127	; 0x7f
    353a:	2b00      	cmp	r3, #0
    353c:	dd2d      	ble.n	359a <__aeabi_fmul+0x1e2>
    353e:	0760      	lsls	r0, r4, #29
    3540:	d004      	beq.n	354c <__aeabi_fmul+0x194>
    3542:	220f      	movs	r2, #15
    3544:	4022      	ands	r2, r4
    3546:	2a04      	cmp	r2, #4
    3548:	d000      	beq.n	354c <__aeabi_fmul+0x194>
    354a:	3404      	adds	r4, #4
    354c:	0122      	lsls	r2, r4, #4
    354e:	d503      	bpl.n	3558 <__aeabi_fmul+0x1a0>
    3550:	4b2d      	ldr	r3, [pc, #180]	; (3608 <__aeabi_fmul+0x250>)
    3552:	401c      	ands	r4, r3
    3554:	464b      	mov	r3, r9
    3556:	3380      	adds	r3, #128	; 0x80
    3558:	2bfe      	cmp	r3, #254	; 0xfe
    355a:	dd17      	ble.n	358c <__aeabi_fmul+0x1d4>
    355c:	9b01      	ldr	r3, [sp, #4]
    355e:	2501      	movs	r5, #1
    3560:	401d      	ands	r5, r3
    3562:	2400      	movs	r4, #0
    3564:	23ff      	movs	r3, #255	; 0xff
    3566:	e76b      	b.n	3440 <__aeabi_fmul+0x88>
    3568:	2080      	movs	r0, #128	; 0x80
    356a:	03c0      	lsls	r0, r0, #15
    356c:	4204      	tst	r4, r0
    356e:	d008      	beq.n	3582 <__aeabi_fmul+0x1ca>
    3570:	4207      	tst	r7, r0
    3572:	d106      	bne.n	3582 <__aeabi_fmul+0x1ca>
    3574:	1c04      	adds	r4, r0, #0
    3576:	433c      	orrs	r4, r7
    3578:	0264      	lsls	r4, r4, #9
    357a:	0a64      	lsrs	r4, r4, #9
    357c:	465d      	mov	r5, r11
    357e:	23ff      	movs	r3, #255	; 0xff
    3580:	e75e      	b.n	3440 <__aeabi_fmul+0x88>
    3582:	4304      	orrs	r4, r0
    3584:	0264      	lsls	r4, r4, #9
    3586:	0a64      	lsrs	r4, r4, #9
    3588:	23ff      	movs	r3, #255	; 0xff
    358a:	e759      	b.n	3440 <__aeabi_fmul+0x88>
    358c:	9801      	ldr	r0, [sp, #4]
    358e:	01a4      	lsls	r4, r4, #6
    3590:	2501      	movs	r5, #1
    3592:	0a64      	lsrs	r4, r4, #9
    3594:	b2db      	uxtb	r3, r3
    3596:	4005      	ands	r5, r0
    3598:	e752      	b.n	3440 <__aeabi_fmul+0x88>
    359a:	237e      	movs	r3, #126	; 0x7e
    359c:	425b      	negs	r3, r3
    359e:	464a      	mov	r2, r9
    35a0:	1a9b      	subs	r3, r3, r2
    35a2:	2b1b      	cmp	r3, #27
    35a4:	dd05      	ble.n	35b2 <__aeabi_fmul+0x1fa>
    35a6:	9b01      	ldr	r3, [sp, #4]
    35a8:	2501      	movs	r5, #1
    35aa:	401d      	ands	r5, r3
    35ac:	2400      	movs	r4, #0
    35ae:	2300      	movs	r3, #0
    35b0:	e746      	b.n	3440 <__aeabi_fmul+0x88>
    35b2:	1c22      	adds	r2, r4, #0
    35b4:	40da      	lsrs	r2, r3
    35b6:	464b      	mov	r3, r9
    35b8:	339e      	adds	r3, #158	; 0x9e
    35ba:	409c      	lsls	r4, r3
    35bc:	1c23      	adds	r3, r4, #0
    35be:	1e5c      	subs	r4, r3, #1
    35c0:	41a3      	sbcs	r3, r4
    35c2:	4313      	orrs	r3, r2
    35c4:	0758      	lsls	r0, r3, #29
    35c6:	d004      	beq.n	35d2 <__aeabi_fmul+0x21a>
    35c8:	220f      	movs	r2, #15
    35ca:	401a      	ands	r2, r3
    35cc:	2a04      	cmp	r2, #4
    35ce:	d000      	beq.n	35d2 <__aeabi_fmul+0x21a>
    35d0:	3304      	adds	r3, #4
    35d2:	015a      	lsls	r2, r3, #5
    35d4:	d505      	bpl.n	35e2 <__aeabi_fmul+0x22a>
    35d6:	9b01      	ldr	r3, [sp, #4]
    35d8:	2501      	movs	r5, #1
    35da:	401d      	ands	r5, r3
    35dc:	2400      	movs	r4, #0
    35de:	2301      	movs	r3, #1
    35e0:	e72e      	b.n	3440 <__aeabi_fmul+0x88>
    35e2:	9801      	ldr	r0, [sp, #4]
    35e4:	019c      	lsls	r4, r3, #6
    35e6:	2501      	movs	r5, #1
    35e8:	0a64      	lsrs	r4, r4, #9
    35ea:	4005      	ands	r5, r0
    35ec:	2300      	movs	r3, #0
    35ee:	e727      	b.n	3440 <__aeabi_fmul+0x88>
    35f0:	2780      	movs	r7, #128	; 0x80
    35f2:	03ff      	lsls	r7, r7, #15
    35f4:	9b01      	ldr	r3, [sp, #4]
    35f6:	433c      	orrs	r4, r7
    35f8:	0264      	lsls	r4, r4, #9
    35fa:	2501      	movs	r5, #1
    35fc:	401d      	ands	r5, r3
    35fe:	0a64      	lsrs	r4, r4, #9
    3600:	23ff      	movs	r3, #255	; 0xff
    3602:	e71d      	b.n	3440 <__aeabi_fmul+0x88>
    3604:	00007b10 	.word	0x00007b10
    3608:	f7ffffff 	.word	0xf7ffffff

0000360c <__aeabi_fsub>:
    360c:	b5f8      	push	{r3, r4, r5, r6, r7, lr}
    360e:	0fc2      	lsrs	r2, r0, #31
    3610:	0243      	lsls	r3, r0, #9
    3612:	0044      	lsls	r4, r0, #1
    3614:	024d      	lsls	r5, r1, #9
    3616:	0048      	lsls	r0, r1, #1
    3618:	0e24      	lsrs	r4, r4, #24
    361a:	1c16      	adds	r6, r2, #0
    361c:	099b      	lsrs	r3, r3, #6
    361e:	0e00      	lsrs	r0, r0, #24
    3620:	0fc9      	lsrs	r1, r1, #31
    3622:	09ad      	lsrs	r5, r5, #6
    3624:	28ff      	cmp	r0, #255	; 0xff
    3626:	d100      	bne.n	362a <__aeabi_fsub+0x1e>
    3628:	e07e      	b.n	3728 <__aeabi_fsub+0x11c>
    362a:	2701      	movs	r7, #1
    362c:	4079      	eors	r1, r7
    362e:	428a      	cmp	r2, r1
    3630:	d058      	beq.n	36e4 <__aeabi_fsub+0xd8>
    3632:	1a22      	subs	r2, r4, r0
    3634:	2a00      	cmp	r2, #0
    3636:	dc00      	bgt.n	363a <__aeabi_fsub+0x2e>
    3638:	e089      	b.n	374e <__aeabi_fsub+0x142>
    363a:	2800      	cmp	r0, #0
    363c:	d11b      	bne.n	3676 <__aeabi_fsub+0x6a>
    363e:	2d00      	cmp	r5, #0
    3640:	d000      	beq.n	3644 <__aeabi_fsub+0x38>
    3642:	e075      	b.n	3730 <__aeabi_fsub+0x124>
    3644:	0758      	lsls	r0, r3, #29
    3646:	d004      	beq.n	3652 <__aeabi_fsub+0x46>
    3648:	220f      	movs	r2, #15
    364a:	401a      	ands	r2, r3
    364c:	2a04      	cmp	r2, #4
    364e:	d000      	beq.n	3652 <__aeabi_fsub+0x46>
    3650:	3304      	adds	r3, #4
    3652:	0159      	lsls	r1, r3, #5
    3654:	d538      	bpl.n	36c8 <__aeabi_fsub+0xbc>
    3656:	3401      	adds	r4, #1
    3658:	2cff      	cmp	r4, #255	; 0xff
    365a:	d100      	bne.n	365e <__aeabi_fsub+0x52>
    365c:	e083      	b.n	3766 <__aeabi_fsub+0x15a>
    365e:	019b      	lsls	r3, r3, #6
    3660:	2201      	movs	r2, #1
    3662:	0a5b      	lsrs	r3, r3, #9
    3664:	b2e0      	uxtb	r0, r4
    3666:	4032      	ands	r2, r6
    3668:	025b      	lsls	r3, r3, #9
    366a:	05c4      	lsls	r4, r0, #23
    366c:	0a58      	lsrs	r0, r3, #9
    366e:	07d2      	lsls	r2, r2, #31
    3670:	4320      	orrs	r0, r4
    3672:	4310      	orrs	r0, r2
    3674:	bdf8      	pop	{r3, r4, r5, r6, r7, pc}
    3676:	2cff      	cmp	r4, #255	; 0xff
    3678:	d0e4      	beq.n	3644 <__aeabi_fsub+0x38>
    367a:	2180      	movs	r1, #128	; 0x80
    367c:	04c9      	lsls	r1, r1, #19
    367e:	430d      	orrs	r5, r1
    3680:	2a1b      	cmp	r2, #27
    3682:	dd00      	ble.n	3686 <__aeabi_fsub+0x7a>
    3684:	e12d      	b.n	38e2 <__aeabi_fsub+0x2d6>
    3686:	1c29      	adds	r1, r5, #0
    3688:	2020      	movs	r0, #32
    368a:	40d1      	lsrs	r1, r2
    368c:	1a82      	subs	r2, r0, r2
    368e:	4095      	lsls	r5, r2
    3690:	1e6a      	subs	r2, r5, #1
    3692:	4195      	sbcs	r5, r2
    3694:	430d      	orrs	r5, r1
    3696:	1b5b      	subs	r3, r3, r5
    3698:	0158      	lsls	r0, r3, #5
    369a:	d5d3      	bpl.n	3644 <__aeabi_fsub+0x38>
    369c:	019b      	lsls	r3, r3, #6
    369e:	099f      	lsrs	r7, r3, #6
    36a0:	1c38      	adds	r0, r7, #0
    36a2:	f002 f80d 	bl	56c0 <__clzsi2>
    36a6:	1f42      	subs	r2, r0, #5
    36a8:	4097      	lsls	r7, r2
    36aa:	4294      	cmp	r4, r2
    36ac:	dc60      	bgt.n	3770 <__aeabi_fsub+0x164>
    36ae:	1b14      	subs	r4, r2, r4
    36b0:	231f      	movs	r3, #31
    36b2:	1b1b      	subs	r3, r3, r4
    36b4:	1c3a      	adds	r2, r7, #0
    36b6:	409f      	lsls	r7, r3
    36b8:	1c61      	adds	r1, r4, #1
    36ba:	1c3b      	adds	r3, r7, #0
    36bc:	40ca      	lsrs	r2, r1
    36be:	1e5f      	subs	r7, r3, #1
    36c0:	41bb      	sbcs	r3, r7
    36c2:	4313      	orrs	r3, r2
    36c4:	2400      	movs	r4, #0
    36c6:	e7bd      	b.n	3644 <__aeabi_fsub+0x38>
    36c8:	2201      	movs	r2, #1
    36ca:	08db      	lsrs	r3, r3, #3
    36cc:	b2e0      	uxtb	r0, r4
    36ce:	4032      	ands	r2, r6
    36d0:	2cff      	cmp	r4, #255	; 0xff
    36d2:	d104      	bne.n	36de <__aeabi_fsub+0xd2>
    36d4:	2b00      	cmp	r3, #0
    36d6:	d07e      	beq.n	37d6 <__aeabi_fsub+0x1ca>
    36d8:	2180      	movs	r1, #128	; 0x80
    36da:	03c9      	lsls	r1, r1, #15
    36dc:	430b      	orrs	r3, r1
    36de:	025b      	lsls	r3, r3, #9
    36e0:	0a5b      	lsrs	r3, r3, #9
    36e2:	e7c1      	b.n	3668 <__aeabi_fsub+0x5c>
    36e4:	1a21      	subs	r1, r4, r0
    36e6:	2900      	cmp	r1, #0
    36e8:	dd46      	ble.n	3778 <__aeabi_fsub+0x16c>
    36ea:	2800      	cmp	r0, #0
    36ec:	d026      	beq.n	373c <__aeabi_fsub+0x130>
    36ee:	2cff      	cmp	r4, #255	; 0xff
    36f0:	d0a8      	beq.n	3644 <__aeabi_fsub+0x38>
    36f2:	2080      	movs	r0, #128	; 0x80
    36f4:	04c0      	lsls	r0, r0, #19
    36f6:	4305      	orrs	r5, r0
    36f8:	291b      	cmp	r1, #27
    36fa:	dd00      	ble.n	36fe <__aeabi_fsub+0xf2>
    36fc:	e0ef      	b.n	38de <__aeabi_fsub+0x2d2>
    36fe:	1c28      	adds	r0, r5, #0
    3700:	2720      	movs	r7, #32
    3702:	40c8      	lsrs	r0, r1
    3704:	1a79      	subs	r1, r7, r1
    3706:	408d      	lsls	r5, r1
    3708:	1e69      	subs	r1, r5, #1
    370a:	418d      	sbcs	r5, r1
    370c:	4305      	orrs	r5, r0
    370e:	195b      	adds	r3, r3, r5
    3710:	0159      	lsls	r1, r3, #5
    3712:	d597      	bpl.n	3644 <__aeabi_fsub+0x38>
    3714:	3401      	adds	r4, #1
    3716:	2cff      	cmp	r4, #255	; 0xff
    3718:	d05c      	beq.n	37d4 <__aeabi_fsub+0x1c8>
    371a:	4973      	ldr	r1, [pc, #460]	; (38e8 <__aeabi_fsub+0x2dc>)
    371c:	2201      	movs	r2, #1
    371e:	401a      	ands	r2, r3
    3720:	400b      	ands	r3, r1
    3722:	085b      	lsrs	r3, r3, #1
    3724:	4313      	orrs	r3, r2
    3726:	e78d      	b.n	3644 <__aeabi_fsub+0x38>
    3728:	2d00      	cmp	r5, #0
    372a:	d000      	beq.n	372e <__aeabi_fsub+0x122>
    372c:	e77f      	b.n	362e <__aeabi_fsub+0x22>
    372e:	e77c      	b.n	362a <__aeabi_fsub+0x1e>
    3730:	3a01      	subs	r2, #1
    3732:	2a00      	cmp	r2, #0
    3734:	d0af      	beq.n	3696 <__aeabi_fsub+0x8a>
    3736:	2cff      	cmp	r4, #255	; 0xff
    3738:	d1a2      	bne.n	3680 <__aeabi_fsub+0x74>
    373a:	e783      	b.n	3644 <__aeabi_fsub+0x38>
    373c:	2d00      	cmp	r5, #0
    373e:	d100      	bne.n	3742 <__aeabi_fsub+0x136>
    3740:	e780      	b.n	3644 <__aeabi_fsub+0x38>
    3742:	3901      	subs	r1, #1
    3744:	2900      	cmp	r1, #0
    3746:	d0e2      	beq.n	370e <__aeabi_fsub+0x102>
    3748:	2cff      	cmp	r4, #255	; 0xff
    374a:	d1d5      	bne.n	36f8 <__aeabi_fsub+0xec>
    374c:	e77a      	b.n	3644 <__aeabi_fsub+0x38>
    374e:	2a00      	cmp	r2, #0
    3750:	d11e      	bne.n	3790 <__aeabi_fsub+0x184>
    3752:	1c62      	adds	r2, r4, #1
    3754:	b2d2      	uxtb	r2, r2
    3756:	2a01      	cmp	r2, #1
    3758:	dd4e      	ble.n	37f8 <__aeabi_fsub+0x1ec>
    375a:	1b5f      	subs	r7, r3, r5
    375c:	017a      	lsls	r2, r7, #5
    375e:	d526      	bpl.n	37ae <__aeabi_fsub+0x1a2>
    3760:	1aef      	subs	r7, r5, r3
    3762:	1c0e      	adds	r6, r1, #0
    3764:	e79c      	b.n	36a0 <__aeabi_fsub+0x94>
    3766:	2201      	movs	r2, #1
    3768:	4032      	ands	r2, r6
    376a:	20ff      	movs	r0, #255	; 0xff
    376c:	2300      	movs	r3, #0
    376e:	e77b      	b.n	3668 <__aeabi_fsub+0x5c>
    3770:	4b5d      	ldr	r3, [pc, #372]	; (38e8 <__aeabi_fsub+0x2dc>)
    3772:	1aa4      	subs	r4, r4, r2
    3774:	403b      	ands	r3, r7
    3776:	e765      	b.n	3644 <__aeabi_fsub+0x38>
    3778:	2900      	cmp	r1, #0
    377a:	d146      	bne.n	380a <__aeabi_fsub+0x1fe>
    377c:	1c61      	adds	r1, r4, #1
    377e:	b2c8      	uxtb	r0, r1
    3780:	2801      	cmp	r0, #1
    3782:	dd2a      	ble.n	37da <__aeabi_fsub+0x1ce>
    3784:	29ff      	cmp	r1, #255	; 0xff
    3786:	d025      	beq.n	37d4 <__aeabi_fsub+0x1c8>
    3788:	18eb      	adds	r3, r5, r3
    378a:	085b      	lsrs	r3, r3, #1
    378c:	1c0c      	adds	r4, r1, #0
    378e:	e759      	b.n	3644 <__aeabi_fsub+0x38>
    3790:	2c00      	cmp	r4, #0
    3792:	d013      	beq.n	37bc <__aeabi_fsub+0x1b0>
    3794:	28ff      	cmp	r0, #255	; 0xff
    3796:	d018      	beq.n	37ca <__aeabi_fsub+0x1be>
    3798:	2480      	movs	r4, #128	; 0x80
    379a:	04e4      	lsls	r4, r4, #19
    379c:	4252      	negs	r2, r2
    379e:	4323      	orrs	r3, r4
    37a0:	2a1b      	cmp	r2, #27
    37a2:	dd4d      	ble.n	3840 <__aeabi_fsub+0x234>
    37a4:	2301      	movs	r3, #1
    37a6:	1aeb      	subs	r3, r5, r3
    37a8:	1c04      	adds	r4, r0, #0
    37aa:	1c0e      	adds	r6, r1, #0
    37ac:	e774      	b.n	3698 <__aeabi_fsub+0x8c>
    37ae:	2f00      	cmp	r7, #0
    37b0:	d000      	beq.n	37b4 <__aeabi_fsub+0x1a8>
    37b2:	e775      	b.n	36a0 <__aeabi_fsub+0x94>
    37b4:	2200      	movs	r2, #0
    37b6:	2000      	movs	r0, #0
    37b8:	2300      	movs	r3, #0
    37ba:	e790      	b.n	36de <__aeabi_fsub+0xd2>
    37bc:	2b00      	cmp	r3, #0
    37be:	d03b      	beq.n	3838 <__aeabi_fsub+0x22c>
    37c0:	43d2      	mvns	r2, r2
    37c2:	2a00      	cmp	r2, #0
    37c4:	d0ef      	beq.n	37a6 <__aeabi_fsub+0x19a>
    37c6:	28ff      	cmp	r0, #255	; 0xff
    37c8:	d1ea      	bne.n	37a0 <__aeabi_fsub+0x194>
    37ca:	1c2b      	adds	r3, r5, #0
    37cc:	24ff      	movs	r4, #255	; 0xff
    37ce:	1c0e      	adds	r6, r1, #0
    37d0:	e738      	b.n	3644 <__aeabi_fsub+0x38>
    37d2:	2200      	movs	r2, #0
    37d4:	20ff      	movs	r0, #255	; 0xff
    37d6:	2300      	movs	r3, #0
    37d8:	e746      	b.n	3668 <__aeabi_fsub+0x5c>
    37da:	2c00      	cmp	r4, #0
    37dc:	d15a      	bne.n	3894 <__aeabi_fsub+0x288>
    37de:	2b00      	cmp	r3, #0
    37e0:	d077      	beq.n	38d2 <__aeabi_fsub+0x2c6>
    37e2:	2d00      	cmp	r5, #0
    37e4:	d100      	bne.n	37e8 <__aeabi_fsub+0x1dc>
    37e6:	e72d      	b.n	3644 <__aeabi_fsub+0x38>
    37e8:	195b      	adds	r3, r3, r5
    37ea:	0158      	lsls	r0, r3, #5
    37ec:	d400      	bmi.n	37f0 <__aeabi_fsub+0x1e4>
    37ee:	e729      	b.n	3644 <__aeabi_fsub+0x38>
    37f0:	4a3d      	ldr	r2, [pc, #244]	; (38e8 <__aeabi_fsub+0x2dc>)
    37f2:	2401      	movs	r4, #1
    37f4:	4013      	ands	r3, r2
    37f6:	e725      	b.n	3644 <__aeabi_fsub+0x38>
    37f8:	2c00      	cmp	r4, #0
    37fa:	d115      	bne.n	3828 <__aeabi_fsub+0x21c>
    37fc:	2b00      	cmp	r3, #0
    37fe:	d12f      	bne.n	3860 <__aeabi_fsub+0x254>
    3800:	2d00      	cmp	r5, #0
    3802:	d0d7      	beq.n	37b4 <__aeabi_fsub+0x1a8>
    3804:	1c2b      	adds	r3, r5, #0
    3806:	1c0e      	adds	r6, r1, #0
    3808:	e71c      	b.n	3644 <__aeabi_fsub+0x38>
    380a:	2c00      	cmp	r4, #0
    380c:	d121      	bne.n	3852 <__aeabi_fsub+0x246>
    380e:	2b00      	cmp	r3, #0
    3810:	d053      	beq.n	38ba <__aeabi_fsub+0x2ae>
    3812:	43c9      	mvns	r1, r1
    3814:	2900      	cmp	r1, #0
    3816:	d004      	beq.n	3822 <__aeabi_fsub+0x216>
    3818:	28ff      	cmp	r0, #255	; 0xff
    381a:	d04b      	beq.n	38b4 <__aeabi_fsub+0x2a8>
    381c:	291b      	cmp	r1, #27
    381e:	dd4f      	ble.n	38c0 <__aeabi_fsub+0x2b4>
    3820:	2301      	movs	r3, #1
    3822:	195b      	adds	r3, r3, r5
    3824:	1c04      	adds	r4, r0, #0
    3826:	e773      	b.n	3710 <__aeabi_fsub+0x104>
    3828:	2b00      	cmp	r3, #0
    382a:	d122      	bne.n	3872 <__aeabi_fsub+0x266>
    382c:	2d00      	cmp	r5, #0
    382e:	d0d0      	beq.n	37d2 <__aeabi_fsub+0x1c6>
    3830:	1c2b      	adds	r3, r5, #0
    3832:	1c0e      	adds	r6, r1, #0
    3834:	24ff      	movs	r4, #255	; 0xff
    3836:	e705      	b.n	3644 <__aeabi_fsub+0x38>
    3838:	1c2b      	adds	r3, r5, #0
    383a:	1c04      	adds	r4, r0, #0
    383c:	1c0e      	adds	r6, r1, #0
    383e:	e701      	b.n	3644 <__aeabi_fsub+0x38>
    3840:	1c1c      	adds	r4, r3, #0
    3842:	2620      	movs	r6, #32
    3844:	40d4      	lsrs	r4, r2
    3846:	1ab2      	subs	r2, r6, r2
    3848:	4093      	lsls	r3, r2
    384a:	1e5a      	subs	r2, r3, #1
    384c:	4193      	sbcs	r3, r2
    384e:	4323      	orrs	r3, r4
    3850:	e7a9      	b.n	37a6 <__aeabi_fsub+0x19a>
    3852:	28ff      	cmp	r0, #255	; 0xff
    3854:	d02e      	beq.n	38b4 <__aeabi_fsub+0x2a8>
    3856:	2480      	movs	r4, #128	; 0x80
    3858:	04e4      	lsls	r4, r4, #19
    385a:	4249      	negs	r1, r1
    385c:	4323      	orrs	r3, r4
    385e:	e7dd      	b.n	381c <__aeabi_fsub+0x210>
    3860:	2d00      	cmp	r5, #0
    3862:	d100      	bne.n	3866 <__aeabi_fsub+0x25a>
    3864:	e6ee      	b.n	3644 <__aeabi_fsub+0x38>
    3866:	1b5a      	subs	r2, r3, r5
    3868:	0150      	lsls	r0, r2, #5
    386a:	d534      	bpl.n	38d6 <__aeabi_fsub+0x2ca>
    386c:	1aeb      	subs	r3, r5, r3
    386e:	1c0e      	adds	r6, r1, #0
    3870:	e6e8      	b.n	3644 <__aeabi_fsub+0x38>
    3872:	24ff      	movs	r4, #255	; 0xff
    3874:	2d00      	cmp	r5, #0
    3876:	d100      	bne.n	387a <__aeabi_fsub+0x26e>
    3878:	e6e4      	b.n	3644 <__aeabi_fsub+0x38>
    387a:	2280      	movs	r2, #128	; 0x80
    387c:	08db      	lsrs	r3, r3, #3
    387e:	03d2      	lsls	r2, r2, #15
    3880:	4213      	tst	r3, r2
    3882:	d004      	beq.n	388e <__aeabi_fsub+0x282>
    3884:	08ed      	lsrs	r5, r5, #3
    3886:	4215      	tst	r5, r2
    3888:	d101      	bne.n	388e <__aeabi_fsub+0x282>
    388a:	1c2b      	adds	r3, r5, #0
    388c:	1c0e      	adds	r6, r1, #0
    388e:	00db      	lsls	r3, r3, #3
    3890:	24ff      	movs	r4, #255	; 0xff
    3892:	e6d7      	b.n	3644 <__aeabi_fsub+0x38>
    3894:	2b00      	cmp	r3, #0
    3896:	d00d      	beq.n	38b4 <__aeabi_fsub+0x2a8>
    3898:	24ff      	movs	r4, #255	; 0xff
    389a:	2d00      	cmp	r5, #0
    389c:	d100      	bne.n	38a0 <__aeabi_fsub+0x294>
    389e:	e6d1      	b.n	3644 <__aeabi_fsub+0x38>
    38a0:	2280      	movs	r2, #128	; 0x80
    38a2:	08db      	lsrs	r3, r3, #3
    38a4:	03d2      	lsls	r2, r2, #15
    38a6:	4213      	tst	r3, r2
    38a8:	d0f1      	beq.n	388e <__aeabi_fsub+0x282>
    38aa:	08ed      	lsrs	r5, r5, #3
    38ac:	4215      	tst	r5, r2
    38ae:	d1ee      	bne.n	388e <__aeabi_fsub+0x282>
    38b0:	1c2b      	adds	r3, r5, #0
    38b2:	e7ec      	b.n	388e <__aeabi_fsub+0x282>
    38b4:	1c2b      	adds	r3, r5, #0
    38b6:	24ff      	movs	r4, #255	; 0xff
    38b8:	e6c4      	b.n	3644 <__aeabi_fsub+0x38>
    38ba:	1c2b      	adds	r3, r5, #0
    38bc:	1c04      	adds	r4, r0, #0
    38be:	e6c1      	b.n	3644 <__aeabi_fsub+0x38>
    38c0:	1c1c      	adds	r4, r3, #0
    38c2:	2720      	movs	r7, #32
    38c4:	40cc      	lsrs	r4, r1
    38c6:	1a79      	subs	r1, r7, r1
    38c8:	408b      	lsls	r3, r1
    38ca:	1e59      	subs	r1, r3, #1
    38cc:	418b      	sbcs	r3, r1
    38ce:	4323      	orrs	r3, r4
    38d0:	e7a7      	b.n	3822 <__aeabi_fsub+0x216>
    38d2:	1c2b      	adds	r3, r5, #0
    38d4:	e6b6      	b.n	3644 <__aeabi_fsub+0x38>
    38d6:	1e13      	subs	r3, r2, #0
    38d8:	d000      	beq.n	38dc <__aeabi_fsub+0x2d0>
    38da:	e6b3      	b.n	3644 <__aeabi_fsub+0x38>
    38dc:	e76a      	b.n	37b4 <__aeabi_fsub+0x1a8>
    38de:	2501      	movs	r5, #1
    38e0:	e715      	b.n	370e <__aeabi_fsub+0x102>
    38e2:	2501      	movs	r5, #1
    38e4:	e6d7      	b.n	3696 <__aeabi_fsub+0x8a>
    38e6:	46c0      	nop			; (mov r8, r8)
    38e8:	fbffffff 	.word	0xfbffffff

000038ec <__aeabi_f2iz>:
    38ec:	0243      	lsls	r3, r0, #9
    38ee:	0a59      	lsrs	r1, r3, #9
    38f0:	0043      	lsls	r3, r0, #1
    38f2:	0fc2      	lsrs	r2, r0, #31
    38f4:	0e1b      	lsrs	r3, r3, #24
    38f6:	2000      	movs	r0, #0
    38f8:	2b7e      	cmp	r3, #126	; 0x7e
    38fa:	dd0d      	ble.n	3918 <__aeabi_f2iz+0x2c>
    38fc:	2b9d      	cmp	r3, #157	; 0x9d
    38fe:	dc0c      	bgt.n	391a <__aeabi_f2iz+0x2e>
    3900:	2080      	movs	r0, #128	; 0x80
    3902:	0400      	lsls	r0, r0, #16
    3904:	4301      	orrs	r1, r0
    3906:	2b95      	cmp	r3, #149	; 0x95
    3908:	dc0a      	bgt.n	3920 <__aeabi_f2iz+0x34>
    390a:	2096      	movs	r0, #150	; 0x96
    390c:	1ac3      	subs	r3, r0, r3
    390e:	40d9      	lsrs	r1, r3
    3910:	4248      	negs	r0, r1
    3912:	2a00      	cmp	r2, #0
    3914:	d100      	bne.n	3918 <__aeabi_f2iz+0x2c>
    3916:	1c08      	adds	r0, r1, #0
    3918:	4770      	bx	lr
    391a:	4b03      	ldr	r3, [pc, #12]	; (3928 <__aeabi_f2iz+0x3c>)
    391c:	18d0      	adds	r0, r2, r3
    391e:	e7fb      	b.n	3918 <__aeabi_f2iz+0x2c>
    3920:	3b96      	subs	r3, #150	; 0x96
    3922:	4099      	lsls	r1, r3
    3924:	e7f4      	b.n	3910 <__aeabi_f2iz+0x24>
    3926:	46c0      	nop			; (mov r8, r8)
    3928:	7fffffff 	.word	0x7fffffff

0000392c <__aeabi_i2f>:
    392c:	b570      	push	{r4, r5, r6, lr}
    392e:	1e04      	subs	r4, r0, #0
    3930:	d03c      	beq.n	39ac <__aeabi_i2f+0x80>
    3932:	0fc6      	lsrs	r6, r0, #31
    3934:	d000      	beq.n	3938 <__aeabi_i2f+0xc>
    3936:	4244      	negs	r4, r0
    3938:	1c20      	adds	r0, r4, #0
    393a:	f001 fec1 	bl	56c0 <__clzsi2>
    393e:	239e      	movs	r3, #158	; 0x9e
    3940:	1c25      	adds	r5, r4, #0
    3942:	1a1b      	subs	r3, r3, r0
    3944:	2b96      	cmp	r3, #150	; 0x96
    3946:	dc0c      	bgt.n	3962 <__aeabi_i2f+0x36>
    3948:	3808      	subs	r0, #8
    394a:	4084      	lsls	r4, r0
    394c:	0264      	lsls	r4, r4, #9
    394e:	0a64      	lsrs	r4, r4, #9
    3950:	b2db      	uxtb	r3, r3
    3952:	1c32      	adds	r2, r6, #0
    3954:	0264      	lsls	r4, r4, #9
    3956:	05db      	lsls	r3, r3, #23
    3958:	0a60      	lsrs	r0, r4, #9
    395a:	07d2      	lsls	r2, r2, #31
    395c:	4318      	orrs	r0, r3
    395e:	4310      	orrs	r0, r2
    3960:	bd70      	pop	{r4, r5, r6, pc}
    3962:	2b99      	cmp	r3, #153	; 0x99
    3964:	dd0a      	ble.n	397c <__aeabi_i2f+0x50>
    3966:	2205      	movs	r2, #5
    3968:	1a12      	subs	r2, r2, r0
    396a:	1c21      	adds	r1, r4, #0
    396c:	40d1      	lsrs	r1, r2
    396e:	1c0a      	adds	r2, r1, #0
    3970:	1c01      	adds	r1, r0, #0
    3972:	311b      	adds	r1, #27
    3974:	408d      	lsls	r5, r1
    3976:	1e69      	subs	r1, r5, #1
    3978:	418d      	sbcs	r5, r1
    397a:	4315      	orrs	r5, r2
    397c:	2805      	cmp	r0, #5
    397e:	dd01      	ble.n	3984 <__aeabi_i2f+0x58>
    3980:	1f42      	subs	r2, r0, #5
    3982:	4095      	lsls	r5, r2
    3984:	4c16      	ldr	r4, [pc, #88]	; (39e0 <__aeabi_i2f+0xb4>)
    3986:	402c      	ands	r4, r5
    3988:	076a      	lsls	r2, r5, #29
    398a:	d004      	beq.n	3996 <__aeabi_i2f+0x6a>
    398c:	220f      	movs	r2, #15
    398e:	4015      	ands	r5, r2
    3990:	2d04      	cmp	r5, #4
    3992:	d000      	beq.n	3996 <__aeabi_i2f+0x6a>
    3994:	3404      	adds	r4, #4
    3996:	0161      	lsls	r1, r4, #5
    3998:	d50c      	bpl.n	39b4 <__aeabi_i2f+0x88>
    399a:	239f      	movs	r3, #159	; 0x9f
    399c:	1a18      	subs	r0, r3, r0
    399e:	28ff      	cmp	r0, #255	; 0xff
    39a0:	d01a      	beq.n	39d8 <__aeabi_i2f+0xac>
    39a2:	01a4      	lsls	r4, r4, #6
    39a4:	0a64      	lsrs	r4, r4, #9
    39a6:	b2c3      	uxtb	r3, r0
    39a8:	1c32      	adds	r2, r6, #0
    39aa:	e7d3      	b.n	3954 <__aeabi_i2f+0x28>
    39ac:	2200      	movs	r2, #0
    39ae:	2300      	movs	r3, #0
    39b0:	2400      	movs	r4, #0
    39b2:	e7cf      	b.n	3954 <__aeabi_i2f+0x28>
    39b4:	08e4      	lsrs	r4, r4, #3
    39b6:	2bff      	cmp	r3, #255	; 0xff
    39b8:	d004      	beq.n	39c4 <__aeabi_i2f+0x98>
    39ba:	0264      	lsls	r4, r4, #9
    39bc:	0a64      	lsrs	r4, r4, #9
    39be:	b2db      	uxtb	r3, r3
    39c0:	1c32      	adds	r2, r6, #0
    39c2:	e7c7      	b.n	3954 <__aeabi_i2f+0x28>
    39c4:	2c00      	cmp	r4, #0
    39c6:	d004      	beq.n	39d2 <__aeabi_i2f+0xa6>
    39c8:	2080      	movs	r0, #128	; 0x80
    39ca:	03c0      	lsls	r0, r0, #15
    39cc:	4304      	orrs	r4, r0
    39ce:	0264      	lsls	r4, r4, #9
    39d0:	0a64      	lsrs	r4, r4, #9
    39d2:	1c32      	adds	r2, r6, #0
    39d4:	23ff      	movs	r3, #255	; 0xff
    39d6:	e7bd      	b.n	3954 <__aeabi_i2f+0x28>
    39d8:	1c32      	adds	r2, r6, #0
    39da:	23ff      	movs	r3, #255	; 0xff
    39dc:	2400      	movs	r4, #0
    39de:	e7b9      	b.n	3954 <__aeabi_i2f+0x28>
    39e0:	fbffffff 	.word	0xfbffffff

000039e4 <__aeabi_ui2f>:
    39e4:	b510      	push	{r4, lr}
    39e6:	1e04      	subs	r4, r0, #0
    39e8:	d033      	beq.n	3a52 <__aeabi_ui2f+0x6e>
    39ea:	f001 fe69 	bl	56c0 <__clzsi2>
    39ee:	239e      	movs	r3, #158	; 0x9e
    39f0:	1a1b      	subs	r3, r3, r0
    39f2:	2b96      	cmp	r3, #150	; 0x96
    39f4:	dc09      	bgt.n	3a0a <__aeabi_ui2f+0x26>
    39f6:	3808      	subs	r0, #8
    39f8:	4084      	lsls	r4, r0
    39fa:	0264      	lsls	r4, r4, #9
    39fc:	0a64      	lsrs	r4, r4, #9
    39fe:	b2db      	uxtb	r3, r3
    3a00:	0264      	lsls	r4, r4, #9
    3a02:	05db      	lsls	r3, r3, #23
    3a04:	0a60      	lsrs	r0, r4, #9
    3a06:	4318      	orrs	r0, r3
    3a08:	bd10      	pop	{r4, pc}
    3a0a:	2b99      	cmp	r3, #153	; 0x99
    3a0c:	dd0a      	ble.n	3a24 <__aeabi_ui2f+0x40>
    3a0e:	2205      	movs	r2, #5
    3a10:	1a12      	subs	r2, r2, r0
    3a12:	1c21      	adds	r1, r4, #0
    3a14:	40d1      	lsrs	r1, r2
    3a16:	1c0a      	adds	r2, r1, #0
    3a18:	1c01      	adds	r1, r0, #0
    3a1a:	311b      	adds	r1, #27
    3a1c:	408c      	lsls	r4, r1
    3a1e:	1e61      	subs	r1, r4, #1
    3a20:	418c      	sbcs	r4, r1
    3a22:	4314      	orrs	r4, r2
    3a24:	2805      	cmp	r0, #5
    3a26:	dd01      	ble.n	3a2c <__aeabi_ui2f+0x48>
    3a28:	1f42      	subs	r2, r0, #5
    3a2a:	4094      	lsls	r4, r2
    3a2c:	4a14      	ldr	r2, [pc, #80]	; (3a80 <__aeabi_ui2f+0x9c>)
    3a2e:	4022      	ands	r2, r4
    3a30:	0761      	lsls	r1, r4, #29
    3a32:	d004      	beq.n	3a3e <__aeabi_ui2f+0x5a>
    3a34:	210f      	movs	r1, #15
    3a36:	400c      	ands	r4, r1
    3a38:	2c04      	cmp	r4, #4
    3a3a:	d000      	beq.n	3a3e <__aeabi_ui2f+0x5a>
    3a3c:	3204      	adds	r2, #4
    3a3e:	0151      	lsls	r1, r2, #5
    3a40:	d50a      	bpl.n	3a58 <__aeabi_ui2f+0x74>
    3a42:	239f      	movs	r3, #159	; 0x9f
    3a44:	1a18      	subs	r0, r3, r0
    3a46:	28ff      	cmp	r0, #255	; 0xff
    3a48:	d016      	beq.n	3a78 <__aeabi_ui2f+0x94>
    3a4a:	0194      	lsls	r4, r2, #6
    3a4c:	0a64      	lsrs	r4, r4, #9
    3a4e:	b2c3      	uxtb	r3, r0
    3a50:	e7d6      	b.n	3a00 <__aeabi_ui2f+0x1c>
    3a52:	2300      	movs	r3, #0
    3a54:	2400      	movs	r4, #0
    3a56:	e7d3      	b.n	3a00 <__aeabi_ui2f+0x1c>
    3a58:	08d2      	lsrs	r2, r2, #3
    3a5a:	2bff      	cmp	r3, #255	; 0xff
    3a5c:	d003      	beq.n	3a66 <__aeabi_ui2f+0x82>
    3a5e:	0254      	lsls	r4, r2, #9
    3a60:	0a64      	lsrs	r4, r4, #9
    3a62:	b2db      	uxtb	r3, r3
    3a64:	e7cc      	b.n	3a00 <__aeabi_ui2f+0x1c>
    3a66:	2a00      	cmp	r2, #0
    3a68:	d006      	beq.n	3a78 <__aeabi_ui2f+0x94>
    3a6a:	2480      	movs	r4, #128	; 0x80
    3a6c:	03e4      	lsls	r4, r4, #15
    3a6e:	4314      	orrs	r4, r2
    3a70:	0264      	lsls	r4, r4, #9
    3a72:	0a64      	lsrs	r4, r4, #9
    3a74:	23ff      	movs	r3, #255	; 0xff
    3a76:	e7c3      	b.n	3a00 <__aeabi_ui2f+0x1c>
    3a78:	23ff      	movs	r3, #255	; 0xff
    3a7a:	2400      	movs	r4, #0
    3a7c:	e7c0      	b.n	3a00 <__aeabi_ui2f+0x1c>
    3a7e:	46c0      	nop			; (mov r8, r8)
    3a80:	fbffffff 	.word	0xfbffffff

00003a84 <__aeabi_dadd>:
    3a84:	b5f8      	push	{r3, r4, r5, r6, r7, lr}
    3a86:	465f      	mov	r7, r11
    3a88:	4656      	mov	r6, r10
    3a8a:	4644      	mov	r4, r8
    3a8c:	464d      	mov	r5, r9
    3a8e:	b4f0      	push	{r4, r5, r6, r7}
    3a90:	030c      	lsls	r4, r1, #12
    3a92:	004d      	lsls	r5, r1, #1
    3a94:	0fce      	lsrs	r6, r1, #31
    3a96:	0a61      	lsrs	r1, r4, #9
    3a98:	0f44      	lsrs	r4, r0, #29
    3a9a:	4321      	orrs	r1, r4
    3a9c:	00c4      	lsls	r4, r0, #3
    3a9e:	0318      	lsls	r0, r3, #12
    3aa0:	4680      	mov	r8, r0
    3aa2:	0058      	lsls	r0, r3, #1
    3aa4:	0d40      	lsrs	r0, r0, #21
    3aa6:	4682      	mov	r10, r0
    3aa8:	0fd8      	lsrs	r0, r3, #31
    3aaa:	4684      	mov	r12, r0
    3aac:	4640      	mov	r0, r8
    3aae:	0a40      	lsrs	r0, r0, #9
    3ab0:	0f53      	lsrs	r3, r2, #29
    3ab2:	4303      	orrs	r3, r0
    3ab4:	00d0      	lsls	r0, r2, #3
    3ab6:	0d6d      	lsrs	r5, r5, #21
    3ab8:	1c37      	adds	r7, r6, #0
    3aba:	4683      	mov	r11, r0
    3abc:	4652      	mov	r2, r10
    3abe:	4566      	cmp	r6, r12
    3ac0:	d100      	bne.n	3ac4 <__aeabi_dadd+0x40>
    3ac2:	e09d      	b.n	3c00 <__aeabi_dadd+0x17c>
    3ac4:	1aaf      	subs	r7, r5, r2
    3ac6:	2f00      	cmp	r7, #0
    3ac8:	dc00      	bgt.n	3acc <__aeabi_dadd+0x48>
    3aca:	e103      	b.n	3cd4 <__aeabi_dadd+0x250>
    3acc:	2a00      	cmp	r2, #0
    3ace:	d138      	bne.n	3b42 <__aeabi_dadd+0xbe>
    3ad0:	4318      	orrs	r0, r3
    3ad2:	d000      	beq.n	3ad6 <__aeabi_dadd+0x52>
    3ad4:	e0e4      	b.n	3ca0 <__aeabi_dadd+0x21c>
    3ad6:	0763      	lsls	r3, r4, #29
    3ad8:	d009      	beq.n	3aee <__aeabi_dadd+0x6a>
    3ada:	230f      	movs	r3, #15
    3adc:	4023      	ands	r3, r4
    3ade:	2b04      	cmp	r3, #4
    3ae0:	d005      	beq.n	3aee <__aeabi_dadd+0x6a>
    3ae2:	1d23      	adds	r3, r4, #4
    3ae4:	42a3      	cmp	r3, r4
    3ae6:	41a4      	sbcs	r4, r4
    3ae8:	4264      	negs	r4, r4
    3aea:	1909      	adds	r1, r1, r4
    3aec:	1c1c      	adds	r4, r3, #0
    3aee:	0208      	lsls	r0, r1, #8
    3af0:	d400      	bmi.n	3af4 <__aeabi_dadd+0x70>
    3af2:	e078      	b.n	3be6 <__aeabi_dadd+0x162>
    3af4:	4bce      	ldr	r3, [pc, #824]	; (3e30 <__aeabi_dadd+0x3ac>)
    3af6:	1c6a      	adds	r2, r5, #1
    3af8:	429a      	cmp	r2, r3
    3afa:	d100      	bne.n	3afe <__aeabi_dadd+0x7a>
    3afc:	e105      	b.n	3d0a <__aeabi_dadd+0x286>
    3afe:	4bcd      	ldr	r3, [pc, #820]	; (3e34 <__aeabi_dadd+0x3b0>)
    3b00:	08e4      	lsrs	r4, r4, #3
    3b02:	4019      	ands	r1, r3
    3b04:	0748      	lsls	r0, r1, #29
    3b06:	0552      	lsls	r2, r2, #21
    3b08:	0249      	lsls	r1, r1, #9
    3b0a:	4304      	orrs	r4, r0
    3b0c:	0b0b      	lsrs	r3, r1, #12
    3b0e:	0d52      	lsrs	r2, r2, #21
    3b10:	1c37      	adds	r7, r6, #0
    3b12:	2000      	movs	r0, #0
    3b14:	2100      	movs	r1, #0
    3b16:	031b      	lsls	r3, r3, #12
    3b18:	1c20      	adds	r0, r4, #0
    3b1a:	0b1c      	lsrs	r4, r3, #12
    3b1c:	0d0b      	lsrs	r3, r1, #20
    3b1e:	051b      	lsls	r3, r3, #20
    3b20:	4dc5      	ldr	r5, [pc, #788]	; (3e38 <__aeabi_dadd+0x3b4>)
    3b22:	4323      	orrs	r3, r4
    3b24:	0552      	lsls	r2, r2, #21
    3b26:	0852      	lsrs	r2, r2, #1
    3b28:	401d      	ands	r5, r3
    3b2a:	4315      	orrs	r5, r2
    3b2c:	006d      	lsls	r5, r5, #1
    3b2e:	086d      	lsrs	r5, r5, #1
    3b30:	07ff      	lsls	r7, r7, #31
    3b32:	1c29      	adds	r1, r5, #0
    3b34:	4339      	orrs	r1, r7
    3b36:	bc3c      	pop	{r2, r3, r4, r5}
    3b38:	4690      	mov	r8, r2
    3b3a:	4699      	mov	r9, r3
    3b3c:	46a2      	mov	r10, r4
    3b3e:	46ab      	mov	r11, r5
    3b40:	bdf8      	pop	{r3, r4, r5, r6, r7, pc}
    3b42:	48bb      	ldr	r0, [pc, #748]	; (3e30 <__aeabi_dadd+0x3ac>)
    3b44:	4285      	cmp	r5, r0
    3b46:	d0c6      	beq.n	3ad6 <__aeabi_dadd+0x52>
    3b48:	2080      	movs	r0, #128	; 0x80
    3b4a:	0400      	lsls	r0, r0, #16
    3b4c:	4303      	orrs	r3, r0
    3b4e:	2f38      	cmp	r7, #56	; 0x38
    3b50:	dd00      	ble.n	3b54 <__aeabi_dadd+0xd0>
    3b52:	e0ec      	b.n	3d2e <__aeabi_dadd+0x2aa>
    3b54:	2f1f      	cmp	r7, #31
    3b56:	dd00      	ble.n	3b5a <__aeabi_dadd+0xd6>
    3b58:	e120      	b.n	3d9c <__aeabi_dadd+0x318>
    3b5a:	2020      	movs	r0, #32
    3b5c:	1bc0      	subs	r0, r0, r7
    3b5e:	1c1a      	adds	r2, r3, #0
    3b60:	4681      	mov	r9, r0
    3b62:	4082      	lsls	r2, r0
    3b64:	4658      	mov	r0, r11
    3b66:	40f8      	lsrs	r0, r7
    3b68:	4302      	orrs	r2, r0
    3b6a:	4694      	mov	r12, r2
    3b6c:	4658      	mov	r0, r11
    3b6e:	464a      	mov	r2, r9
    3b70:	4090      	lsls	r0, r2
    3b72:	1e42      	subs	r2, r0, #1
    3b74:	4190      	sbcs	r0, r2
    3b76:	40fb      	lsrs	r3, r7
    3b78:	4662      	mov	r2, r12
    3b7a:	4302      	orrs	r2, r0
    3b7c:	1c1f      	adds	r7, r3, #0
    3b7e:	1aa2      	subs	r2, r4, r2
    3b80:	4294      	cmp	r4, r2
    3b82:	41a4      	sbcs	r4, r4
    3b84:	4264      	negs	r4, r4
    3b86:	1bc9      	subs	r1, r1, r7
    3b88:	1b09      	subs	r1, r1, r4
    3b8a:	1c14      	adds	r4, r2, #0
    3b8c:	020b      	lsls	r3, r1, #8
    3b8e:	d5a2      	bpl.n	3ad6 <__aeabi_dadd+0x52>
    3b90:	0249      	lsls	r1, r1, #9
    3b92:	0a4f      	lsrs	r7, r1, #9
    3b94:	2f00      	cmp	r7, #0
    3b96:	d100      	bne.n	3b9a <__aeabi_dadd+0x116>
    3b98:	e0c4      	b.n	3d24 <__aeabi_dadd+0x2a0>
    3b9a:	1c38      	adds	r0, r7, #0
    3b9c:	f001 fd90 	bl	56c0 <__clzsi2>
    3ba0:	1c02      	adds	r2, r0, #0
    3ba2:	3a08      	subs	r2, #8
    3ba4:	2a1f      	cmp	r2, #31
    3ba6:	dd00      	ble.n	3baa <__aeabi_dadd+0x126>
    3ba8:	e0b7      	b.n	3d1a <__aeabi_dadd+0x296>
    3baa:	2128      	movs	r1, #40	; 0x28
    3bac:	1a09      	subs	r1, r1, r0
    3bae:	1c20      	adds	r0, r4, #0
    3bb0:	4097      	lsls	r7, r2
    3bb2:	40c8      	lsrs	r0, r1
    3bb4:	4307      	orrs	r7, r0
    3bb6:	4094      	lsls	r4, r2
    3bb8:	4295      	cmp	r5, r2
    3bba:	dd00      	ble.n	3bbe <__aeabi_dadd+0x13a>
    3bbc:	e0a9      	b.n	3d12 <__aeabi_dadd+0x28e>
    3bbe:	1b55      	subs	r5, r2, r5
    3bc0:	1c69      	adds	r1, r5, #1
    3bc2:	291f      	cmp	r1, #31
    3bc4:	dd00      	ble.n	3bc8 <__aeabi_dadd+0x144>
    3bc6:	e0d8      	b.n	3d7a <__aeabi_dadd+0x2f6>
    3bc8:	221f      	movs	r2, #31
    3bca:	1b55      	subs	r5, r2, r5
    3bcc:	1c3b      	adds	r3, r7, #0
    3bce:	1c22      	adds	r2, r4, #0
    3bd0:	40ab      	lsls	r3, r5
    3bd2:	40ca      	lsrs	r2, r1
    3bd4:	40ac      	lsls	r4, r5
    3bd6:	1e65      	subs	r5, r4, #1
    3bd8:	41ac      	sbcs	r4, r5
    3bda:	4313      	orrs	r3, r2
    3bdc:	40cf      	lsrs	r7, r1
    3bde:	431c      	orrs	r4, r3
    3be0:	1c39      	adds	r1, r7, #0
    3be2:	2500      	movs	r5, #0
    3be4:	e777      	b.n	3ad6 <__aeabi_dadd+0x52>
    3be6:	0748      	lsls	r0, r1, #29
    3be8:	08e4      	lsrs	r4, r4, #3
    3bea:	056a      	lsls	r2, r5, #21
    3bec:	08c9      	lsrs	r1, r1, #3
    3bee:	0d52      	lsrs	r2, r2, #21
    3bf0:	1c37      	adds	r7, r6, #0
    3bf2:	4304      	orrs	r4, r0
    3bf4:	4b8e      	ldr	r3, [pc, #568]	; (3e30 <__aeabi_dadd+0x3ac>)
    3bf6:	429d      	cmp	r5, r3
    3bf8:	d048      	beq.n	3c8c <__aeabi_dadd+0x208>
    3bfa:	0309      	lsls	r1, r1, #12
    3bfc:	0b0b      	lsrs	r3, r1, #12
    3bfe:	e788      	b.n	3b12 <__aeabi_dadd+0x8e>
    3c00:	1aaa      	subs	r2, r5, r2
    3c02:	4694      	mov	r12, r2
    3c04:	2a00      	cmp	r2, #0
    3c06:	dc00      	bgt.n	3c0a <__aeabi_dadd+0x186>
    3c08:	e098      	b.n	3d3c <__aeabi_dadd+0x2b8>
    3c0a:	4650      	mov	r0, r10
    3c0c:	2800      	cmp	r0, #0
    3c0e:	d053      	beq.n	3cb8 <__aeabi_dadd+0x234>
    3c10:	4887      	ldr	r0, [pc, #540]	; (3e30 <__aeabi_dadd+0x3ac>)
    3c12:	4285      	cmp	r5, r0
    3c14:	d100      	bne.n	3c18 <__aeabi_dadd+0x194>
    3c16:	e75e      	b.n	3ad6 <__aeabi_dadd+0x52>
    3c18:	2080      	movs	r0, #128	; 0x80
    3c1a:	0400      	lsls	r0, r0, #16
    3c1c:	4303      	orrs	r3, r0
    3c1e:	4662      	mov	r2, r12
    3c20:	2a38      	cmp	r2, #56	; 0x38
    3c22:	dd00      	ble.n	3c26 <__aeabi_dadd+0x1a2>
    3c24:	e0fd      	b.n	3e22 <__aeabi_dadd+0x39e>
    3c26:	2a1f      	cmp	r2, #31
    3c28:	dd00      	ble.n	3c2c <__aeabi_dadd+0x1a8>
    3c2a:	e14b      	b.n	3ec4 <__aeabi_dadd+0x440>
    3c2c:	2220      	movs	r2, #32
    3c2e:	4660      	mov	r0, r12
    3c30:	1a10      	subs	r0, r2, r0
    3c32:	1c1a      	adds	r2, r3, #0
    3c34:	4082      	lsls	r2, r0
    3c36:	4682      	mov	r10, r0
    3c38:	4691      	mov	r9, r2
    3c3a:	4658      	mov	r0, r11
    3c3c:	4662      	mov	r2, r12
    3c3e:	40d0      	lsrs	r0, r2
    3c40:	464a      	mov	r2, r9
    3c42:	4302      	orrs	r2, r0
    3c44:	4690      	mov	r8, r2
    3c46:	4658      	mov	r0, r11
    3c48:	4652      	mov	r2, r10
    3c4a:	4090      	lsls	r0, r2
    3c4c:	1e42      	subs	r2, r0, #1
    3c4e:	4190      	sbcs	r0, r2
    3c50:	4642      	mov	r2, r8
    3c52:	4302      	orrs	r2, r0
    3c54:	4660      	mov	r0, r12
    3c56:	40c3      	lsrs	r3, r0
    3c58:	1912      	adds	r2, r2, r4
    3c5a:	42a2      	cmp	r2, r4
    3c5c:	41a4      	sbcs	r4, r4
    3c5e:	4264      	negs	r4, r4
    3c60:	1859      	adds	r1, r3, r1
    3c62:	1909      	adds	r1, r1, r4
    3c64:	1c14      	adds	r4, r2, #0
    3c66:	0208      	lsls	r0, r1, #8
    3c68:	d400      	bmi.n	3c6c <__aeabi_dadd+0x1e8>
    3c6a:	e734      	b.n	3ad6 <__aeabi_dadd+0x52>
    3c6c:	4b70      	ldr	r3, [pc, #448]	; (3e30 <__aeabi_dadd+0x3ac>)
    3c6e:	3501      	adds	r5, #1
    3c70:	429d      	cmp	r5, r3
    3c72:	d100      	bne.n	3c76 <__aeabi_dadd+0x1f2>
    3c74:	e124      	b.n	3ec0 <__aeabi_dadd+0x43c>
    3c76:	4b6f      	ldr	r3, [pc, #444]	; (3e34 <__aeabi_dadd+0x3b0>)
    3c78:	0860      	lsrs	r0, r4, #1
    3c7a:	4019      	ands	r1, r3
    3c7c:	2301      	movs	r3, #1
    3c7e:	4023      	ands	r3, r4
    3c80:	1c1c      	adds	r4, r3, #0
    3c82:	4304      	orrs	r4, r0
    3c84:	07cb      	lsls	r3, r1, #31
    3c86:	431c      	orrs	r4, r3
    3c88:	0849      	lsrs	r1, r1, #1
    3c8a:	e724      	b.n	3ad6 <__aeabi_dadd+0x52>
    3c8c:	1c0b      	adds	r3, r1, #0
    3c8e:	4323      	orrs	r3, r4
    3c90:	d100      	bne.n	3c94 <__aeabi_dadd+0x210>
    3c92:	e1c7      	b.n	4024 <__aeabi_dadd+0x5a0>
    3c94:	2380      	movs	r3, #128	; 0x80
    3c96:	031b      	lsls	r3, r3, #12
    3c98:	430b      	orrs	r3, r1
    3c9a:	031b      	lsls	r3, r3, #12
    3c9c:	0b1b      	lsrs	r3, r3, #12
    3c9e:	e738      	b.n	3b12 <__aeabi_dadd+0x8e>
    3ca0:	3f01      	subs	r7, #1
    3ca2:	2f00      	cmp	r7, #0
    3ca4:	d164      	bne.n	3d70 <__aeabi_dadd+0x2ec>
    3ca6:	4658      	mov	r0, r11
    3ca8:	1a22      	subs	r2, r4, r0
    3caa:	4294      	cmp	r4, r2
    3cac:	41a4      	sbcs	r4, r4
    3cae:	4264      	negs	r4, r4
    3cb0:	1ac9      	subs	r1, r1, r3
    3cb2:	1b09      	subs	r1, r1, r4
    3cb4:	1c14      	adds	r4, r2, #0
    3cb6:	e769      	b.n	3b8c <__aeabi_dadd+0x108>
    3cb8:	4658      	mov	r0, r11
    3cba:	4318      	orrs	r0, r3
    3cbc:	d100      	bne.n	3cc0 <__aeabi_dadd+0x23c>
    3cbe:	e70a      	b.n	3ad6 <__aeabi_dadd+0x52>
    3cc0:	2201      	movs	r2, #1
    3cc2:	4252      	negs	r2, r2
    3cc4:	4494      	add	r12, r2
    3cc6:	4660      	mov	r0, r12
    3cc8:	2800      	cmp	r0, #0
    3cca:	d000      	beq.n	3cce <__aeabi_dadd+0x24a>
    3ccc:	e0c5      	b.n	3e5a <__aeabi_dadd+0x3d6>
    3cce:	4658      	mov	r0, r11
    3cd0:	1902      	adds	r2, r0, r4
    3cd2:	e7c2      	b.n	3c5a <__aeabi_dadd+0x1d6>
    3cd4:	2f00      	cmp	r7, #0
    3cd6:	d172      	bne.n	3dbe <__aeabi_dadd+0x33a>
    3cd8:	1c68      	adds	r0, r5, #1
    3cda:	0540      	lsls	r0, r0, #21
    3cdc:	0d40      	lsrs	r0, r0, #21
    3cde:	2801      	cmp	r0, #1
    3ce0:	dc00      	bgt.n	3ce4 <__aeabi_dadd+0x260>
    3ce2:	e0de      	b.n	3ea2 <__aeabi_dadd+0x41e>
    3ce4:	465a      	mov	r2, r11
    3ce6:	1aa2      	subs	r2, r4, r2
    3ce8:	4294      	cmp	r4, r2
    3cea:	41bf      	sbcs	r7, r7
    3cec:	1ac8      	subs	r0, r1, r3
    3cee:	427f      	negs	r7, r7
    3cf0:	1bc7      	subs	r7, r0, r7
    3cf2:	0238      	lsls	r0, r7, #8
    3cf4:	d400      	bmi.n	3cf8 <__aeabi_dadd+0x274>
    3cf6:	e088      	b.n	3e0a <__aeabi_dadd+0x386>
    3cf8:	465a      	mov	r2, r11
    3cfa:	1b14      	subs	r4, r2, r4
    3cfc:	45a3      	cmp	r11, r4
    3cfe:	4192      	sbcs	r2, r2
    3d00:	1a59      	subs	r1, r3, r1
    3d02:	4252      	negs	r2, r2
    3d04:	1a8f      	subs	r7, r1, r2
    3d06:	4666      	mov	r6, r12
    3d08:	e744      	b.n	3b94 <__aeabi_dadd+0x110>
    3d0a:	1c37      	adds	r7, r6, #0
    3d0c:	2300      	movs	r3, #0
    3d0e:	2400      	movs	r4, #0
    3d10:	e6ff      	b.n	3b12 <__aeabi_dadd+0x8e>
    3d12:	4948      	ldr	r1, [pc, #288]	; (3e34 <__aeabi_dadd+0x3b0>)
    3d14:	1aad      	subs	r5, r5, r2
    3d16:	4039      	ands	r1, r7
    3d18:	e6dd      	b.n	3ad6 <__aeabi_dadd+0x52>
    3d1a:	1c27      	adds	r7, r4, #0
    3d1c:	3828      	subs	r0, #40	; 0x28
    3d1e:	4087      	lsls	r7, r0
    3d20:	2400      	movs	r4, #0
    3d22:	e749      	b.n	3bb8 <__aeabi_dadd+0x134>
    3d24:	1c20      	adds	r0, r4, #0
    3d26:	f001 fccb 	bl	56c0 <__clzsi2>
    3d2a:	3020      	adds	r0, #32
    3d2c:	e738      	b.n	3ba0 <__aeabi_dadd+0x11c>
    3d2e:	465a      	mov	r2, r11
    3d30:	431a      	orrs	r2, r3
    3d32:	1e53      	subs	r3, r2, #1
    3d34:	419a      	sbcs	r2, r3
    3d36:	b2d2      	uxtb	r2, r2
    3d38:	2700      	movs	r7, #0
    3d3a:	e720      	b.n	3b7e <__aeabi_dadd+0xfa>
    3d3c:	2a00      	cmp	r2, #0
    3d3e:	d000      	beq.n	3d42 <__aeabi_dadd+0x2be>
    3d40:	e0dd      	b.n	3efe <__aeabi_dadd+0x47a>
    3d42:	1c68      	adds	r0, r5, #1
    3d44:	0542      	lsls	r2, r0, #21
    3d46:	0d52      	lsrs	r2, r2, #21
    3d48:	2a01      	cmp	r2, #1
    3d4a:	dc00      	bgt.n	3d4e <__aeabi_dadd+0x2ca>
    3d4c:	e08e      	b.n	3e6c <__aeabi_dadd+0x3e8>
    3d4e:	4d38      	ldr	r5, [pc, #224]	; (3e30 <__aeabi_dadd+0x3ac>)
    3d50:	42a8      	cmp	r0, r5
    3d52:	d100      	bne.n	3d56 <__aeabi_dadd+0x2d2>
    3d54:	e0b3      	b.n	3ebe <__aeabi_dadd+0x43a>
    3d56:	465d      	mov	r5, r11
    3d58:	192a      	adds	r2, r5, r4
    3d5a:	42a2      	cmp	r2, r4
    3d5c:	41a4      	sbcs	r4, r4
    3d5e:	4264      	negs	r4, r4
    3d60:	1859      	adds	r1, r3, r1
    3d62:	1909      	adds	r1, r1, r4
    3d64:	07cc      	lsls	r4, r1, #31
    3d66:	0852      	lsrs	r2, r2, #1
    3d68:	4314      	orrs	r4, r2
    3d6a:	0849      	lsrs	r1, r1, #1
    3d6c:	1c05      	adds	r5, r0, #0
    3d6e:	e6b2      	b.n	3ad6 <__aeabi_dadd+0x52>
    3d70:	482f      	ldr	r0, [pc, #188]	; (3e30 <__aeabi_dadd+0x3ac>)
    3d72:	4285      	cmp	r5, r0
    3d74:	d000      	beq.n	3d78 <__aeabi_dadd+0x2f4>
    3d76:	e6ea      	b.n	3b4e <__aeabi_dadd+0xca>
    3d78:	e6ad      	b.n	3ad6 <__aeabi_dadd+0x52>
    3d7a:	1c2b      	adds	r3, r5, #0
    3d7c:	3b1f      	subs	r3, #31
    3d7e:	1c3a      	adds	r2, r7, #0
    3d80:	40da      	lsrs	r2, r3
    3d82:	1c13      	adds	r3, r2, #0
    3d84:	2920      	cmp	r1, #32
    3d86:	d06d      	beq.n	3e64 <__aeabi_dadd+0x3e0>
    3d88:	223f      	movs	r2, #63	; 0x3f
    3d8a:	1b55      	subs	r5, r2, r5
    3d8c:	40af      	lsls	r7, r5
    3d8e:	433c      	orrs	r4, r7
    3d90:	1e60      	subs	r0, r4, #1
    3d92:	4184      	sbcs	r4, r0
    3d94:	431c      	orrs	r4, r3
    3d96:	2100      	movs	r1, #0
    3d98:	2500      	movs	r5, #0
    3d9a:	e69c      	b.n	3ad6 <__aeabi_dadd+0x52>
    3d9c:	1c38      	adds	r0, r7, #0
    3d9e:	3820      	subs	r0, #32
    3da0:	1c1a      	adds	r2, r3, #0
    3da2:	40c2      	lsrs	r2, r0
    3da4:	1c10      	adds	r0, r2, #0
    3da6:	2f20      	cmp	r7, #32
    3da8:	d05e      	beq.n	3e68 <__aeabi_dadd+0x3e4>
    3daa:	2240      	movs	r2, #64	; 0x40
    3dac:	1bd7      	subs	r7, r2, r7
    3dae:	40bb      	lsls	r3, r7
    3db0:	465a      	mov	r2, r11
    3db2:	431a      	orrs	r2, r3
    3db4:	1e53      	subs	r3, r2, #1
    3db6:	419a      	sbcs	r2, r3
    3db8:	4302      	orrs	r2, r0
    3dba:	2700      	movs	r7, #0
    3dbc:	e6df      	b.n	3b7e <__aeabi_dadd+0xfa>
    3dbe:	2d00      	cmp	r5, #0
    3dc0:	d03c      	beq.n	3e3c <__aeabi_dadd+0x3b8>
    3dc2:	4d1b      	ldr	r5, [pc, #108]	; (3e30 <__aeabi_dadd+0x3ac>)
    3dc4:	45aa      	cmp	r10, r5
    3dc6:	d100      	bne.n	3dca <__aeabi_dadd+0x346>
    3dc8:	e094      	b.n	3ef4 <__aeabi_dadd+0x470>
    3dca:	2580      	movs	r5, #128	; 0x80
    3dcc:	042d      	lsls	r5, r5, #16
    3dce:	427f      	negs	r7, r7
    3dd0:	4329      	orrs	r1, r5
    3dd2:	2f38      	cmp	r7, #56	; 0x38
    3dd4:	dd00      	ble.n	3dd8 <__aeabi_dadd+0x354>
    3dd6:	e0ad      	b.n	3f34 <__aeabi_dadd+0x4b0>
    3dd8:	2f1f      	cmp	r7, #31
    3dda:	dd00      	ble.n	3dde <__aeabi_dadd+0x35a>
    3ddc:	e12c      	b.n	4038 <__aeabi_dadd+0x5b4>
    3dde:	2520      	movs	r5, #32
    3de0:	1bed      	subs	r5, r5, r7
    3de2:	1c08      	adds	r0, r1, #0
    3de4:	1c26      	adds	r6, r4, #0
    3de6:	40a8      	lsls	r0, r5
    3de8:	40fe      	lsrs	r6, r7
    3dea:	40ac      	lsls	r4, r5
    3dec:	4306      	orrs	r6, r0
    3dee:	1e65      	subs	r5, r4, #1
    3df0:	41ac      	sbcs	r4, r5
    3df2:	4334      	orrs	r4, r6
    3df4:	40f9      	lsrs	r1, r7
    3df6:	465d      	mov	r5, r11
    3df8:	1b2c      	subs	r4, r5, r4
    3dfa:	45a3      	cmp	r11, r4
    3dfc:	4192      	sbcs	r2, r2
    3dfe:	1a5b      	subs	r3, r3, r1
    3e00:	4252      	negs	r2, r2
    3e02:	1a99      	subs	r1, r3, r2
    3e04:	4655      	mov	r5, r10
    3e06:	4666      	mov	r6, r12
    3e08:	e6c0      	b.n	3b8c <__aeabi_dadd+0x108>
    3e0a:	1c13      	adds	r3, r2, #0
    3e0c:	433b      	orrs	r3, r7
    3e0e:	1c14      	adds	r4, r2, #0
    3e10:	2b00      	cmp	r3, #0
    3e12:	d000      	beq.n	3e16 <__aeabi_dadd+0x392>
    3e14:	e6be      	b.n	3b94 <__aeabi_dadd+0x110>
    3e16:	2700      	movs	r7, #0
    3e18:	2200      	movs	r2, #0
    3e1a:	2500      	movs	r5, #0
    3e1c:	2100      	movs	r1, #0
    3e1e:	2400      	movs	r4, #0
    3e20:	e6e8      	b.n	3bf4 <__aeabi_dadd+0x170>
    3e22:	465a      	mov	r2, r11
    3e24:	431a      	orrs	r2, r3
    3e26:	1e53      	subs	r3, r2, #1
    3e28:	419a      	sbcs	r2, r3
    3e2a:	b2d2      	uxtb	r2, r2
    3e2c:	2300      	movs	r3, #0
    3e2e:	e713      	b.n	3c58 <__aeabi_dadd+0x1d4>
    3e30:	000007ff 	.word	0x000007ff
    3e34:	ff7fffff 	.word	0xff7fffff
    3e38:	800fffff 	.word	0x800fffff
    3e3c:	1c0d      	adds	r5, r1, #0
    3e3e:	4325      	orrs	r5, r4
    3e40:	d058      	beq.n	3ef4 <__aeabi_dadd+0x470>
    3e42:	43ff      	mvns	r7, r7
    3e44:	2f00      	cmp	r7, #0
    3e46:	d151      	bne.n	3eec <__aeabi_dadd+0x468>
    3e48:	1b04      	subs	r4, r0, r4
    3e4a:	45a3      	cmp	r11, r4
    3e4c:	4192      	sbcs	r2, r2
    3e4e:	1a59      	subs	r1, r3, r1
    3e50:	4252      	negs	r2, r2
    3e52:	1a89      	subs	r1, r1, r2
    3e54:	4655      	mov	r5, r10
    3e56:	4666      	mov	r6, r12
    3e58:	e698      	b.n	3b8c <__aeabi_dadd+0x108>
    3e5a:	4896      	ldr	r0, [pc, #600]	; (40b4 <__aeabi_dadd+0x630>)
    3e5c:	4285      	cmp	r5, r0
    3e5e:	d000      	beq.n	3e62 <__aeabi_dadd+0x3de>
    3e60:	e6dd      	b.n	3c1e <__aeabi_dadd+0x19a>
    3e62:	e638      	b.n	3ad6 <__aeabi_dadd+0x52>
    3e64:	2700      	movs	r7, #0
    3e66:	e792      	b.n	3d8e <__aeabi_dadd+0x30a>
    3e68:	2300      	movs	r3, #0
    3e6a:	e7a1      	b.n	3db0 <__aeabi_dadd+0x32c>
    3e6c:	1c08      	adds	r0, r1, #0
    3e6e:	4320      	orrs	r0, r4
    3e70:	2d00      	cmp	r5, #0
    3e72:	d000      	beq.n	3e76 <__aeabi_dadd+0x3f2>
    3e74:	e0c0      	b.n	3ff8 <__aeabi_dadd+0x574>
    3e76:	2800      	cmp	r0, #0
    3e78:	d100      	bne.n	3e7c <__aeabi_dadd+0x3f8>
    3e7a:	e0fb      	b.n	4074 <__aeabi_dadd+0x5f0>
    3e7c:	4658      	mov	r0, r11
    3e7e:	4318      	orrs	r0, r3
    3e80:	d100      	bne.n	3e84 <__aeabi_dadd+0x400>
    3e82:	e628      	b.n	3ad6 <__aeabi_dadd+0x52>
    3e84:	4658      	mov	r0, r11
    3e86:	1902      	adds	r2, r0, r4
    3e88:	42a2      	cmp	r2, r4
    3e8a:	41a4      	sbcs	r4, r4
    3e8c:	4264      	negs	r4, r4
    3e8e:	1859      	adds	r1, r3, r1
    3e90:	1909      	adds	r1, r1, r4
    3e92:	1c14      	adds	r4, r2, #0
    3e94:	020a      	lsls	r2, r1, #8
    3e96:	d400      	bmi.n	3e9a <__aeabi_dadd+0x416>
    3e98:	e61d      	b.n	3ad6 <__aeabi_dadd+0x52>
    3e9a:	4b87      	ldr	r3, [pc, #540]	; (40b8 <__aeabi_dadd+0x634>)
    3e9c:	2501      	movs	r5, #1
    3e9e:	4019      	ands	r1, r3
    3ea0:	e619      	b.n	3ad6 <__aeabi_dadd+0x52>
    3ea2:	1c08      	adds	r0, r1, #0
    3ea4:	4320      	orrs	r0, r4
    3ea6:	2d00      	cmp	r5, #0
    3ea8:	d139      	bne.n	3f1e <__aeabi_dadd+0x49a>
    3eaa:	2800      	cmp	r0, #0
    3eac:	d16d      	bne.n	3f8a <__aeabi_dadd+0x506>
    3eae:	4659      	mov	r1, r11
    3eb0:	4319      	orrs	r1, r3
    3eb2:	d100      	bne.n	3eb6 <__aeabi_dadd+0x432>
    3eb4:	e0bd      	b.n	4032 <__aeabi_dadd+0x5ae>
    3eb6:	1c19      	adds	r1, r3, #0
    3eb8:	465c      	mov	r4, r11
    3eba:	4666      	mov	r6, r12
    3ebc:	e60b      	b.n	3ad6 <__aeabi_dadd+0x52>
    3ebe:	1c05      	adds	r5, r0, #0
    3ec0:	1c2a      	adds	r2, r5, #0
    3ec2:	e7ab      	b.n	3e1c <__aeabi_dadd+0x398>
    3ec4:	4660      	mov	r0, r12
    3ec6:	3820      	subs	r0, #32
    3ec8:	1c1a      	adds	r2, r3, #0
    3eca:	40c2      	lsrs	r2, r0
    3ecc:	4660      	mov	r0, r12
    3ece:	4691      	mov	r9, r2
    3ed0:	2820      	cmp	r0, #32
    3ed2:	d100      	bne.n	3ed6 <__aeabi_dadd+0x452>
    3ed4:	e0ab      	b.n	402e <__aeabi_dadd+0x5aa>
    3ed6:	2240      	movs	r2, #64	; 0x40
    3ed8:	1a12      	subs	r2, r2, r0
    3eda:	4093      	lsls	r3, r2
    3edc:	465a      	mov	r2, r11
    3ede:	431a      	orrs	r2, r3
    3ee0:	1e53      	subs	r3, r2, #1
    3ee2:	419a      	sbcs	r2, r3
    3ee4:	464b      	mov	r3, r9
    3ee6:	431a      	orrs	r2, r3
    3ee8:	2300      	movs	r3, #0
    3eea:	e6b5      	b.n	3c58 <__aeabi_dadd+0x1d4>
    3eec:	4d71      	ldr	r5, [pc, #452]	; (40b4 <__aeabi_dadd+0x630>)
    3eee:	45aa      	cmp	r10, r5
    3ef0:	d000      	beq.n	3ef4 <__aeabi_dadd+0x470>
    3ef2:	e76e      	b.n	3dd2 <__aeabi_dadd+0x34e>
    3ef4:	1c19      	adds	r1, r3, #0
    3ef6:	465c      	mov	r4, r11
    3ef8:	4655      	mov	r5, r10
    3efa:	4666      	mov	r6, r12
    3efc:	e5eb      	b.n	3ad6 <__aeabi_dadd+0x52>
    3efe:	2d00      	cmp	r5, #0
    3f00:	d11e      	bne.n	3f40 <__aeabi_dadd+0x4bc>
    3f02:	1c0d      	adds	r5, r1, #0
    3f04:	4325      	orrs	r5, r4
    3f06:	d073      	beq.n	3ff0 <__aeabi_dadd+0x56c>
    3f08:	43d5      	mvns	r5, r2
    3f0a:	2d00      	cmp	r5, #0
    3f0c:	d16d      	bne.n	3fea <__aeabi_dadd+0x566>
    3f0e:	445c      	add	r4, r11
    3f10:	455c      	cmp	r4, r11
    3f12:	4192      	sbcs	r2, r2
    3f14:	1859      	adds	r1, r3, r1
    3f16:	4252      	negs	r2, r2
    3f18:	1889      	adds	r1, r1, r2
    3f1a:	4655      	mov	r5, r10
    3f1c:	e6a3      	b.n	3c66 <__aeabi_dadd+0x1e2>
    3f1e:	2800      	cmp	r0, #0
    3f20:	d149      	bne.n	3fb6 <__aeabi_dadd+0x532>
    3f22:	4659      	mov	r1, r11
    3f24:	4319      	orrs	r1, r3
    3f26:	d100      	bne.n	3f2a <__aeabi_dadd+0x4a6>
    3f28:	e096      	b.n	4058 <__aeabi_dadd+0x5d4>
    3f2a:	1c19      	adds	r1, r3, #0
    3f2c:	465c      	mov	r4, r11
    3f2e:	4666      	mov	r6, r12
    3f30:	4d60      	ldr	r5, [pc, #384]	; (40b4 <__aeabi_dadd+0x630>)
    3f32:	e5d0      	b.n	3ad6 <__aeabi_dadd+0x52>
    3f34:	430c      	orrs	r4, r1
    3f36:	1e61      	subs	r1, r4, #1
    3f38:	418c      	sbcs	r4, r1
    3f3a:	b2e4      	uxtb	r4, r4
    3f3c:	2100      	movs	r1, #0
    3f3e:	e75a      	b.n	3df6 <__aeabi_dadd+0x372>
    3f40:	4d5c      	ldr	r5, [pc, #368]	; (40b4 <__aeabi_dadd+0x630>)
    3f42:	45aa      	cmp	r10, r5
    3f44:	d054      	beq.n	3ff0 <__aeabi_dadd+0x56c>
    3f46:	4255      	negs	r5, r2
    3f48:	2280      	movs	r2, #128	; 0x80
    3f4a:	0410      	lsls	r0, r2, #16
    3f4c:	4301      	orrs	r1, r0
    3f4e:	2d38      	cmp	r5, #56	; 0x38
    3f50:	dd00      	ble.n	3f54 <__aeabi_dadd+0x4d0>
    3f52:	e085      	b.n	4060 <__aeabi_dadd+0x5dc>
    3f54:	2d1f      	cmp	r5, #31
    3f56:	dd00      	ble.n	3f5a <__aeabi_dadd+0x4d6>
    3f58:	e095      	b.n	4086 <__aeabi_dadd+0x602>
    3f5a:	2220      	movs	r2, #32
    3f5c:	1b50      	subs	r0, r2, r5
    3f5e:	1c0a      	adds	r2, r1, #0
    3f60:	4684      	mov	r12, r0
    3f62:	4082      	lsls	r2, r0
    3f64:	1c20      	adds	r0, r4, #0
    3f66:	40e8      	lsrs	r0, r5
    3f68:	4302      	orrs	r2, r0
    3f6a:	4690      	mov	r8, r2
    3f6c:	4662      	mov	r2, r12
    3f6e:	4094      	lsls	r4, r2
    3f70:	1e60      	subs	r0, r4, #1
    3f72:	4184      	sbcs	r4, r0
    3f74:	4642      	mov	r2, r8
    3f76:	4314      	orrs	r4, r2
    3f78:	40e9      	lsrs	r1, r5
    3f7a:	445c      	add	r4, r11
    3f7c:	455c      	cmp	r4, r11
    3f7e:	4192      	sbcs	r2, r2
    3f80:	18cb      	adds	r3, r1, r3
    3f82:	4252      	negs	r2, r2
    3f84:	1899      	adds	r1, r3, r2
    3f86:	4655      	mov	r5, r10
    3f88:	e66d      	b.n	3c66 <__aeabi_dadd+0x1e2>
    3f8a:	4658      	mov	r0, r11
    3f8c:	4318      	orrs	r0, r3
    3f8e:	d100      	bne.n	3f92 <__aeabi_dadd+0x50e>
    3f90:	e5a1      	b.n	3ad6 <__aeabi_dadd+0x52>
    3f92:	4658      	mov	r0, r11
    3f94:	1a27      	subs	r7, r4, r0
    3f96:	42bc      	cmp	r4, r7
    3f98:	4192      	sbcs	r2, r2
    3f9a:	1ac8      	subs	r0, r1, r3
    3f9c:	4252      	negs	r2, r2
    3f9e:	1a80      	subs	r0, r0, r2
    3fa0:	0202      	lsls	r2, r0, #8
    3fa2:	d56a      	bpl.n	407a <__aeabi_dadd+0x5f6>
    3fa4:	4658      	mov	r0, r11
    3fa6:	1b04      	subs	r4, r0, r4
    3fa8:	45a3      	cmp	r11, r4
    3faa:	4192      	sbcs	r2, r2
    3fac:	1a59      	subs	r1, r3, r1
    3fae:	4252      	negs	r2, r2
    3fb0:	1a89      	subs	r1, r1, r2
    3fb2:	4666      	mov	r6, r12
    3fb4:	e58f      	b.n	3ad6 <__aeabi_dadd+0x52>
    3fb6:	4658      	mov	r0, r11
    3fb8:	4318      	orrs	r0, r3
    3fba:	d036      	beq.n	402a <__aeabi_dadd+0x5a6>
    3fbc:	0748      	lsls	r0, r1, #29
    3fbe:	08e4      	lsrs	r4, r4, #3
    3fc0:	4304      	orrs	r4, r0
    3fc2:	2080      	movs	r0, #128	; 0x80
    3fc4:	08c9      	lsrs	r1, r1, #3
    3fc6:	0300      	lsls	r0, r0, #12
    3fc8:	4201      	tst	r1, r0
    3fca:	d008      	beq.n	3fde <__aeabi_dadd+0x55a>
    3fcc:	08dd      	lsrs	r5, r3, #3
    3fce:	4205      	tst	r5, r0
    3fd0:	d105      	bne.n	3fde <__aeabi_dadd+0x55a>
    3fd2:	4659      	mov	r1, r11
    3fd4:	08ca      	lsrs	r2, r1, #3
    3fd6:	075c      	lsls	r4, r3, #29
    3fd8:	4314      	orrs	r4, r2
    3fda:	1c29      	adds	r1, r5, #0
    3fdc:	4666      	mov	r6, r12
    3fde:	0f63      	lsrs	r3, r4, #29
    3fe0:	00c9      	lsls	r1, r1, #3
    3fe2:	4319      	orrs	r1, r3
    3fe4:	00e4      	lsls	r4, r4, #3
    3fe6:	4d33      	ldr	r5, [pc, #204]	; (40b4 <__aeabi_dadd+0x630>)
    3fe8:	e575      	b.n	3ad6 <__aeabi_dadd+0x52>
    3fea:	4a32      	ldr	r2, [pc, #200]	; (40b4 <__aeabi_dadd+0x630>)
    3fec:	4592      	cmp	r10, r2
    3fee:	d1ae      	bne.n	3f4e <__aeabi_dadd+0x4ca>
    3ff0:	1c19      	adds	r1, r3, #0
    3ff2:	465c      	mov	r4, r11
    3ff4:	4655      	mov	r5, r10
    3ff6:	e56e      	b.n	3ad6 <__aeabi_dadd+0x52>
    3ff8:	2800      	cmp	r0, #0
    3ffa:	d037      	beq.n	406c <__aeabi_dadd+0x5e8>
    3ffc:	4658      	mov	r0, r11
    3ffe:	4318      	orrs	r0, r3
    4000:	d013      	beq.n	402a <__aeabi_dadd+0x5a6>
    4002:	2580      	movs	r5, #128	; 0x80
    4004:	0748      	lsls	r0, r1, #29
    4006:	08e4      	lsrs	r4, r4, #3
    4008:	08c9      	lsrs	r1, r1, #3
    400a:	032d      	lsls	r5, r5, #12
    400c:	4304      	orrs	r4, r0
    400e:	4229      	tst	r1, r5
    4010:	d0e5      	beq.n	3fde <__aeabi_dadd+0x55a>
    4012:	08d8      	lsrs	r0, r3, #3
    4014:	4228      	tst	r0, r5
    4016:	d1e2      	bne.n	3fde <__aeabi_dadd+0x55a>
    4018:	465d      	mov	r5, r11
    401a:	08ea      	lsrs	r2, r5, #3
    401c:	075c      	lsls	r4, r3, #29
    401e:	4314      	orrs	r4, r2
    4020:	1c01      	adds	r1, r0, #0
    4022:	e7dc      	b.n	3fde <__aeabi_dadd+0x55a>
    4024:	2300      	movs	r3, #0
    4026:	2400      	movs	r4, #0
    4028:	e573      	b.n	3b12 <__aeabi_dadd+0x8e>
    402a:	4d22      	ldr	r5, [pc, #136]	; (40b4 <__aeabi_dadd+0x630>)
    402c:	e553      	b.n	3ad6 <__aeabi_dadd+0x52>
    402e:	2300      	movs	r3, #0
    4030:	e754      	b.n	3edc <__aeabi_dadd+0x458>
    4032:	2700      	movs	r7, #0
    4034:	2200      	movs	r2, #0
    4036:	e6f1      	b.n	3e1c <__aeabi_dadd+0x398>
    4038:	1c3d      	adds	r5, r7, #0
    403a:	3d20      	subs	r5, #32
    403c:	1c0a      	adds	r2, r1, #0
    403e:	40ea      	lsrs	r2, r5
    4040:	1c15      	adds	r5, r2, #0
    4042:	2f20      	cmp	r7, #32
    4044:	d031      	beq.n	40aa <__aeabi_dadd+0x626>
    4046:	2640      	movs	r6, #64	; 0x40
    4048:	1bf7      	subs	r7, r6, r7
    404a:	40b9      	lsls	r1, r7
    404c:	430c      	orrs	r4, r1
    404e:	1e61      	subs	r1, r4, #1
    4050:	418c      	sbcs	r4, r1
    4052:	432c      	orrs	r4, r5
    4054:	2100      	movs	r1, #0
    4056:	e6ce      	b.n	3df6 <__aeabi_dadd+0x372>
    4058:	4a16      	ldr	r2, [pc, #88]	; (40b4 <__aeabi_dadd+0x630>)
    405a:	2700      	movs	r7, #0
    405c:	1c15      	adds	r5, r2, #0
    405e:	e6dd      	b.n	3e1c <__aeabi_dadd+0x398>
    4060:	430c      	orrs	r4, r1
    4062:	1e61      	subs	r1, r4, #1
    4064:	418c      	sbcs	r4, r1
    4066:	b2e4      	uxtb	r4, r4
    4068:	2100      	movs	r1, #0
    406a:	e786      	b.n	3f7a <__aeabi_dadd+0x4f6>
    406c:	1c19      	adds	r1, r3, #0
    406e:	465c      	mov	r4, r11
    4070:	4d10      	ldr	r5, [pc, #64]	; (40b4 <__aeabi_dadd+0x630>)
    4072:	e530      	b.n	3ad6 <__aeabi_dadd+0x52>
    4074:	1c19      	adds	r1, r3, #0
    4076:	465c      	mov	r4, r11
    4078:	e52d      	b.n	3ad6 <__aeabi_dadd+0x52>
    407a:	1c03      	adds	r3, r0, #0
    407c:	433b      	orrs	r3, r7
    407e:	d0d8      	beq.n	4032 <__aeabi_dadd+0x5ae>
    4080:	1c01      	adds	r1, r0, #0
    4082:	1c3c      	adds	r4, r7, #0
    4084:	e527      	b.n	3ad6 <__aeabi_dadd+0x52>
    4086:	2020      	movs	r0, #32
    4088:	4240      	negs	r0, r0
    408a:	1940      	adds	r0, r0, r5
    408c:	1c0a      	adds	r2, r1, #0
    408e:	40c2      	lsrs	r2, r0
    4090:	4690      	mov	r8, r2
    4092:	2d20      	cmp	r5, #32
    4094:	d00b      	beq.n	40ae <__aeabi_dadd+0x62a>
    4096:	2040      	movs	r0, #64	; 0x40
    4098:	1b45      	subs	r5, r0, r5
    409a:	40a9      	lsls	r1, r5
    409c:	430c      	orrs	r4, r1
    409e:	1e61      	subs	r1, r4, #1
    40a0:	418c      	sbcs	r4, r1
    40a2:	4645      	mov	r5, r8
    40a4:	432c      	orrs	r4, r5
    40a6:	2100      	movs	r1, #0
    40a8:	e767      	b.n	3f7a <__aeabi_dadd+0x4f6>
    40aa:	2100      	movs	r1, #0
    40ac:	e7ce      	b.n	404c <__aeabi_dadd+0x5c8>
    40ae:	2100      	movs	r1, #0
    40b0:	e7f4      	b.n	409c <__aeabi_dadd+0x618>
    40b2:	46c0      	nop			; (mov r8, r8)
    40b4:	000007ff 	.word	0x000007ff
    40b8:	ff7fffff 	.word	0xff7fffff

000040bc <__aeabi_ddiv>:
    40bc:	b5f0      	push	{r4, r5, r6, r7, lr}
    40be:	4656      	mov	r6, r10
    40c0:	4644      	mov	r4, r8
    40c2:	465f      	mov	r7, r11
    40c4:	464d      	mov	r5, r9
    40c6:	b4f0      	push	{r4, r5, r6, r7}
    40c8:	1c1f      	adds	r7, r3, #0
    40ca:	030b      	lsls	r3, r1, #12
    40cc:	0b1b      	lsrs	r3, r3, #12
    40ce:	4698      	mov	r8, r3
    40d0:	004b      	lsls	r3, r1, #1
    40d2:	b087      	sub	sp, #28
    40d4:	1c04      	adds	r4, r0, #0
    40d6:	4681      	mov	r9, r0
    40d8:	0d5b      	lsrs	r3, r3, #21
    40da:	0fc8      	lsrs	r0, r1, #31
    40dc:	1c16      	adds	r6, r2, #0
    40de:	469a      	mov	r10, r3
    40e0:	9000      	str	r0, [sp, #0]
    40e2:	2b00      	cmp	r3, #0
    40e4:	d051      	beq.n	418a <__aeabi_ddiv+0xce>
    40e6:	4b6a      	ldr	r3, [pc, #424]	; (4290 <__aeabi_ddiv+0x1d4>)
    40e8:	459a      	cmp	r10, r3
    40ea:	d031      	beq.n	4150 <__aeabi_ddiv+0x94>
    40ec:	2280      	movs	r2, #128	; 0x80
    40ee:	4641      	mov	r1, r8
    40f0:	0352      	lsls	r2, r2, #13
    40f2:	430a      	orrs	r2, r1
    40f4:	0f63      	lsrs	r3, r4, #29
    40f6:	00d2      	lsls	r2, r2, #3
    40f8:	431a      	orrs	r2, r3
    40fa:	4b66      	ldr	r3, [pc, #408]	; (4294 <__aeabi_ddiv+0x1d8>)
    40fc:	4690      	mov	r8, r2
    40fe:	2500      	movs	r5, #0
    4100:	00e2      	lsls	r2, r4, #3
    4102:	4691      	mov	r9, r2
    4104:	449a      	add	r10, r3
    4106:	2400      	movs	r4, #0
    4108:	9502      	str	r5, [sp, #8]
    410a:	033b      	lsls	r3, r7, #12
    410c:	0b1b      	lsrs	r3, r3, #12
    410e:	469b      	mov	r11, r3
    4110:	0ffd      	lsrs	r5, r7, #31
    4112:	007b      	lsls	r3, r7, #1
    4114:	1c31      	adds	r1, r6, #0
    4116:	0d5b      	lsrs	r3, r3, #21
    4118:	9501      	str	r5, [sp, #4]
    411a:	d060      	beq.n	41de <__aeabi_ddiv+0x122>
    411c:	4a5c      	ldr	r2, [pc, #368]	; (4290 <__aeabi_ddiv+0x1d4>)
    411e:	4293      	cmp	r3, r2
    4120:	d054      	beq.n	41cc <__aeabi_ddiv+0x110>
    4122:	2180      	movs	r1, #128	; 0x80
    4124:	4658      	mov	r0, r11
    4126:	0349      	lsls	r1, r1, #13
    4128:	4301      	orrs	r1, r0
    412a:	0f72      	lsrs	r2, r6, #29
    412c:	00c9      	lsls	r1, r1, #3
    412e:	4311      	orrs	r1, r2
    4130:	4a58      	ldr	r2, [pc, #352]	; (4294 <__aeabi_ddiv+0x1d8>)
    4132:	468b      	mov	r11, r1
    4134:	189b      	adds	r3, r3, r2
    4136:	00f1      	lsls	r1, r6, #3
    4138:	2000      	movs	r0, #0
    413a:	9a00      	ldr	r2, [sp, #0]
    413c:	4304      	orrs	r4, r0
    413e:	406a      	eors	r2, r5
    4140:	9203      	str	r2, [sp, #12]
    4142:	2c0f      	cmp	r4, #15
    4144:	d900      	bls.n	4148 <__aeabi_ddiv+0x8c>
    4146:	e0ad      	b.n	42a4 <__aeabi_ddiv+0x1e8>
    4148:	4e53      	ldr	r6, [pc, #332]	; (4298 <__aeabi_ddiv+0x1dc>)
    414a:	00a4      	lsls	r4, r4, #2
    414c:	5934      	ldr	r4, [r6, r4]
    414e:	46a7      	mov	pc, r4
    4150:	4640      	mov	r0, r8
    4152:	4304      	orrs	r4, r0
    4154:	d16e      	bne.n	4234 <__aeabi_ddiv+0x178>
    4156:	2100      	movs	r1, #0
    4158:	2502      	movs	r5, #2
    415a:	2408      	movs	r4, #8
    415c:	4688      	mov	r8, r1
    415e:	4689      	mov	r9, r1
    4160:	9502      	str	r5, [sp, #8]
    4162:	e7d2      	b.n	410a <__aeabi_ddiv+0x4e>
    4164:	9c00      	ldr	r4, [sp, #0]
    4166:	9802      	ldr	r0, [sp, #8]
    4168:	46c3      	mov	r11, r8
    416a:	4649      	mov	r1, r9
    416c:	9401      	str	r4, [sp, #4]
    416e:	2802      	cmp	r0, #2
    4170:	d064      	beq.n	423c <__aeabi_ddiv+0x180>
    4172:	2803      	cmp	r0, #3
    4174:	d100      	bne.n	4178 <__aeabi_ddiv+0xbc>
    4176:	e2ab      	b.n	46d0 <__aeabi_ddiv+0x614>
    4178:	2801      	cmp	r0, #1
    417a:	d000      	beq.n	417e <__aeabi_ddiv+0xc2>
    417c:	e238      	b.n	45f0 <__aeabi_ddiv+0x534>
    417e:	9a01      	ldr	r2, [sp, #4]
    4180:	2400      	movs	r4, #0
    4182:	4002      	ands	r2, r0
    4184:	2500      	movs	r5, #0
    4186:	46a1      	mov	r9, r4
    4188:	e060      	b.n	424c <__aeabi_ddiv+0x190>
    418a:	4643      	mov	r3, r8
    418c:	4323      	orrs	r3, r4
    418e:	d04a      	beq.n	4226 <__aeabi_ddiv+0x16a>
    4190:	4640      	mov	r0, r8
    4192:	2800      	cmp	r0, #0
    4194:	d100      	bne.n	4198 <__aeabi_ddiv+0xdc>
    4196:	e1c0      	b.n	451a <__aeabi_ddiv+0x45e>
    4198:	f001 fa92 	bl	56c0 <__clzsi2>
    419c:	1e03      	subs	r3, r0, #0
    419e:	2b27      	cmp	r3, #39	; 0x27
    41a0:	dd00      	ble.n	41a4 <__aeabi_ddiv+0xe8>
    41a2:	e1b3      	b.n	450c <__aeabi_ddiv+0x450>
    41a4:	2128      	movs	r1, #40	; 0x28
    41a6:	1a0d      	subs	r5, r1, r0
    41a8:	1c21      	adds	r1, r4, #0
    41aa:	3b08      	subs	r3, #8
    41ac:	4642      	mov	r2, r8
    41ae:	40e9      	lsrs	r1, r5
    41b0:	409a      	lsls	r2, r3
    41b2:	1c0d      	adds	r5, r1, #0
    41b4:	4315      	orrs	r5, r2
    41b6:	1c22      	adds	r2, r4, #0
    41b8:	409a      	lsls	r2, r3
    41ba:	46a8      	mov	r8, r5
    41bc:	4691      	mov	r9, r2
    41be:	4b37      	ldr	r3, [pc, #220]	; (429c <__aeabi_ddiv+0x1e0>)
    41c0:	2500      	movs	r5, #0
    41c2:	1a1b      	subs	r3, r3, r0
    41c4:	469a      	mov	r10, r3
    41c6:	2400      	movs	r4, #0
    41c8:	9502      	str	r5, [sp, #8]
    41ca:	e79e      	b.n	410a <__aeabi_ddiv+0x4e>
    41cc:	465a      	mov	r2, r11
    41ce:	4316      	orrs	r6, r2
    41d0:	2003      	movs	r0, #3
    41d2:	2e00      	cmp	r6, #0
    41d4:	d1b1      	bne.n	413a <__aeabi_ddiv+0x7e>
    41d6:	46b3      	mov	r11, r6
    41d8:	2100      	movs	r1, #0
    41da:	2002      	movs	r0, #2
    41dc:	e7ad      	b.n	413a <__aeabi_ddiv+0x7e>
    41de:	465a      	mov	r2, r11
    41e0:	4332      	orrs	r2, r6
    41e2:	d01b      	beq.n	421c <__aeabi_ddiv+0x160>
    41e4:	465b      	mov	r3, r11
    41e6:	2b00      	cmp	r3, #0
    41e8:	d100      	bne.n	41ec <__aeabi_ddiv+0x130>
    41ea:	e18a      	b.n	4502 <__aeabi_ddiv+0x446>
    41ec:	4658      	mov	r0, r11
    41ee:	f001 fa67 	bl	56c0 <__clzsi2>
    41f2:	2827      	cmp	r0, #39	; 0x27
    41f4:	dd00      	ble.n	41f8 <__aeabi_ddiv+0x13c>
    41f6:	e17d      	b.n	44f4 <__aeabi_ddiv+0x438>
    41f8:	2228      	movs	r2, #40	; 0x28
    41fa:	1a17      	subs	r7, r2, r0
    41fc:	1c01      	adds	r1, r0, #0
    41fe:	1c32      	adds	r2, r6, #0
    4200:	3908      	subs	r1, #8
    4202:	465b      	mov	r3, r11
    4204:	40fa      	lsrs	r2, r7
    4206:	408b      	lsls	r3, r1
    4208:	1c17      	adds	r7, r2, #0
    420a:	431f      	orrs	r7, r3
    420c:	1c33      	adds	r3, r6, #0
    420e:	408b      	lsls	r3, r1
    4210:	46bb      	mov	r11, r7
    4212:	1c19      	adds	r1, r3, #0
    4214:	4b21      	ldr	r3, [pc, #132]	; (429c <__aeabi_ddiv+0x1e0>)
    4216:	1a1b      	subs	r3, r3, r0
    4218:	2000      	movs	r0, #0
    421a:	e78e      	b.n	413a <__aeabi_ddiv+0x7e>
    421c:	2700      	movs	r7, #0
    421e:	46bb      	mov	r11, r7
    4220:	2100      	movs	r1, #0
    4222:	2001      	movs	r0, #1
    4224:	e789      	b.n	413a <__aeabi_ddiv+0x7e>
    4226:	2000      	movs	r0, #0
    4228:	2501      	movs	r5, #1
    422a:	2404      	movs	r4, #4
    422c:	4680      	mov	r8, r0
    422e:	4681      	mov	r9, r0
    4230:	9502      	str	r5, [sp, #8]
    4232:	e76a      	b.n	410a <__aeabi_ddiv+0x4e>
    4234:	2503      	movs	r5, #3
    4236:	240c      	movs	r4, #12
    4238:	9502      	str	r5, [sp, #8]
    423a:	e766      	b.n	410a <__aeabi_ddiv+0x4e>
    423c:	9c01      	ldr	r4, [sp, #4]
    423e:	9403      	str	r4, [sp, #12]
    4240:	9d03      	ldr	r5, [sp, #12]
    4242:	2201      	movs	r2, #1
    4244:	402a      	ands	r2, r5
    4246:	2400      	movs	r4, #0
    4248:	4d11      	ldr	r5, [pc, #68]	; (4290 <__aeabi_ddiv+0x1d4>)
    424a:	46a1      	mov	r9, r4
    424c:	2000      	movs	r0, #0
    424e:	2100      	movs	r1, #0
    4250:	0324      	lsls	r4, r4, #12
    4252:	0b26      	lsrs	r6, r4, #12
    4254:	0d0c      	lsrs	r4, r1, #20
    4256:	0524      	lsls	r4, r4, #20
    4258:	4b11      	ldr	r3, [pc, #68]	; (42a0 <__aeabi_ddiv+0x1e4>)
    425a:	4334      	orrs	r4, r6
    425c:	052d      	lsls	r5, r5, #20
    425e:	4023      	ands	r3, r4
    4260:	432b      	orrs	r3, r5
    4262:	005b      	lsls	r3, r3, #1
    4264:	085b      	lsrs	r3, r3, #1
    4266:	07d2      	lsls	r2, r2, #31
    4268:	1c19      	adds	r1, r3, #0
    426a:	4648      	mov	r0, r9
    426c:	4311      	orrs	r1, r2
    426e:	b007      	add	sp, #28
    4270:	bc3c      	pop	{r2, r3, r4, r5}
    4272:	4690      	mov	r8, r2
    4274:	4699      	mov	r9, r3
    4276:	46a2      	mov	r10, r4
    4278:	46ab      	mov	r11, r5
    427a:	bdf0      	pop	{r4, r5, r6, r7, pc}
    427c:	2200      	movs	r2, #0
    427e:	2480      	movs	r4, #128	; 0x80
    4280:	0324      	lsls	r4, r4, #12
    4282:	4691      	mov	r9, r2
    4284:	4d02      	ldr	r5, [pc, #8]	; (4290 <__aeabi_ddiv+0x1d4>)
    4286:	e7e1      	b.n	424c <__aeabi_ddiv+0x190>
    4288:	2400      	movs	r4, #0
    428a:	2500      	movs	r5, #0
    428c:	46a1      	mov	r9, r4
    428e:	e7dd      	b.n	424c <__aeabi_ddiv+0x190>
    4290:	000007ff 	.word	0x000007ff
    4294:	fffffc01 	.word	0xfffffc01
    4298:	00007b50 	.word	0x00007b50
    429c:	fffffc0d 	.word	0xfffffc0d
    42a0:	800fffff 	.word	0x800fffff
    42a4:	4655      	mov	r5, r10
    42a6:	1aed      	subs	r5, r5, r3
    42a8:	9504      	str	r5, [sp, #16]
    42aa:	45d8      	cmp	r8, r11
    42ac:	d900      	bls.n	42b0 <__aeabi_ddiv+0x1f4>
    42ae:	e153      	b.n	4558 <__aeabi_ddiv+0x49c>
    42b0:	d100      	bne.n	42b4 <__aeabi_ddiv+0x1f8>
    42b2:	e14e      	b.n	4552 <__aeabi_ddiv+0x496>
    42b4:	9c04      	ldr	r4, [sp, #16]
    42b6:	2500      	movs	r5, #0
    42b8:	3c01      	subs	r4, #1
    42ba:	464e      	mov	r6, r9
    42bc:	9404      	str	r4, [sp, #16]
    42be:	4647      	mov	r7, r8
    42c0:	46a9      	mov	r9, r5
    42c2:	4658      	mov	r0, r11
    42c4:	0203      	lsls	r3, r0, #8
    42c6:	0e0c      	lsrs	r4, r1, #24
    42c8:	431c      	orrs	r4, r3
    42ca:	0209      	lsls	r1, r1, #8
    42cc:	0c25      	lsrs	r5, r4, #16
    42ce:	0423      	lsls	r3, r4, #16
    42d0:	0c1b      	lsrs	r3, r3, #16
    42d2:	9100      	str	r1, [sp, #0]
    42d4:	1c38      	adds	r0, r7, #0
    42d6:	1c29      	adds	r1, r5, #0
    42d8:	9301      	str	r3, [sp, #4]
    42da:	f7fe fc45 	bl	2b68 <__aeabi_uidiv>
    42de:	9901      	ldr	r1, [sp, #4]
    42e0:	4683      	mov	r11, r0
    42e2:	4341      	muls	r1, r0
    42e4:	1c38      	adds	r0, r7, #0
    42e6:	468a      	mov	r10, r1
    42e8:	1c29      	adds	r1, r5, #0
    42ea:	f7fe fc81 	bl	2bf0 <__aeabi_uidivmod>
    42ee:	0c33      	lsrs	r3, r6, #16
    42f0:	0409      	lsls	r1, r1, #16
    42f2:	4319      	orrs	r1, r3
    42f4:	458a      	cmp	r10, r1
    42f6:	d90c      	bls.n	4312 <__aeabi_ddiv+0x256>
    42f8:	465b      	mov	r3, r11
    42fa:	1909      	adds	r1, r1, r4
    42fc:	3b01      	subs	r3, #1
    42fe:	428c      	cmp	r4, r1
    4300:	d900      	bls.n	4304 <__aeabi_ddiv+0x248>
    4302:	e147      	b.n	4594 <__aeabi_ddiv+0x4d8>
    4304:	458a      	cmp	r10, r1
    4306:	d800      	bhi.n	430a <__aeabi_ddiv+0x24e>
    4308:	e144      	b.n	4594 <__aeabi_ddiv+0x4d8>
    430a:	2202      	movs	r2, #2
    430c:	4252      	negs	r2, r2
    430e:	4493      	add	r11, r2
    4310:	1909      	adds	r1, r1, r4
    4312:	4653      	mov	r3, r10
    4314:	1acb      	subs	r3, r1, r3
    4316:	1c18      	adds	r0, r3, #0
    4318:	1c29      	adds	r1, r5, #0
    431a:	4698      	mov	r8, r3
    431c:	f7fe fc24 	bl	2b68 <__aeabi_uidiv>
    4320:	1c07      	adds	r7, r0, #0
    4322:	9801      	ldr	r0, [sp, #4]
    4324:	1c29      	adds	r1, r5, #0
    4326:	4378      	muls	r0, r7
    4328:	4682      	mov	r10, r0
    432a:	4640      	mov	r0, r8
    432c:	f7fe fc60 	bl	2bf0 <__aeabi_uidivmod>
    4330:	0436      	lsls	r6, r6, #16
    4332:	040b      	lsls	r3, r1, #16
    4334:	0c36      	lsrs	r6, r6, #16
    4336:	4333      	orrs	r3, r6
    4338:	459a      	cmp	r10, r3
    433a:	d909      	bls.n	4350 <__aeabi_ddiv+0x294>
    433c:	191b      	adds	r3, r3, r4
    433e:	1e7a      	subs	r2, r7, #1
    4340:	429c      	cmp	r4, r3
    4342:	d900      	bls.n	4346 <__aeabi_ddiv+0x28a>
    4344:	e124      	b.n	4590 <__aeabi_ddiv+0x4d4>
    4346:	459a      	cmp	r10, r3
    4348:	d800      	bhi.n	434c <__aeabi_ddiv+0x290>
    434a:	e121      	b.n	4590 <__aeabi_ddiv+0x4d4>
    434c:	3f02      	subs	r7, #2
    434e:	191b      	adds	r3, r3, r4
    4350:	465e      	mov	r6, r11
    4352:	0432      	lsls	r2, r6, #16
    4354:	4317      	orrs	r7, r2
    4356:	0c38      	lsrs	r0, r7, #16
    4358:	46bb      	mov	r11, r7
    435a:	9e00      	ldr	r6, [sp, #0]
    435c:	9f00      	ldr	r7, [sp, #0]
    435e:	4651      	mov	r1, r10
    4360:	0c3f      	lsrs	r7, r7, #16
    4362:	0432      	lsls	r2, r6, #16
    4364:	1a5b      	subs	r3, r3, r1
    4366:	4659      	mov	r1, r11
    4368:	46ba      	mov	r10, r7
    436a:	0c12      	lsrs	r2, r2, #16
    436c:	040f      	lsls	r7, r1, #16
    436e:	0c3f      	lsrs	r7, r7, #16
    4370:	4690      	mov	r8, r2
    4372:	4651      	mov	r1, r10
    4374:	437a      	muls	r2, r7
    4376:	434f      	muls	r7, r1
    4378:	4641      	mov	r1, r8
    437a:	4341      	muls	r1, r0
    437c:	4656      	mov	r6, r10
    437e:	4370      	muls	r0, r6
    4380:	19cf      	adds	r7, r1, r7
    4382:	0c16      	lsrs	r6, r2, #16
    4384:	19be      	adds	r6, r7, r6
    4386:	42b1      	cmp	r1, r6
    4388:	d902      	bls.n	4390 <__aeabi_ddiv+0x2d4>
    438a:	2780      	movs	r7, #128	; 0x80
    438c:	027f      	lsls	r7, r7, #9
    438e:	19c0      	adds	r0, r0, r7
    4390:	0c31      	lsrs	r1, r6, #16
    4392:	0412      	lsls	r2, r2, #16
    4394:	0436      	lsls	r6, r6, #16
    4396:	0c12      	lsrs	r2, r2, #16
    4398:	1840      	adds	r0, r0, r1
    439a:	18b6      	adds	r6, r6, r2
    439c:	4283      	cmp	r3, r0
    439e:	d200      	bcs.n	43a2 <__aeabi_ddiv+0x2e6>
    43a0:	e0c4      	b.n	452c <__aeabi_ddiv+0x470>
    43a2:	d100      	bne.n	43a6 <__aeabi_ddiv+0x2ea>
    43a4:	e0be      	b.n	4524 <__aeabi_ddiv+0x468>
    43a6:	1a19      	subs	r1, r3, r0
    43a8:	4648      	mov	r0, r9
    43aa:	1b86      	subs	r6, r0, r6
    43ac:	45b1      	cmp	r9, r6
    43ae:	41bf      	sbcs	r7, r7
    43b0:	427f      	negs	r7, r7
    43b2:	1bcf      	subs	r7, r1, r7
    43b4:	42a7      	cmp	r7, r4
    43b6:	d100      	bne.n	43ba <__aeabi_ddiv+0x2fe>
    43b8:	e113      	b.n	45e2 <__aeabi_ddiv+0x526>
    43ba:	1c29      	adds	r1, r5, #0
    43bc:	1c38      	adds	r0, r7, #0
    43be:	f7fe fbd3 	bl	2b68 <__aeabi_uidiv>
    43c2:	9901      	ldr	r1, [sp, #4]
    43c4:	9002      	str	r0, [sp, #8]
    43c6:	4341      	muls	r1, r0
    43c8:	1c38      	adds	r0, r7, #0
    43ca:	4689      	mov	r9, r1
    43cc:	1c29      	adds	r1, r5, #0
    43ce:	f7fe fc0f 	bl	2bf0 <__aeabi_uidivmod>
    43d2:	0c33      	lsrs	r3, r6, #16
    43d4:	0409      	lsls	r1, r1, #16
    43d6:	4319      	orrs	r1, r3
    43d8:	4589      	cmp	r9, r1
    43da:	d90c      	bls.n	43f6 <__aeabi_ddiv+0x33a>
    43dc:	9b02      	ldr	r3, [sp, #8]
    43de:	1909      	adds	r1, r1, r4
    43e0:	3b01      	subs	r3, #1
    43e2:	428c      	cmp	r4, r1
    43e4:	d900      	bls.n	43e8 <__aeabi_ddiv+0x32c>
    43e6:	e0ff      	b.n	45e8 <__aeabi_ddiv+0x52c>
    43e8:	4589      	cmp	r9, r1
    43ea:	d800      	bhi.n	43ee <__aeabi_ddiv+0x332>
    43ec:	e0fc      	b.n	45e8 <__aeabi_ddiv+0x52c>
    43ee:	9f02      	ldr	r7, [sp, #8]
    43f0:	1909      	adds	r1, r1, r4
    43f2:	3f02      	subs	r7, #2
    43f4:	9702      	str	r7, [sp, #8]
    43f6:	464f      	mov	r7, r9
    43f8:	1bcf      	subs	r7, r1, r7
    43fa:	1c38      	adds	r0, r7, #0
    43fc:	1c29      	adds	r1, r5, #0
    43fe:	9705      	str	r7, [sp, #20]
    4400:	f7fe fbb2 	bl	2b68 <__aeabi_uidiv>
    4404:	1c07      	adds	r7, r0, #0
    4406:	9801      	ldr	r0, [sp, #4]
    4408:	1c29      	adds	r1, r5, #0
    440a:	4378      	muls	r0, r7
    440c:	4681      	mov	r9, r0
    440e:	9805      	ldr	r0, [sp, #20]
    4410:	f7fe fbee 	bl	2bf0 <__aeabi_uidivmod>
    4414:	0436      	lsls	r6, r6, #16
    4416:	0409      	lsls	r1, r1, #16
    4418:	0c36      	lsrs	r6, r6, #16
    441a:	430e      	orrs	r6, r1
    441c:	45b1      	cmp	r9, r6
    441e:	d909      	bls.n	4434 <__aeabi_ddiv+0x378>
    4420:	1936      	adds	r6, r6, r4
    4422:	1e7b      	subs	r3, r7, #1
    4424:	42b4      	cmp	r4, r6
    4426:	d900      	bls.n	442a <__aeabi_ddiv+0x36e>
    4428:	e0e0      	b.n	45ec <__aeabi_ddiv+0x530>
    442a:	45b1      	cmp	r9, r6
    442c:	d800      	bhi.n	4430 <__aeabi_ddiv+0x374>
    442e:	e0dd      	b.n	45ec <__aeabi_ddiv+0x530>
    4430:	3f02      	subs	r7, #2
    4432:	1936      	adds	r6, r6, r4
    4434:	9d02      	ldr	r5, [sp, #8]
    4436:	4649      	mov	r1, r9
    4438:	1a76      	subs	r6, r6, r1
    443a:	0429      	lsls	r1, r5, #16
    443c:	4339      	orrs	r1, r7
    443e:	040b      	lsls	r3, r1, #16
    4440:	4657      	mov	r7, r10
    4442:	0c0a      	lsrs	r2, r1, #16
    4444:	0c1b      	lsrs	r3, r3, #16
    4446:	4640      	mov	r0, r8
    4448:	4645      	mov	r5, r8
    444a:	4358      	muls	r0, r3
    444c:	4355      	muls	r5, r2
    444e:	437b      	muls	r3, r7
    4450:	437a      	muls	r2, r7
    4452:	18eb      	adds	r3, r5, r3
    4454:	0c07      	lsrs	r7, r0, #16
    4456:	19db      	adds	r3, r3, r7
    4458:	429d      	cmp	r5, r3
    445a:	d902      	bls.n	4462 <__aeabi_ddiv+0x3a6>
    445c:	2580      	movs	r5, #128	; 0x80
    445e:	026d      	lsls	r5, r5, #9
    4460:	1952      	adds	r2, r2, r5
    4462:	0c1d      	lsrs	r5, r3, #16
    4464:	0400      	lsls	r0, r0, #16
    4466:	041b      	lsls	r3, r3, #16
    4468:	0c00      	lsrs	r0, r0, #16
    446a:	1952      	adds	r2, r2, r5
    446c:	181b      	adds	r3, r3, r0
    446e:	4296      	cmp	r6, r2
    4470:	d335      	bcc.n	44de <__aeabi_ddiv+0x422>
    4472:	d100      	bne.n	4476 <__aeabi_ddiv+0x3ba>
    4474:	e0fc      	b.n	4670 <__aeabi_ddiv+0x5b4>
    4476:	2301      	movs	r3, #1
    4478:	4319      	orrs	r1, r3
    447a:	9e04      	ldr	r6, [sp, #16]
    447c:	4f99      	ldr	r7, [pc, #612]	; (46e4 <__aeabi_ddiv+0x628>)
    447e:	19f5      	adds	r5, r6, r7
    4480:	2d00      	cmp	r5, #0
    4482:	dc00      	bgt.n	4486 <__aeabi_ddiv+0x3ca>
    4484:	e0a1      	b.n	45ca <__aeabi_ddiv+0x50e>
    4486:	0748      	lsls	r0, r1, #29
    4488:	d009      	beq.n	449e <__aeabi_ddiv+0x3e2>
    448a:	230f      	movs	r3, #15
    448c:	400b      	ands	r3, r1
    448e:	2b04      	cmp	r3, #4
    4490:	d005      	beq.n	449e <__aeabi_ddiv+0x3e2>
    4492:	1d0b      	adds	r3, r1, #4
    4494:	428b      	cmp	r3, r1
    4496:	4189      	sbcs	r1, r1
    4498:	4249      	negs	r1, r1
    449a:	448b      	add	r11, r1
    449c:	1c19      	adds	r1, r3, #0
    449e:	465a      	mov	r2, r11
    44a0:	01d2      	lsls	r2, r2, #7
    44a2:	d507      	bpl.n	44b4 <__aeabi_ddiv+0x3f8>
    44a4:	4b90      	ldr	r3, [pc, #576]	; (46e8 <__aeabi_ddiv+0x62c>)
    44a6:	465c      	mov	r4, r11
    44a8:	9e04      	ldr	r6, [sp, #16]
    44aa:	2780      	movs	r7, #128	; 0x80
    44ac:	401c      	ands	r4, r3
    44ae:	00ff      	lsls	r7, r7, #3
    44b0:	46a3      	mov	r11, r4
    44b2:	19f5      	adds	r5, r6, r7
    44b4:	4b8d      	ldr	r3, [pc, #564]	; (46ec <__aeabi_ddiv+0x630>)
    44b6:	429d      	cmp	r5, r3
    44b8:	dd7a      	ble.n	45b0 <__aeabi_ddiv+0x4f4>
    44ba:	9c03      	ldr	r4, [sp, #12]
    44bc:	2201      	movs	r2, #1
    44be:	4022      	ands	r2, r4
    44c0:	2400      	movs	r4, #0
    44c2:	4d8b      	ldr	r5, [pc, #556]	; (46f0 <__aeabi_ddiv+0x634>)
    44c4:	46a1      	mov	r9, r4
    44c6:	e6c1      	b.n	424c <__aeabi_ddiv+0x190>
    44c8:	2480      	movs	r4, #128	; 0x80
    44ca:	0324      	lsls	r4, r4, #12
    44cc:	4647      	mov	r7, r8
    44ce:	4227      	tst	r7, r4
    44d0:	d14c      	bne.n	456c <__aeabi_ddiv+0x4b0>
    44d2:	433c      	orrs	r4, r7
    44d4:	0324      	lsls	r4, r4, #12
    44d6:	0b24      	lsrs	r4, r4, #12
    44d8:	9a00      	ldr	r2, [sp, #0]
    44da:	4d85      	ldr	r5, [pc, #532]	; (46f0 <__aeabi_ddiv+0x634>)
    44dc:	e6b6      	b.n	424c <__aeabi_ddiv+0x190>
    44de:	1936      	adds	r6, r6, r4
    44e0:	1e48      	subs	r0, r1, #1
    44e2:	42b4      	cmp	r4, r6
    44e4:	d95e      	bls.n	45a4 <__aeabi_ddiv+0x4e8>
    44e6:	1c01      	adds	r1, r0, #0
    44e8:	4296      	cmp	r6, r2
    44ea:	d1c4      	bne.n	4476 <__aeabi_ddiv+0x3ba>
    44ec:	9e00      	ldr	r6, [sp, #0]
    44ee:	429e      	cmp	r6, r3
    44f0:	d1c1      	bne.n	4476 <__aeabi_ddiv+0x3ba>
    44f2:	e7c2      	b.n	447a <__aeabi_ddiv+0x3be>
    44f4:	1c03      	adds	r3, r0, #0
    44f6:	3b28      	subs	r3, #40	; 0x28
    44f8:	1c31      	adds	r1, r6, #0
    44fa:	4099      	lsls	r1, r3
    44fc:	468b      	mov	r11, r1
    44fe:	2100      	movs	r1, #0
    4500:	e688      	b.n	4214 <__aeabi_ddiv+0x158>
    4502:	1c30      	adds	r0, r6, #0
    4504:	f001 f8dc 	bl	56c0 <__clzsi2>
    4508:	3020      	adds	r0, #32
    450a:	e672      	b.n	41f2 <__aeabi_ddiv+0x136>
    450c:	3b28      	subs	r3, #40	; 0x28
    450e:	1c21      	adds	r1, r4, #0
    4510:	4099      	lsls	r1, r3
    4512:	2200      	movs	r2, #0
    4514:	4688      	mov	r8, r1
    4516:	4691      	mov	r9, r2
    4518:	e651      	b.n	41be <__aeabi_ddiv+0x102>
    451a:	1c20      	adds	r0, r4, #0
    451c:	f001 f8d0 	bl	56c0 <__clzsi2>
    4520:	3020      	adds	r0, #32
    4522:	e63b      	b.n	419c <__aeabi_ddiv+0xe0>
    4524:	2100      	movs	r1, #0
    4526:	45b1      	cmp	r9, r6
    4528:	d300      	bcc.n	452c <__aeabi_ddiv+0x470>
    452a:	e73d      	b.n	43a8 <__aeabi_ddiv+0x2ec>
    452c:	9f00      	ldr	r7, [sp, #0]
    452e:	465a      	mov	r2, r11
    4530:	44b9      	add	r9, r7
    4532:	45b9      	cmp	r9, r7
    4534:	41bf      	sbcs	r7, r7
    4536:	427f      	negs	r7, r7
    4538:	193f      	adds	r7, r7, r4
    453a:	18fb      	adds	r3, r7, r3
    453c:	3a01      	subs	r2, #1
    453e:	429c      	cmp	r4, r3
    4540:	d21e      	bcs.n	4580 <__aeabi_ddiv+0x4c4>
    4542:	4298      	cmp	r0, r3
    4544:	d900      	bls.n	4548 <__aeabi_ddiv+0x48c>
    4546:	e07e      	b.n	4646 <__aeabi_ddiv+0x58a>
    4548:	d100      	bne.n	454c <__aeabi_ddiv+0x490>
    454a:	e0b5      	b.n	46b8 <__aeabi_ddiv+0x5fc>
    454c:	1a19      	subs	r1, r3, r0
    454e:	4693      	mov	r11, r2
    4550:	e72a      	b.n	43a8 <__aeabi_ddiv+0x2ec>
    4552:	4589      	cmp	r9, r1
    4554:	d800      	bhi.n	4558 <__aeabi_ddiv+0x49c>
    4556:	e6ad      	b.n	42b4 <__aeabi_ddiv+0x1f8>
    4558:	4648      	mov	r0, r9
    455a:	4646      	mov	r6, r8
    455c:	4642      	mov	r2, r8
    455e:	0877      	lsrs	r7, r6, #1
    4560:	07d3      	lsls	r3, r2, #31
    4562:	0846      	lsrs	r6, r0, #1
    4564:	07c0      	lsls	r0, r0, #31
    4566:	431e      	orrs	r6, r3
    4568:	4681      	mov	r9, r0
    456a:	e6aa      	b.n	42c2 <__aeabi_ddiv+0x206>
    456c:	4658      	mov	r0, r11
    456e:	4220      	tst	r0, r4
    4570:	d112      	bne.n	4598 <__aeabi_ddiv+0x4dc>
    4572:	4304      	orrs	r4, r0
    4574:	0324      	lsls	r4, r4, #12
    4576:	1c2a      	adds	r2, r5, #0
    4578:	0b24      	lsrs	r4, r4, #12
    457a:	4689      	mov	r9, r1
    457c:	4d5c      	ldr	r5, [pc, #368]	; (46f0 <__aeabi_ddiv+0x634>)
    457e:	e665      	b.n	424c <__aeabi_ddiv+0x190>
    4580:	42a3      	cmp	r3, r4
    4582:	d1e3      	bne.n	454c <__aeabi_ddiv+0x490>
    4584:	9f00      	ldr	r7, [sp, #0]
    4586:	454f      	cmp	r7, r9
    4588:	d9db      	bls.n	4542 <__aeabi_ddiv+0x486>
    458a:	1a21      	subs	r1, r4, r0
    458c:	4693      	mov	r11, r2
    458e:	e70b      	b.n	43a8 <__aeabi_ddiv+0x2ec>
    4590:	1c17      	adds	r7, r2, #0
    4592:	e6dd      	b.n	4350 <__aeabi_ddiv+0x294>
    4594:	469b      	mov	r11, r3
    4596:	e6bc      	b.n	4312 <__aeabi_ddiv+0x256>
    4598:	433c      	orrs	r4, r7
    459a:	0324      	lsls	r4, r4, #12
    459c:	0b24      	lsrs	r4, r4, #12
    459e:	9a00      	ldr	r2, [sp, #0]
    45a0:	4d53      	ldr	r5, [pc, #332]	; (46f0 <__aeabi_ddiv+0x634>)
    45a2:	e653      	b.n	424c <__aeabi_ddiv+0x190>
    45a4:	42b2      	cmp	r2, r6
    45a6:	d859      	bhi.n	465c <__aeabi_ddiv+0x5a0>
    45a8:	d100      	bne.n	45ac <__aeabi_ddiv+0x4f0>
    45aa:	e08a      	b.n	46c2 <__aeabi_ddiv+0x606>
    45ac:	1c01      	adds	r1, r0, #0
    45ae:	e762      	b.n	4476 <__aeabi_ddiv+0x3ba>
    45b0:	465f      	mov	r7, r11
    45b2:	08c9      	lsrs	r1, r1, #3
    45b4:	077b      	lsls	r3, r7, #29
    45b6:	9e03      	ldr	r6, [sp, #12]
    45b8:	430b      	orrs	r3, r1
    45ba:	027c      	lsls	r4, r7, #9
    45bc:	056d      	lsls	r5, r5, #21
    45be:	2201      	movs	r2, #1
    45c0:	4699      	mov	r9, r3
    45c2:	0b24      	lsrs	r4, r4, #12
    45c4:	0d6d      	lsrs	r5, r5, #21
    45c6:	4032      	ands	r2, r6
    45c8:	e640      	b.n	424c <__aeabi_ddiv+0x190>
    45ca:	4b4a      	ldr	r3, [pc, #296]	; (46f4 <__aeabi_ddiv+0x638>)
    45cc:	9f04      	ldr	r7, [sp, #16]
    45ce:	1bdb      	subs	r3, r3, r7
    45d0:	2b38      	cmp	r3, #56	; 0x38
    45d2:	dd10      	ble.n	45f6 <__aeabi_ddiv+0x53a>
    45d4:	9c03      	ldr	r4, [sp, #12]
    45d6:	2201      	movs	r2, #1
    45d8:	4022      	ands	r2, r4
    45da:	2400      	movs	r4, #0
    45dc:	2500      	movs	r5, #0
    45de:	46a1      	mov	r9, r4
    45e0:	e634      	b.n	424c <__aeabi_ddiv+0x190>
    45e2:	2101      	movs	r1, #1
    45e4:	4249      	negs	r1, r1
    45e6:	e748      	b.n	447a <__aeabi_ddiv+0x3be>
    45e8:	9302      	str	r3, [sp, #8]
    45ea:	e704      	b.n	43f6 <__aeabi_ddiv+0x33a>
    45ec:	1c1f      	adds	r7, r3, #0
    45ee:	e721      	b.n	4434 <__aeabi_ddiv+0x378>
    45f0:	9c01      	ldr	r4, [sp, #4]
    45f2:	9403      	str	r4, [sp, #12]
    45f4:	e741      	b.n	447a <__aeabi_ddiv+0x3be>
    45f6:	2b1f      	cmp	r3, #31
    45f8:	dc40      	bgt.n	467c <__aeabi_ddiv+0x5c0>
    45fa:	483f      	ldr	r0, [pc, #252]	; (46f8 <__aeabi_ddiv+0x63c>)
    45fc:	9f04      	ldr	r7, [sp, #16]
    45fe:	1c0c      	adds	r4, r1, #0
    4600:	183a      	adds	r2, r7, r0
    4602:	4658      	mov	r0, r11
    4604:	4091      	lsls	r1, r2
    4606:	40dc      	lsrs	r4, r3
    4608:	4090      	lsls	r0, r2
    460a:	4320      	orrs	r0, r4
    460c:	1c0a      	adds	r2, r1, #0
    460e:	1e51      	subs	r1, r2, #1
    4610:	418a      	sbcs	r2, r1
    4612:	1c01      	adds	r1, r0, #0
    4614:	4311      	orrs	r1, r2
    4616:	465a      	mov	r2, r11
    4618:	40da      	lsrs	r2, r3
    461a:	1c13      	adds	r3, r2, #0
    461c:	0748      	lsls	r0, r1, #29
    461e:	d009      	beq.n	4634 <__aeabi_ddiv+0x578>
    4620:	220f      	movs	r2, #15
    4622:	400a      	ands	r2, r1
    4624:	2a04      	cmp	r2, #4
    4626:	d005      	beq.n	4634 <__aeabi_ddiv+0x578>
    4628:	1d0a      	adds	r2, r1, #4
    462a:	428a      	cmp	r2, r1
    462c:	4189      	sbcs	r1, r1
    462e:	4249      	negs	r1, r1
    4630:	185b      	adds	r3, r3, r1
    4632:	1c11      	adds	r1, r2, #0
    4634:	021a      	lsls	r2, r3, #8
    4636:	d534      	bpl.n	46a2 <__aeabi_ddiv+0x5e6>
    4638:	9c03      	ldr	r4, [sp, #12]
    463a:	2201      	movs	r2, #1
    463c:	4022      	ands	r2, r4
    463e:	2400      	movs	r4, #0
    4640:	2501      	movs	r5, #1
    4642:	46a1      	mov	r9, r4
    4644:	e602      	b.n	424c <__aeabi_ddiv+0x190>
    4646:	9f00      	ldr	r7, [sp, #0]
    4648:	2102      	movs	r1, #2
    464a:	4249      	negs	r1, r1
    464c:	44b9      	add	r9, r7
    464e:	448b      	add	r11, r1
    4650:	45b9      	cmp	r9, r7
    4652:	4189      	sbcs	r1, r1
    4654:	4249      	negs	r1, r1
    4656:	1909      	adds	r1, r1, r4
    4658:	18cb      	adds	r3, r1, r3
    465a:	e6a4      	b.n	43a6 <__aeabi_ddiv+0x2ea>
    465c:	9d00      	ldr	r5, [sp, #0]
    465e:	1e88      	subs	r0, r1, #2
    4660:	0069      	lsls	r1, r5, #1
    4662:	42a9      	cmp	r1, r5
    4664:	41ad      	sbcs	r5, r5
    4666:	426d      	negs	r5, r5
    4668:	192c      	adds	r4, r5, r4
    466a:	1936      	adds	r6, r6, r4
    466c:	9100      	str	r1, [sp, #0]
    466e:	e73a      	b.n	44e6 <__aeabi_ddiv+0x42a>
    4670:	2b00      	cmp	r3, #0
    4672:	d000      	beq.n	4676 <__aeabi_ddiv+0x5ba>
    4674:	e733      	b.n	44de <__aeabi_ddiv+0x422>
    4676:	2400      	movs	r4, #0
    4678:	9400      	str	r4, [sp, #0]
    467a:	e737      	b.n	44ec <__aeabi_ddiv+0x430>
    467c:	4a1f      	ldr	r2, [pc, #124]	; (46fc <__aeabi_ddiv+0x640>)
    467e:	9c04      	ldr	r4, [sp, #16]
    4680:	465d      	mov	r5, r11
    4682:	1b12      	subs	r2, r2, r4
    4684:	40d5      	lsrs	r5, r2
    4686:	1c2a      	adds	r2, r5, #0
    4688:	2b20      	cmp	r3, #32
    468a:	d01f      	beq.n	46cc <__aeabi_ddiv+0x610>
    468c:	4e1c      	ldr	r6, [pc, #112]	; (4700 <__aeabi_ddiv+0x644>)
    468e:	465f      	mov	r7, r11
    4690:	19a3      	adds	r3, r4, r6
    4692:	409f      	lsls	r7, r3
    4694:	1c3b      	adds	r3, r7, #0
    4696:	4319      	orrs	r1, r3
    4698:	1e4b      	subs	r3, r1, #1
    469a:	4199      	sbcs	r1, r3
    469c:	4311      	orrs	r1, r2
    469e:	2300      	movs	r3, #0
    46a0:	e7bc      	b.n	461c <__aeabi_ddiv+0x560>
    46a2:	075a      	lsls	r2, r3, #29
    46a4:	08c9      	lsrs	r1, r1, #3
    46a6:	430a      	orrs	r2, r1
    46a8:	9f03      	ldr	r7, [sp, #12]
    46aa:	4691      	mov	r9, r2
    46ac:	025b      	lsls	r3, r3, #9
    46ae:	2201      	movs	r2, #1
    46b0:	0b1c      	lsrs	r4, r3, #12
    46b2:	403a      	ands	r2, r7
    46b4:	2500      	movs	r5, #0
    46b6:	e5c9      	b.n	424c <__aeabi_ddiv+0x190>
    46b8:	454e      	cmp	r6, r9
    46ba:	d8c4      	bhi.n	4646 <__aeabi_ddiv+0x58a>
    46bc:	4693      	mov	r11, r2
    46be:	2100      	movs	r1, #0
    46c0:	e672      	b.n	43a8 <__aeabi_ddiv+0x2ec>
    46c2:	9f00      	ldr	r7, [sp, #0]
    46c4:	429f      	cmp	r7, r3
    46c6:	d3c9      	bcc.n	465c <__aeabi_ddiv+0x5a0>
    46c8:	1c01      	adds	r1, r0, #0
    46ca:	e70f      	b.n	44ec <__aeabi_ddiv+0x430>
    46cc:	2300      	movs	r3, #0
    46ce:	e7e2      	b.n	4696 <__aeabi_ddiv+0x5da>
    46d0:	2480      	movs	r4, #128	; 0x80
    46d2:	0324      	lsls	r4, r4, #12
    46d4:	465f      	mov	r7, r11
    46d6:	433c      	orrs	r4, r7
    46d8:	0324      	lsls	r4, r4, #12
    46da:	0b24      	lsrs	r4, r4, #12
    46dc:	9a01      	ldr	r2, [sp, #4]
    46de:	4689      	mov	r9, r1
    46e0:	4d03      	ldr	r5, [pc, #12]	; (46f0 <__aeabi_ddiv+0x634>)
    46e2:	e5b3      	b.n	424c <__aeabi_ddiv+0x190>
    46e4:	000003ff 	.word	0x000003ff
    46e8:	feffffff 	.word	0xfeffffff
    46ec:	000007fe 	.word	0x000007fe
    46f0:	000007ff 	.word	0x000007ff
    46f4:	fffffc02 	.word	0xfffffc02
    46f8:	0000041e 	.word	0x0000041e
    46fc:	fffffbe2 	.word	0xfffffbe2
    4700:	0000043e 	.word	0x0000043e

00004704 <__eqdf2>:
    4704:	b5f0      	push	{r4, r5, r6, r7, lr}
    4706:	465f      	mov	r7, r11
    4708:	4656      	mov	r6, r10
    470a:	464d      	mov	r5, r9
    470c:	4644      	mov	r4, r8
    470e:	b4f0      	push	{r4, r5, r6, r7}
    4710:	1c0d      	adds	r5, r1, #0
    4712:	1c04      	adds	r4, r0, #0
    4714:	4680      	mov	r8, r0
    4716:	0fe8      	lsrs	r0, r5, #31
    4718:	4681      	mov	r9, r0
    471a:	0318      	lsls	r0, r3, #12
    471c:	030f      	lsls	r7, r1, #12
    471e:	0b00      	lsrs	r0, r0, #12
    4720:	0b3f      	lsrs	r7, r7, #12
    4722:	b083      	sub	sp, #12
    4724:	4684      	mov	r12, r0
    4726:	481b      	ldr	r0, [pc, #108]	; (4794 <__eqdf2+0x90>)
    4728:	9700      	str	r7, [sp, #0]
    472a:	0049      	lsls	r1, r1, #1
    472c:	005e      	lsls	r6, r3, #1
    472e:	0fdf      	lsrs	r7, r3, #31
    4730:	0d49      	lsrs	r1, r1, #21
    4732:	4692      	mov	r10, r2
    4734:	0d76      	lsrs	r6, r6, #21
    4736:	46bb      	mov	r11, r7
    4738:	4281      	cmp	r1, r0
    473a:	d00c      	beq.n	4756 <__eqdf2+0x52>
    473c:	4815      	ldr	r0, [pc, #84]	; (4794 <__eqdf2+0x90>)
    473e:	4286      	cmp	r6, r0
    4740:	d010      	beq.n	4764 <__eqdf2+0x60>
    4742:	2001      	movs	r0, #1
    4744:	42b1      	cmp	r1, r6
    4746:	d015      	beq.n	4774 <__eqdf2+0x70>
    4748:	b003      	add	sp, #12
    474a:	bc3c      	pop	{r2, r3, r4, r5}
    474c:	4690      	mov	r8, r2
    474e:	4699      	mov	r9, r3
    4750:	46a2      	mov	r10, r4
    4752:	46ab      	mov	r11, r5
    4754:	bdf0      	pop	{r4, r5, r6, r7, pc}
    4756:	9f00      	ldr	r7, [sp, #0]
    4758:	2001      	movs	r0, #1
    475a:	4327      	orrs	r7, r4
    475c:	d1f4      	bne.n	4748 <__eqdf2+0x44>
    475e:	480d      	ldr	r0, [pc, #52]	; (4794 <__eqdf2+0x90>)
    4760:	4286      	cmp	r6, r0
    4762:	d1ee      	bne.n	4742 <__eqdf2+0x3e>
    4764:	4660      	mov	r0, r12
    4766:	4302      	orrs	r2, r0
    4768:	2001      	movs	r0, #1
    476a:	2a00      	cmp	r2, #0
    476c:	d1ec      	bne.n	4748 <__eqdf2+0x44>
    476e:	2001      	movs	r0, #1
    4770:	42b1      	cmp	r1, r6
    4772:	d1e9      	bne.n	4748 <__eqdf2+0x44>
    4774:	9b00      	ldr	r3, [sp, #0]
    4776:	4563      	cmp	r3, r12
    4778:	d1e6      	bne.n	4748 <__eqdf2+0x44>
    477a:	45d0      	cmp	r8, r10
    477c:	d1e4      	bne.n	4748 <__eqdf2+0x44>
    477e:	45d9      	cmp	r9, r11
    4780:	d006      	beq.n	4790 <__eqdf2+0x8c>
    4782:	2900      	cmp	r1, #0
    4784:	d1e0      	bne.n	4748 <__eqdf2+0x44>
    4786:	431c      	orrs	r4, r3
    4788:	1c20      	adds	r0, r4, #0
    478a:	1e44      	subs	r4, r0, #1
    478c:	41a0      	sbcs	r0, r4
    478e:	e7db      	b.n	4748 <__eqdf2+0x44>
    4790:	2000      	movs	r0, #0
    4792:	e7d9      	b.n	4748 <__eqdf2+0x44>
    4794:	000007ff 	.word	0x000007ff

00004798 <__gedf2>:
    4798:	b5f0      	push	{r4, r5, r6, r7, lr}
    479a:	465f      	mov	r7, r11
    479c:	4656      	mov	r6, r10
    479e:	464d      	mov	r5, r9
    47a0:	4644      	mov	r4, r8
    47a2:	b4f0      	push	{r4, r5, r6, r7}
    47a4:	0fcd      	lsrs	r5, r1, #31
    47a6:	0fde      	lsrs	r6, r3, #31
    47a8:	46ac      	mov	r12, r5
    47aa:	031d      	lsls	r5, r3, #12
    47ac:	0b2d      	lsrs	r5, r5, #12
    47ae:	46b1      	mov	r9, r6
    47b0:	4e37      	ldr	r6, [pc, #220]	; (4890 <__gedf2+0xf8>)
    47b2:	030f      	lsls	r7, r1, #12
    47b4:	004c      	lsls	r4, r1, #1
    47b6:	46ab      	mov	r11, r5
    47b8:	005d      	lsls	r5, r3, #1
    47ba:	4680      	mov	r8, r0
    47bc:	0b3f      	lsrs	r7, r7, #12
    47be:	0d64      	lsrs	r4, r4, #21
    47c0:	4692      	mov	r10, r2
    47c2:	0d6d      	lsrs	r5, r5, #21
    47c4:	42b4      	cmp	r4, r6
    47c6:	d032      	beq.n	482e <__gedf2+0x96>
    47c8:	4e31      	ldr	r6, [pc, #196]	; (4890 <__gedf2+0xf8>)
    47ca:	42b5      	cmp	r5, r6
    47cc:	d035      	beq.n	483a <__gedf2+0xa2>
    47ce:	2c00      	cmp	r4, #0
    47d0:	d10e      	bne.n	47f0 <__gedf2+0x58>
    47d2:	4338      	orrs	r0, r7
    47d4:	4241      	negs	r1, r0
    47d6:	4141      	adcs	r1, r0
    47d8:	1c08      	adds	r0, r1, #0
    47da:	2d00      	cmp	r5, #0
    47dc:	d00b      	beq.n	47f6 <__gedf2+0x5e>
    47de:	2900      	cmp	r1, #0
    47e0:	d119      	bne.n	4816 <__gedf2+0x7e>
    47e2:	45cc      	cmp	r12, r9
    47e4:	d02d      	beq.n	4842 <__gedf2+0xaa>
    47e6:	4665      	mov	r5, r12
    47e8:	4268      	negs	r0, r5
    47ea:	2301      	movs	r3, #1
    47ec:	4318      	orrs	r0, r3
    47ee:	e018      	b.n	4822 <__gedf2+0x8a>
    47f0:	2d00      	cmp	r5, #0
    47f2:	d1f6      	bne.n	47e2 <__gedf2+0x4a>
    47f4:	1c28      	adds	r0, r5, #0
    47f6:	4659      	mov	r1, r11
    47f8:	430a      	orrs	r2, r1
    47fa:	4253      	negs	r3, r2
    47fc:	4153      	adcs	r3, r2
    47fe:	2800      	cmp	r0, #0
    4800:	d106      	bne.n	4810 <__gedf2+0x78>
    4802:	2b00      	cmp	r3, #0
    4804:	d0ed      	beq.n	47e2 <__gedf2+0x4a>
    4806:	4663      	mov	r3, r12
    4808:	4258      	negs	r0, r3
    480a:	2301      	movs	r3, #1
    480c:	4318      	orrs	r0, r3
    480e:	e008      	b.n	4822 <__gedf2+0x8a>
    4810:	2000      	movs	r0, #0
    4812:	2b00      	cmp	r3, #0
    4814:	d105      	bne.n	4822 <__gedf2+0x8a>
    4816:	464a      	mov	r2, r9
    4818:	4250      	negs	r0, r2
    481a:	4150      	adcs	r0, r2
    481c:	4240      	negs	r0, r0
    481e:	2301      	movs	r3, #1
    4820:	4318      	orrs	r0, r3
    4822:	bc3c      	pop	{r2, r3, r4, r5}
    4824:	4690      	mov	r8, r2
    4826:	4699      	mov	r9, r3
    4828:	46a2      	mov	r10, r4
    482a:	46ab      	mov	r11, r5
    482c:	bdf0      	pop	{r4, r5, r6, r7, pc}
    482e:	1c3e      	adds	r6, r7, #0
    4830:	4306      	orrs	r6, r0
    4832:	d0c9      	beq.n	47c8 <__gedf2+0x30>
    4834:	2002      	movs	r0, #2
    4836:	4240      	negs	r0, r0
    4838:	e7f3      	b.n	4822 <__gedf2+0x8a>
    483a:	465e      	mov	r6, r11
    483c:	4316      	orrs	r6, r2
    483e:	d0c6      	beq.n	47ce <__gedf2+0x36>
    4840:	e7f8      	b.n	4834 <__gedf2+0x9c>
    4842:	42ac      	cmp	r4, r5
    4844:	dc07      	bgt.n	4856 <__gedf2+0xbe>
    4846:	da0b      	bge.n	4860 <__gedf2+0xc8>
    4848:	4661      	mov	r1, r12
    484a:	4248      	negs	r0, r1
    484c:	4148      	adcs	r0, r1
    484e:	4240      	negs	r0, r0
    4850:	2301      	movs	r3, #1
    4852:	4318      	orrs	r0, r3
    4854:	e7e5      	b.n	4822 <__gedf2+0x8a>
    4856:	4666      	mov	r6, r12
    4858:	4270      	negs	r0, r6
    485a:	2301      	movs	r3, #1
    485c:	4318      	orrs	r0, r3
    485e:	e7e0      	b.n	4822 <__gedf2+0x8a>
    4860:	455f      	cmp	r7, r11
    4862:	d80a      	bhi.n	487a <__gedf2+0xe2>
    4864:	d00e      	beq.n	4884 <__gedf2+0xec>
    4866:	2000      	movs	r0, #0
    4868:	455f      	cmp	r7, r11
    486a:	d2da      	bcs.n	4822 <__gedf2+0x8a>
    486c:	4665      	mov	r5, r12
    486e:	4268      	negs	r0, r5
    4870:	4168      	adcs	r0, r5
    4872:	4240      	negs	r0, r0
    4874:	2301      	movs	r3, #1
    4876:	4318      	orrs	r0, r3
    4878:	e7d3      	b.n	4822 <__gedf2+0x8a>
    487a:	4662      	mov	r2, r12
    487c:	4250      	negs	r0, r2
    487e:	2301      	movs	r3, #1
    4880:	4318      	orrs	r0, r3
    4882:	e7ce      	b.n	4822 <__gedf2+0x8a>
    4884:	45d0      	cmp	r8, r10
    4886:	d8f8      	bhi.n	487a <__gedf2+0xe2>
    4888:	2000      	movs	r0, #0
    488a:	45d0      	cmp	r8, r10
    488c:	d3ee      	bcc.n	486c <__gedf2+0xd4>
    488e:	e7c8      	b.n	4822 <__gedf2+0x8a>
    4890:	000007ff 	.word	0x000007ff

00004894 <__ledf2>:
    4894:	b5f0      	push	{r4, r5, r6, r7, lr}
    4896:	4656      	mov	r6, r10
    4898:	464d      	mov	r5, r9
    489a:	4644      	mov	r4, r8
    489c:	465f      	mov	r7, r11
    489e:	b4f0      	push	{r4, r5, r6, r7}
    48a0:	1c0d      	adds	r5, r1, #0
    48a2:	b083      	sub	sp, #12
    48a4:	1c04      	adds	r4, r0, #0
    48a6:	9001      	str	r0, [sp, #4]
    48a8:	0fe8      	lsrs	r0, r5, #31
    48aa:	4681      	mov	r9, r0
    48ac:	0318      	lsls	r0, r3, #12
    48ae:	030f      	lsls	r7, r1, #12
    48b0:	0b00      	lsrs	r0, r0, #12
    48b2:	0b3f      	lsrs	r7, r7, #12
    48b4:	4684      	mov	r12, r0
    48b6:	4835      	ldr	r0, [pc, #212]	; (498c <__ledf2+0xf8>)
    48b8:	9700      	str	r7, [sp, #0]
    48ba:	0049      	lsls	r1, r1, #1
    48bc:	005e      	lsls	r6, r3, #1
    48be:	0fdf      	lsrs	r7, r3, #31
    48c0:	0d49      	lsrs	r1, r1, #21
    48c2:	4692      	mov	r10, r2
    48c4:	0d76      	lsrs	r6, r6, #21
    48c6:	46b8      	mov	r8, r7
    48c8:	4281      	cmp	r1, r0
    48ca:	d034      	beq.n	4936 <__ledf2+0xa2>
    48cc:	482f      	ldr	r0, [pc, #188]	; (498c <__ledf2+0xf8>)
    48ce:	4286      	cmp	r6, r0
    48d0:	d036      	beq.n	4940 <__ledf2+0xac>
    48d2:	2900      	cmp	r1, #0
    48d4:	d018      	beq.n	4908 <__ledf2+0x74>
    48d6:	2e00      	cmp	r6, #0
    48d8:	d11f      	bne.n	491a <__ledf2+0x86>
    48da:	1c34      	adds	r4, r6, #0
    48dc:	4667      	mov	r7, r12
    48de:	433a      	orrs	r2, r7
    48e0:	4253      	negs	r3, r2
    48e2:	4153      	adcs	r3, r2
    48e4:	2c00      	cmp	r4, #0
    48e6:	d01f      	beq.n	4928 <__ledf2+0x94>
    48e8:	2000      	movs	r0, #0
    48ea:	2b00      	cmp	r3, #0
    48ec:	d105      	bne.n	48fa <__ledf2+0x66>
    48ee:	4642      	mov	r2, r8
    48f0:	4250      	negs	r0, r2
    48f2:	4150      	adcs	r0, r2
    48f4:	4240      	negs	r0, r0
    48f6:	2301      	movs	r3, #1
    48f8:	4318      	orrs	r0, r3
    48fa:	b003      	add	sp, #12
    48fc:	bc3c      	pop	{r2, r3, r4, r5}
    48fe:	4690      	mov	r8, r2
    4900:	4699      	mov	r9, r3
    4902:	46a2      	mov	r10, r4
    4904:	46ab      	mov	r11, r5
    4906:	bdf0      	pop	{r4, r5, r6, r7, pc}
    4908:	9800      	ldr	r0, [sp, #0]
    490a:	4304      	orrs	r4, r0
    490c:	4260      	negs	r0, r4
    490e:	4160      	adcs	r0, r4
    4910:	1c04      	adds	r4, r0, #0
    4912:	2e00      	cmp	r6, #0
    4914:	d0e2      	beq.n	48dc <__ledf2+0x48>
    4916:	2800      	cmp	r0, #0
    4918:	d1e9      	bne.n	48ee <__ledf2+0x5a>
    491a:	45c1      	cmp	r9, r8
    491c:	d015      	beq.n	494a <__ledf2+0xb6>
    491e:	464f      	mov	r7, r9
    4920:	4278      	negs	r0, r7
    4922:	2301      	movs	r3, #1
    4924:	4318      	orrs	r0, r3
    4926:	e7e8      	b.n	48fa <__ledf2+0x66>
    4928:	2b00      	cmp	r3, #0
    492a:	d0f6      	beq.n	491a <__ledf2+0x86>
    492c:	464b      	mov	r3, r9
    492e:	4258      	negs	r0, r3
    4930:	2301      	movs	r3, #1
    4932:	4318      	orrs	r0, r3
    4934:	e7e1      	b.n	48fa <__ledf2+0x66>
    4936:	9f00      	ldr	r7, [sp, #0]
    4938:	2002      	movs	r0, #2
    493a:	4327      	orrs	r7, r4
    493c:	d1dd      	bne.n	48fa <__ledf2+0x66>
    493e:	e7c5      	b.n	48cc <__ledf2+0x38>
    4940:	4667      	mov	r7, r12
    4942:	2002      	movs	r0, #2
    4944:	4317      	orrs	r7, r2
    4946:	d1d8      	bne.n	48fa <__ledf2+0x66>
    4948:	e7c3      	b.n	48d2 <__ledf2+0x3e>
    494a:	42b1      	cmp	r1, r6
    494c:	dd04      	ble.n	4958 <__ledf2+0xc4>
    494e:	464a      	mov	r2, r9
    4950:	4250      	negs	r0, r2
    4952:	2301      	movs	r3, #1
    4954:	4318      	orrs	r0, r3
    4956:	e7d0      	b.n	48fa <__ledf2+0x66>
    4958:	42b1      	cmp	r1, r6
    495a:	db07      	blt.n	496c <__ledf2+0xd8>
    495c:	9800      	ldr	r0, [sp, #0]
    495e:	4560      	cmp	r0, r12
    4960:	d8e4      	bhi.n	492c <__ledf2+0x98>
    4962:	d00a      	beq.n	497a <__ledf2+0xe6>
    4964:	9f00      	ldr	r7, [sp, #0]
    4966:	2000      	movs	r0, #0
    4968:	4567      	cmp	r7, r12
    496a:	d2c6      	bcs.n	48fa <__ledf2+0x66>
    496c:	464f      	mov	r7, r9
    496e:	4278      	negs	r0, r7
    4970:	4178      	adcs	r0, r7
    4972:	4240      	negs	r0, r0
    4974:	2301      	movs	r3, #1
    4976:	4318      	orrs	r0, r3
    4978:	e7bf      	b.n	48fa <__ledf2+0x66>
    497a:	9a01      	ldr	r2, [sp, #4]
    497c:	4552      	cmp	r2, r10
    497e:	d8d5      	bhi.n	492c <__ledf2+0x98>
    4980:	9a01      	ldr	r2, [sp, #4]
    4982:	2000      	movs	r0, #0
    4984:	4552      	cmp	r2, r10
    4986:	d3f1      	bcc.n	496c <__ledf2+0xd8>
    4988:	e7b7      	b.n	48fa <__ledf2+0x66>
    498a:	46c0      	nop			; (mov r8, r8)
    498c:	000007ff 	.word	0x000007ff

00004990 <__aeabi_dmul>:
    4990:	b5f0      	push	{r4, r5, r6, r7, lr}
    4992:	4656      	mov	r6, r10
    4994:	4644      	mov	r4, r8
    4996:	465f      	mov	r7, r11
    4998:	464d      	mov	r5, r9
    499a:	b4f0      	push	{r4, r5, r6, r7}
    499c:	1c1f      	adds	r7, r3, #0
    499e:	030b      	lsls	r3, r1, #12
    49a0:	0b1b      	lsrs	r3, r3, #12
    49a2:	469a      	mov	r10, r3
    49a4:	004b      	lsls	r3, r1, #1
    49a6:	b087      	sub	sp, #28
    49a8:	1c04      	adds	r4, r0, #0
    49aa:	4680      	mov	r8, r0
    49ac:	0d5b      	lsrs	r3, r3, #21
    49ae:	0fc8      	lsrs	r0, r1, #31
    49b0:	1c16      	adds	r6, r2, #0
    49b2:	9302      	str	r3, [sp, #8]
    49b4:	4681      	mov	r9, r0
    49b6:	2b00      	cmp	r3, #0
    49b8:	d068      	beq.n	4a8c <__aeabi_dmul+0xfc>
    49ba:	4b69      	ldr	r3, [pc, #420]	; (4b60 <__aeabi_dmul+0x1d0>)
    49bc:	9902      	ldr	r1, [sp, #8]
    49be:	4299      	cmp	r1, r3
    49c0:	d032      	beq.n	4a28 <__aeabi_dmul+0x98>
    49c2:	2280      	movs	r2, #128	; 0x80
    49c4:	4653      	mov	r3, r10
    49c6:	0352      	lsls	r2, r2, #13
    49c8:	431a      	orrs	r2, r3
    49ca:	00d2      	lsls	r2, r2, #3
    49cc:	0f63      	lsrs	r3, r4, #29
    49ce:	431a      	orrs	r2, r3
    49d0:	4692      	mov	r10, r2
    49d2:	4a64      	ldr	r2, [pc, #400]	; (4b64 <__aeabi_dmul+0x1d4>)
    49d4:	00e0      	lsls	r0, r4, #3
    49d6:	1889      	adds	r1, r1, r2
    49d8:	4680      	mov	r8, r0
    49da:	9102      	str	r1, [sp, #8]
    49dc:	2400      	movs	r4, #0
    49de:	2500      	movs	r5, #0
    49e0:	033b      	lsls	r3, r7, #12
    49e2:	0b1b      	lsrs	r3, r3, #12
    49e4:	469b      	mov	r11, r3
    49e6:	0078      	lsls	r0, r7, #1
    49e8:	0ffb      	lsrs	r3, r7, #31
    49ea:	1c32      	adds	r2, r6, #0
    49ec:	0d40      	lsrs	r0, r0, #21
    49ee:	9303      	str	r3, [sp, #12]
    49f0:	d100      	bne.n	49f4 <__aeabi_dmul+0x64>
    49f2:	e075      	b.n	4ae0 <__aeabi_dmul+0x150>
    49f4:	4b5a      	ldr	r3, [pc, #360]	; (4b60 <__aeabi_dmul+0x1d0>)
    49f6:	4298      	cmp	r0, r3
    49f8:	d069      	beq.n	4ace <__aeabi_dmul+0x13e>
    49fa:	2280      	movs	r2, #128	; 0x80
    49fc:	4659      	mov	r1, r11
    49fe:	0352      	lsls	r2, r2, #13
    4a00:	430a      	orrs	r2, r1
    4a02:	0f73      	lsrs	r3, r6, #29
    4a04:	00d2      	lsls	r2, r2, #3
    4a06:	431a      	orrs	r2, r3
    4a08:	4b56      	ldr	r3, [pc, #344]	; (4b64 <__aeabi_dmul+0x1d4>)
    4a0a:	4693      	mov	r11, r2
    4a0c:	18c0      	adds	r0, r0, r3
    4a0e:	00f2      	lsls	r2, r6, #3
    4a10:	2300      	movs	r3, #0
    4a12:	9903      	ldr	r1, [sp, #12]
    4a14:	464e      	mov	r6, r9
    4a16:	4071      	eors	r1, r6
    4a18:	431c      	orrs	r4, r3
    4a1a:	2c0f      	cmp	r4, #15
    4a1c:	d900      	bls.n	4a20 <__aeabi_dmul+0x90>
    4a1e:	e0a9      	b.n	4b74 <__aeabi_dmul+0x1e4>
    4a20:	4e51      	ldr	r6, [pc, #324]	; (4b68 <__aeabi_dmul+0x1d8>)
    4a22:	00a4      	lsls	r4, r4, #2
    4a24:	5934      	ldr	r4, [r6, r4]
    4a26:	46a7      	mov	pc, r4
    4a28:	4653      	mov	r3, r10
    4a2a:	431c      	orrs	r4, r3
    4a2c:	d000      	beq.n	4a30 <__aeabi_dmul+0xa0>
    4a2e:	e087      	b.n	4b40 <__aeabi_dmul+0x1b0>
    4a30:	2500      	movs	r5, #0
    4a32:	46aa      	mov	r10, r5
    4a34:	46a8      	mov	r8, r5
    4a36:	2408      	movs	r4, #8
    4a38:	2502      	movs	r5, #2
    4a3a:	e7d1      	b.n	49e0 <__aeabi_dmul+0x50>
    4a3c:	4649      	mov	r1, r9
    4a3e:	2d02      	cmp	r5, #2
    4a40:	d06c      	beq.n	4b1c <__aeabi_dmul+0x18c>
    4a42:	2d03      	cmp	r5, #3
    4a44:	d100      	bne.n	4a48 <__aeabi_dmul+0xb8>
    4a46:	e217      	b.n	4e78 <__aeabi_dmul+0x4e8>
    4a48:	2d01      	cmp	r5, #1
    4a4a:	d000      	beq.n	4a4e <__aeabi_dmul+0xbe>
    4a4c:	e158      	b.n	4d00 <__aeabi_dmul+0x370>
    4a4e:	400d      	ands	r5, r1
    4a50:	b2ed      	uxtb	r5, r5
    4a52:	2400      	movs	r4, #0
    4a54:	46a9      	mov	r9, r5
    4a56:	2300      	movs	r3, #0
    4a58:	46a0      	mov	r8, r4
    4a5a:	2000      	movs	r0, #0
    4a5c:	2100      	movs	r1, #0
    4a5e:	0325      	lsls	r5, r4, #12
    4a60:	0d0a      	lsrs	r2, r1, #20
    4a62:	051c      	lsls	r4, r3, #20
    4a64:	0b2d      	lsrs	r5, r5, #12
    4a66:	0512      	lsls	r2, r2, #20
    4a68:	4b40      	ldr	r3, [pc, #256]	; (4b6c <__aeabi_dmul+0x1dc>)
    4a6a:	432a      	orrs	r2, r5
    4a6c:	4013      	ands	r3, r2
    4a6e:	4323      	orrs	r3, r4
    4a70:	005b      	lsls	r3, r3, #1
    4a72:	464c      	mov	r4, r9
    4a74:	085b      	lsrs	r3, r3, #1
    4a76:	07e2      	lsls	r2, r4, #31
    4a78:	1c19      	adds	r1, r3, #0
    4a7a:	4640      	mov	r0, r8
    4a7c:	4311      	orrs	r1, r2
    4a7e:	b007      	add	sp, #28
    4a80:	bc3c      	pop	{r2, r3, r4, r5}
    4a82:	4690      	mov	r8, r2
    4a84:	4699      	mov	r9, r3
    4a86:	46a2      	mov	r10, r4
    4a88:	46ab      	mov	r11, r5
    4a8a:	bdf0      	pop	{r4, r5, r6, r7, pc}
    4a8c:	4653      	mov	r3, r10
    4a8e:	4323      	orrs	r3, r4
    4a90:	d050      	beq.n	4b34 <__aeabi_dmul+0x1a4>
    4a92:	4653      	mov	r3, r10
    4a94:	2b00      	cmp	r3, #0
    4a96:	d100      	bne.n	4a9a <__aeabi_dmul+0x10a>
    4a98:	e184      	b.n	4da4 <__aeabi_dmul+0x414>
    4a9a:	4650      	mov	r0, r10
    4a9c:	f000 fe10 	bl	56c0 <__clzsi2>
    4aa0:	1e03      	subs	r3, r0, #0
    4aa2:	2b27      	cmp	r3, #39	; 0x27
    4aa4:	dd00      	ble.n	4aa8 <__aeabi_dmul+0x118>
    4aa6:	e176      	b.n	4d96 <__aeabi_dmul+0x406>
    4aa8:	2128      	movs	r1, #40	; 0x28
    4aaa:	1a0d      	subs	r5, r1, r0
    4aac:	1c21      	adds	r1, r4, #0
    4aae:	3b08      	subs	r3, #8
    4ab0:	4652      	mov	r2, r10
    4ab2:	40e9      	lsrs	r1, r5
    4ab4:	409a      	lsls	r2, r3
    4ab6:	1c0d      	adds	r5, r1, #0
    4ab8:	4315      	orrs	r5, r2
    4aba:	1c22      	adds	r2, r4, #0
    4abc:	409a      	lsls	r2, r3
    4abe:	46aa      	mov	r10, r5
    4ac0:	4690      	mov	r8, r2
    4ac2:	4b2b      	ldr	r3, [pc, #172]	; (4b70 <__aeabi_dmul+0x1e0>)
    4ac4:	2400      	movs	r4, #0
    4ac6:	1a1b      	subs	r3, r3, r0
    4ac8:	9302      	str	r3, [sp, #8]
    4aca:	2500      	movs	r5, #0
    4acc:	e788      	b.n	49e0 <__aeabi_dmul+0x50>
    4ace:	465b      	mov	r3, r11
    4ad0:	431e      	orrs	r6, r3
    4ad2:	2303      	movs	r3, #3
    4ad4:	2e00      	cmp	r6, #0
    4ad6:	d19c      	bne.n	4a12 <__aeabi_dmul+0x82>
    4ad8:	46b3      	mov	r11, r6
    4ada:	2200      	movs	r2, #0
    4adc:	2302      	movs	r3, #2
    4ade:	e798      	b.n	4a12 <__aeabi_dmul+0x82>
    4ae0:	465b      	mov	r3, r11
    4ae2:	4333      	orrs	r3, r6
    4ae4:	d021      	beq.n	4b2a <__aeabi_dmul+0x19a>
    4ae6:	4658      	mov	r0, r11
    4ae8:	2800      	cmp	r0, #0
    4aea:	d100      	bne.n	4aee <__aeabi_dmul+0x15e>
    4aec:	e14e      	b.n	4d8c <__aeabi_dmul+0x3fc>
    4aee:	f000 fde7 	bl	56c0 <__clzsi2>
    4af2:	2827      	cmp	r0, #39	; 0x27
    4af4:	dd00      	ble.n	4af8 <__aeabi_dmul+0x168>
    4af6:	e142      	b.n	4d7e <__aeabi_dmul+0x3ee>
    4af8:	2128      	movs	r1, #40	; 0x28
    4afa:	1a0f      	subs	r7, r1, r0
    4afc:	1c02      	adds	r2, r0, #0
    4afe:	1c31      	adds	r1, r6, #0
    4b00:	3a08      	subs	r2, #8
    4b02:	465b      	mov	r3, r11
    4b04:	40f9      	lsrs	r1, r7
    4b06:	4093      	lsls	r3, r2
    4b08:	1c0f      	adds	r7, r1, #0
    4b0a:	431f      	orrs	r7, r3
    4b0c:	1c33      	adds	r3, r6, #0
    4b0e:	4093      	lsls	r3, r2
    4b10:	46bb      	mov	r11, r7
    4b12:	1c1a      	adds	r2, r3, #0
    4b14:	4b16      	ldr	r3, [pc, #88]	; (4b70 <__aeabi_dmul+0x1e0>)
    4b16:	1a18      	subs	r0, r3, r0
    4b18:	2300      	movs	r3, #0
    4b1a:	e77a      	b.n	4a12 <__aeabi_dmul+0x82>
    4b1c:	2301      	movs	r3, #1
    4b1e:	400b      	ands	r3, r1
    4b20:	2400      	movs	r4, #0
    4b22:	4699      	mov	r9, r3
    4b24:	46a0      	mov	r8, r4
    4b26:	4b0e      	ldr	r3, [pc, #56]	; (4b60 <__aeabi_dmul+0x1d0>)
    4b28:	e797      	b.n	4a5a <__aeabi_dmul+0xca>
    4b2a:	2700      	movs	r7, #0
    4b2c:	46bb      	mov	r11, r7
    4b2e:	2200      	movs	r2, #0
    4b30:	2301      	movs	r3, #1
    4b32:	e76e      	b.n	4a12 <__aeabi_dmul+0x82>
    4b34:	2100      	movs	r1, #0
    4b36:	2404      	movs	r4, #4
    4b38:	468a      	mov	r10, r1
    4b3a:	4688      	mov	r8, r1
    4b3c:	2501      	movs	r5, #1
    4b3e:	e74f      	b.n	49e0 <__aeabi_dmul+0x50>
    4b40:	240c      	movs	r4, #12
    4b42:	2503      	movs	r5, #3
    4b44:	e74c      	b.n	49e0 <__aeabi_dmul+0x50>
    4b46:	2500      	movs	r5, #0
    4b48:	2480      	movs	r4, #128	; 0x80
    4b4a:	46a9      	mov	r9, r5
    4b4c:	0324      	lsls	r4, r4, #12
    4b4e:	46a8      	mov	r8, r5
    4b50:	4b03      	ldr	r3, [pc, #12]	; (4b60 <__aeabi_dmul+0x1d0>)
    4b52:	e782      	b.n	4a5a <__aeabi_dmul+0xca>
    4b54:	46da      	mov	r10, r11
    4b56:	4690      	mov	r8, r2
    4b58:	9903      	ldr	r1, [sp, #12]
    4b5a:	1c1d      	adds	r5, r3, #0
    4b5c:	e76f      	b.n	4a3e <__aeabi_dmul+0xae>
    4b5e:	46c0      	nop			; (mov r8, r8)
    4b60:	000007ff 	.word	0x000007ff
    4b64:	fffffc01 	.word	0xfffffc01
    4b68:	00007b90 	.word	0x00007b90
    4b6c:	800fffff 	.word	0x800fffff
    4b70:	fffffc0d 	.word	0xfffffc0d
    4b74:	9f02      	ldr	r7, [sp, #8]
    4b76:	0c16      	lsrs	r6, r2, #16
    4b78:	1838      	adds	r0, r7, r0
    4b7a:	9004      	str	r0, [sp, #16]
    4b7c:	4640      	mov	r0, r8
    4b7e:	0c07      	lsrs	r7, r0, #16
    4b80:	0400      	lsls	r0, r0, #16
    4b82:	0c00      	lsrs	r0, r0, #16
    4b84:	0412      	lsls	r2, r2, #16
    4b86:	0c12      	lsrs	r2, r2, #16
    4b88:	1c03      	adds	r3, r0, #0
    4b8a:	4353      	muls	r3, r2
    4b8c:	1c04      	adds	r4, r0, #0
    4b8e:	1c3d      	adds	r5, r7, #0
    4b90:	4374      	muls	r4, r6
    4b92:	4355      	muls	r5, r2
    4b94:	4698      	mov	r8, r3
    4b96:	1c3b      	adds	r3, r7, #0
    4b98:	4373      	muls	r3, r6
    4b9a:	1964      	adds	r4, r4, r5
    4b9c:	46a4      	mov	r12, r4
    4b9e:	4644      	mov	r4, r8
    4ba0:	9302      	str	r3, [sp, #8]
    4ba2:	0c23      	lsrs	r3, r4, #16
    4ba4:	4463      	add	r3, r12
    4ba6:	429d      	cmp	r5, r3
    4ba8:	d904      	bls.n	4bb4 <__aeabi_dmul+0x224>
    4baa:	9d02      	ldr	r5, [sp, #8]
    4bac:	2480      	movs	r4, #128	; 0x80
    4bae:	0264      	lsls	r4, r4, #9
    4bb0:	192d      	adds	r5, r5, r4
    4bb2:	9502      	str	r5, [sp, #8]
    4bb4:	0c1d      	lsrs	r5, r3, #16
    4bb6:	9503      	str	r5, [sp, #12]
    4bb8:	4645      	mov	r5, r8
    4bba:	042c      	lsls	r4, r5, #16
    4bbc:	041b      	lsls	r3, r3, #16
    4bbe:	0c24      	lsrs	r4, r4, #16
    4bc0:	191c      	adds	r4, r3, r4
    4bc2:	9405      	str	r4, [sp, #20]
    4bc4:	465c      	mov	r4, r11
    4bc6:	0c23      	lsrs	r3, r4, #16
    4bc8:	1c05      	adds	r5, r0, #0
    4bca:	4358      	muls	r0, r3
    4bcc:	0424      	lsls	r4, r4, #16
    4bce:	0c24      	lsrs	r4, r4, #16
    4bd0:	4684      	mov	r12, r0
    4bd2:	1c38      	adds	r0, r7, #0
    4bd4:	4360      	muls	r0, r4
    4bd6:	4365      	muls	r5, r4
    4bd8:	435f      	muls	r7, r3
    4bda:	4681      	mov	r9, r0
    4bdc:	44cc      	add	r12, r9
    4bde:	0c28      	lsrs	r0, r5, #16
    4be0:	4460      	add	r0, r12
    4be2:	46bb      	mov	r11, r7
    4be4:	4581      	cmp	r9, r0
    4be6:	d902      	bls.n	4bee <__aeabi_dmul+0x25e>
    4be8:	2780      	movs	r7, #128	; 0x80
    4bea:	027f      	lsls	r7, r7, #9
    4bec:	44bb      	add	r11, r7
    4bee:	042d      	lsls	r5, r5, #16
    4bf0:	0c07      	lsrs	r7, r0, #16
    4bf2:	0c2d      	lsrs	r5, r5, #16
    4bf4:	0400      	lsls	r0, r0, #16
    4bf6:	1940      	adds	r0, r0, r5
    4bf8:	4655      	mov	r5, r10
    4bfa:	46bc      	mov	r12, r7
    4bfc:	042f      	lsls	r7, r5, #16
    4bfe:	44e3      	add	r11, r12
    4c00:	4684      	mov	r12, r0
    4c02:	0c28      	lsrs	r0, r5, #16
    4c04:	0c3d      	lsrs	r5, r7, #16
    4c06:	1c2f      	adds	r7, r5, #0
    4c08:	4357      	muls	r7, r2
    4c0a:	46b8      	mov	r8, r7
    4c0c:	1c2f      	adds	r7, r5, #0
    4c0e:	4377      	muls	r7, r6
    4c10:	4342      	muls	r2, r0
    4c12:	46b9      	mov	r9, r7
    4c14:	4647      	mov	r7, r8
    4c16:	0c3f      	lsrs	r7, r7, #16
    4c18:	4491      	add	r9, r2
    4c1a:	46ba      	mov	r10, r7
    4c1c:	44d1      	add	r9, r10
    4c1e:	4346      	muls	r6, r0
    4c20:	454a      	cmp	r2, r9
    4c22:	d902      	bls.n	4c2a <__aeabi_dmul+0x29a>
    4c24:	2280      	movs	r2, #128	; 0x80
    4c26:	0252      	lsls	r2, r2, #9
    4c28:	18b6      	adds	r6, r6, r2
    4c2a:	464f      	mov	r7, r9
    4c2c:	0c3a      	lsrs	r2, r7, #16
    4c2e:	18b6      	adds	r6, r6, r2
    4c30:	043a      	lsls	r2, r7, #16
    4c32:	4647      	mov	r7, r8
    4c34:	043f      	lsls	r7, r7, #16
    4c36:	0c3f      	lsrs	r7, r7, #16
    4c38:	46b8      	mov	r8, r7
    4c3a:	1c2f      	adds	r7, r5, #0
    4c3c:	4367      	muls	r7, r4
    4c3e:	435d      	muls	r5, r3
    4c40:	4344      	muls	r4, r0
    4c42:	4358      	muls	r0, r3
    4c44:	1965      	adds	r5, r4, r5
    4c46:	9001      	str	r0, [sp, #4]
    4c48:	0c38      	lsrs	r0, r7, #16
    4c4a:	182d      	adds	r5, r5, r0
    4c4c:	4442      	add	r2, r8
    4c4e:	46b8      	mov	r8, r7
    4c50:	42ac      	cmp	r4, r5
    4c52:	d904      	bls.n	4c5e <__aeabi_dmul+0x2ce>
    4c54:	9801      	ldr	r0, [sp, #4]
    4c56:	2380      	movs	r3, #128	; 0x80
    4c58:	025b      	lsls	r3, r3, #9
    4c5a:	18c0      	adds	r0, r0, r3
    4c5c:	9001      	str	r0, [sp, #4]
    4c5e:	9c03      	ldr	r4, [sp, #12]
    4c60:	9f02      	ldr	r7, [sp, #8]
    4c62:	1c20      	adds	r0, r4, #0
    4c64:	4460      	add	r0, r12
    4c66:	19c0      	adds	r0, r0, r7
    4c68:	4560      	cmp	r0, r12
    4c6a:	41a4      	sbcs	r4, r4
    4c6c:	4647      	mov	r7, r8
    4c6e:	4264      	negs	r4, r4
    4c70:	46a4      	mov	r12, r4
    4c72:	042b      	lsls	r3, r5, #16
    4c74:	043c      	lsls	r4, r7, #16
    4c76:	4699      	mov	r9, r3
    4c78:	0c24      	lsrs	r4, r4, #16
    4c7a:	444c      	add	r4, r9
    4c7c:	46a0      	mov	r8, r4
    4c7e:	44d8      	add	r8, r11
    4c80:	1880      	adds	r0, r0, r2
    4c82:	46c2      	mov	r10, r8
    4c84:	44e2      	add	r10, r12
    4c86:	4290      	cmp	r0, r2
    4c88:	4192      	sbcs	r2, r2
    4c8a:	4657      	mov	r7, r10
    4c8c:	4252      	negs	r2, r2
    4c8e:	4691      	mov	r9, r2
    4c90:	19f2      	adds	r2, r6, r7
    4c92:	45e2      	cmp	r10, r12
    4c94:	41bf      	sbcs	r7, r7
    4c96:	427f      	negs	r7, r7
    4c98:	464b      	mov	r3, r9
    4c9a:	46bc      	mov	r12, r7
    4c9c:	45d8      	cmp	r8, r11
    4c9e:	41bf      	sbcs	r7, r7
    4ca0:	18d4      	adds	r4, r2, r3
    4ca2:	427f      	negs	r7, r7
    4ca4:	4663      	mov	r3, r12
    4ca6:	431f      	orrs	r7, r3
    4ca8:	0c2d      	lsrs	r5, r5, #16
    4caa:	197f      	adds	r7, r7, r5
    4cac:	42b2      	cmp	r2, r6
    4cae:	4192      	sbcs	r2, r2
    4cb0:	454c      	cmp	r4, r9
    4cb2:	41ad      	sbcs	r5, r5
    4cb4:	4252      	negs	r2, r2
    4cb6:	426d      	negs	r5, r5
    4cb8:	4315      	orrs	r5, r2
    4cba:	9e01      	ldr	r6, [sp, #4]
    4cbc:	197d      	adds	r5, r7, r5
    4cbe:	19ab      	adds	r3, r5, r6
    4cc0:	0de2      	lsrs	r2, r4, #23
    4cc2:	025b      	lsls	r3, r3, #9
    4cc4:	9f05      	ldr	r7, [sp, #20]
    4cc6:	4313      	orrs	r3, r2
    4cc8:	0242      	lsls	r2, r0, #9
    4cca:	433a      	orrs	r2, r7
    4ccc:	469a      	mov	r10, r3
    4cce:	1e53      	subs	r3, r2, #1
    4cd0:	419a      	sbcs	r2, r3
    4cd2:	0dc3      	lsrs	r3, r0, #23
    4cd4:	1c10      	adds	r0, r2, #0
    4cd6:	4318      	orrs	r0, r3
    4cd8:	0264      	lsls	r4, r4, #9
    4cda:	4320      	orrs	r0, r4
    4cdc:	4680      	mov	r8, r0
    4cde:	4650      	mov	r0, r10
    4ce0:	01c0      	lsls	r0, r0, #7
    4ce2:	d50d      	bpl.n	4d00 <__aeabi_dmul+0x370>
    4ce4:	4645      	mov	r5, r8
    4ce6:	2201      	movs	r2, #1
    4ce8:	4656      	mov	r6, r10
    4cea:	9c04      	ldr	r4, [sp, #16]
    4cec:	086b      	lsrs	r3, r5, #1
    4cee:	402a      	ands	r2, r5
    4cf0:	431a      	orrs	r2, r3
    4cf2:	07f3      	lsls	r3, r6, #31
    4cf4:	3401      	adds	r4, #1
    4cf6:	431a      	orrs	r2, r3
    4cf8:	0876      	lsrs	r6, r6, #1
    4cfa:	9404      	str	r4, [sp, #16]
    4cfc:	4690      	mov	r8, r2
    4cfe:	46b2      	mov	r10, r6
    4d00:	9e04      	ldr	r6, [sp, #16]
    4d02:	4f63      	ldr	r7, [pc, #396]	; (4e90 <__aeabi_dmul+0x500>)
    4d04:	19f3      	adds	r3, r6, r7
    4d06:	2b00      	cmp	r3, #0
    4d08:	dd61      	ble.n	4dce <__aeabi_dmul+0x43e>
    4d0a:	4640      	mov	r0, r8
    4d0c:	0740      	lsls	r0, r0, #29
    4d0e:	d00b      	beq.n	4d28 <__aeabi_dmul+0x398>
    4d10:	220f      	movs	r2, #15
    4d12:	4644      	mov	r4, r8
    4d14:	4022      	ands	r2, r4
    4d16:	2a04      	cmp	r2, #4
    4d18:	d006      	beq.n	4d28 <__aeabi_dmul+0x398>
    4d1a:	4642      	mov	r2, r8
    4d1c:	3204      	adds	r2, #4
    4d1e:	4542      	cmp	r2, r8
    4d20:	4180      	sbcs	r0, r0
    4d22:	4240      	negs	r0, r0
    4d24:	4482      	add	r10, r0
    4d26:	4690      	mov	r8, r2
    4d28:	4655      	mov	r5, r10
    4d2a:	01ed      	lsls	r5, r5, #7
    4d2c:	d507      	bpl.n	4d3e <__aeabi_dmul+0x3ae>
    4d2e:	4b59      	ldr	r3, [pc, #356]	; (4e94 <__aeabi_dmul+0x504>)
    4d30:	4656      	mov	r6, r10
    4d32:	9f04      	ldr	r7, [sp, #16]
    4d34:	2080      	movs	r0, #128	; 0x80
    4d36:	401e      	ands	r6, r3
    4d38:	00c0      	lsls	r0, r0, #3
    4d3a:	46b2      	mov	r10, r6
    4d3c:	183b      	adds	r3, r7, r0
    4d3e:	4a56      	ldr	r2, [pc, #344]	; (4e98 <__aeabi_dmul+0x508>)
    4d40:	4293      	cmp	r3, r2
    4d42:	dd00      	ble.n	4d46 <__aeabi_dmul+0x3b6>
    4d44:	e6ea      	b.n	4b1c <__aeabi_dmul+0x18c>
    4d46:	4644      	mov	r4, r8
    4d48:	4655      	mov	r5, r10
    4d4a:	08e2      	lsrs	r2, r4, #3
    4d4c:	0768      	lsls	r0, r5, #29
    4d4e:	4310      	orrs	r0, r2
    4d50:	2201      	movs	r2, #1
    4d52:	026c      	lsls	r4, r5, #9
    4d54:	055b      	lsls	r3, r3, #21
    4d56:	400a      	ands	r2, r1
    4d58:	4680      	mov	r8, r0
    4d5a:	0b24      	lsrs	r4, r4, #12
    4d5c:	0d5b      	lsrs	r3, r3, #21
    4d5e:	4691      	mov	r9, r2
    4d60:	e67b      	b.n	4a5a <__aeabi_dmul+0xca>
    4d62:	46da      	mov	r10, r11
    4d64:	4690      	mov	r8, r2
    4d66:	1c1d      	adds	r5, r3, #0
    4d68:	e669      	b.n	4a3e <__aeabi_dmul+0xae>
    4d6a:	2480      	movs	r4, #128	; 0x80
    4d6c:	0324      	lsls	r4, r4, #12
    4d6e:	4657      	mov	r7, r10
    4d70:	4227      	tst	r7, r4
    4d72:	d11c      	bne.n	4dae <__aeabi_dmul+0x41e>
    4d74:	433c      	orrs	r4, r7
    4d76:	0324      	lsls	r4, r4, #12
    4d78:	0b24      	lsrs	r4, r4, #12
    4d7a:	4b48      	ldr	r3, [pc, #288]	; (4e9c <__aeabi_dmul+0x50c>)
    4d7c:	e66d      	b.n	4a5a <__aeabi_dmul+0xca>
    4d7e:	1c03      	adds	r3, r0, #0
    4d80:	3b28      	subs	r3, #40	; 0x28
    4d82:	1c31      	adds	r1, r6, #0
    4d84:	4099      	lsls	r1, r3
    4d86:	468b      	mov	r11, r1
    4d88:	2200      	movs	r2, #0
    4d8a:	e6c3      	b.n	4b14 <__aeabi_dmul+0x184>
    4d8c:	1c30      	adds	r0, r6, #0
    4d8e:	f000 fc97 	bl	56c0 <__clzsi2>
    4d92:	3020      	adds	r0, #32
    4d94:	e6ad      	b.n	4af2 <__aeabi_dmul+0x162>
    4d96:	3b28      	subs	r3, #40	; 0x28
    4d98:	1c21      	adds	r1, r4, #0
    4d9a:	4099      	lsls	r1, r3
    4d9c:	2200      	movs	r2, #0
    4d9e:	468a      	mov	r10, r1
    4da0:	4690      	mov	r8, r2
    4da2:	e68e      	b.n	4ac2 <__aeabi_dmul+0x132>
    4da4:	1c20      	adds	r0, r4, #0
    4da6:	f000 fc8b 	bl	56c0 <__clzsi2>
    4daa:	3020      	adds	r0, #32
    4dac:	e678      	b.n	4aa0 <__aeabi_dmul+0x110>
    4dae:	4658      	mov	r0, r11
    4db0:	4220      	tst	r0, r4
    4db2:	d107      	bne.n	4dc4 <__aeabi_dmul+0x434>
    4db4:	4304      	orrs	r4, r0
    4db6:	9903      	ldr	r1, [sp, #12]
    4db8:	0324      	lsls	r4, r4, #12
    4dba:	0b24      	lsrs	r4, r4, #12
    4dbc:	4689      	mov	r9, r1
    4dbe:	4690      	mov	r8, r2
    4dc0:	4b36      	ldr	r3, [pc, #216]	; (4e9c <__aeabi_dmul+0x50c>)
    4dc2:	e64a      	b.n	4a5a <__aeabi_dmul+0xca>
    4dc4:	433c      	orrs	r4, r7
    4dc6:	0324      	lsls	r4, r4, #12
    4dc8:	0b24      	lsrs	r4, r4, #12
    4dca:	4b34      	ldr	r3, [pc, #208]	; (4e9c <__aeabi_dmul+0x50c>)
    4dcc:	e645      	b.n	4a5a <__aeabi_dmul+0xca>
    4dce:	4b34      	ldr	r3, [pc, #208]	; (4ea0 <__aeabi_dmul+0x510>)
    4dd0:	9e04      	ldr	r6, [sp, #16]
    4dd2:	1b9b      	subs	r3, r3, r6
    4dd4:	2b38      	cmp	r3, #56	; 0x38
    4dd6:	dd06      	ble.n	4de6 <__aeabi_dmul+0x456>
    4dd8:	2301      	movs	r3, #1
    4dda:	400b      	ands	r3, r1
    4ddc:	2400      	movs	r4, #0
    4dde:	4699      	mov	r9, r3
    4de0:	46a0      	mov	r8, r4
    4de2:	2300      	movs	r3, #0
    4de4:	e639      	b.n	4a5a <__aeabi_dmul+0xca>
    4de6:	2b1f      	cmp	r3, #31
    4de8:	dc25      	bgt.n	4e36 <__aeabi_dmul+0x4a6>
    4dea:	9c04      	ldr	r4, [sp, #16]
    4dec:	4d2d      	ldr	r5, [pc, #180]	; (4ea4 <__aeabi_dmul+0x514>)
    4dee:	4646      	mov	r6, r8
    4df0:	1960      	adds	r0, r4, r5
    4df2:	4652      	mov	r2, r10
    4df4:	4644      	mov	r4, r8
    4df6:	4086      	lsls	r6, r0
    4df8:	40dc      	lsrs	r4, r3
    4dfa:	4082      	lsls	r2, r0
    4dfc:	4657      	mov	r7, r10
    4dfe:	1c30      	adds	r0, r6, #0
    4e00:	4322      	orrs	r2, r4
    4e02:	40df      	lsrs	r7, r3
    4e04:	1e44      	subs	r4, r0, #1
    4e06:	41a0      	sbcs	r0, r4
    4e08:	4302      	orrs	r2, r0
    4e0a:	1c3b      	adds	r3, r7, #0
    4e0c:	0754      	lsls	r4, r2, #29
    4e0e:	d009      	beq.n	4e24 <__aeabi_dmul+0x494>
    4e10:	200f      	movs	r0, #15
    4e12:	4010      	ands	r0, r2
    4e14:	2804      	cmp	r0, #4
    4e16:	d005      	beq.n	4e24 <__aeabi_dmul+0x494>
    4e18:	1d10      	adds	r0, r2, #4
    4e1a:	4290      	cmp	r0, r2
    4e1c:	4192      	sbcs	r2, r2
    4e1e:	4252      	negs	r2, r2
    4e20:	189b      	adds	r3, r3, r2
    4e22:	1c02      	adds	r2, r0, #0
    4e24:	021d      	lsls	r5, r3, #8
    4e26:	d51a      	bpl.n	4e5e <__aeabi_dmul+0x4ce>
    4e28:	2301      	movs	r3, #1
    4e2a:	400b      	ands	r3, r1
    4e2c:	2400      	movs	r4, #0
    4e2e:	4699      	mov	r9, r3
    4e30:	46a0      	mov	r8, r4
    4e32:	2301      	movs	r3, #1
    4e34:	e611      	b.n	4a5a <__aeabi_dmul+0xca>
    4e36:	481c      	ldr	r0, [pc, #112]	; (4ea8 <__aeabi_dmul+0x518>)
    4e38:	9c04      	ldr	r4, [sp, #16]
    4e3a:	4655      	mov	r5, r10
    4e3c:	1b00      	subs	r0, r0, r4
    4e3e:	40c5      	lsrs	r5, r0
    4e40:	1c28      	adds	r0, r5, #0
    4e42:	2b20      	cmp	r3, #32
    4e44:	d016      	beq.n	4e74 <__aeabi_dmul+0x4e4>
    4e46:	4e19      	ldr	r6, [pc, #100]	; (4eac <__aeabi_dmul+0x51c>)
    4e48:	4657      	mov	r7, r10
    4e4a:	19a2      	adds	r2, r4, r6
    4e4c:	4097      	lsls	r7, r2
    4e4e:	1c3a      	adds	r2, r7, #0
    4e50:	4643      	mov	r3, r8
    4e52:	431a      	orrs	r2, r3
    4e54:	1e53      	subs	r3, r2, #1
    4e56:	419a      	sbcs	r2, r3
    4e58:	4302      	orrs	r2, r0
    4e5a:	2300      	movs	r3, #0
    4e5c:	e7d6      	b.n	4e0c <__aeabi_dmul+0x47c>
    4e5e:	0758      	lsls	r0, r3, #29
    4e60:	025b      	lsls	r3, r3, #9
    4e62:	08d2      	lsrs	r2, r2, #3
    4e64:	0b1c      	lsrs	r4, r3, #12
    4e66:	2301      	movs	r3, #1
    4e68:	400b      	ands	r3, r1
    4e6a:	4310      	orrs	r0, r2
    4e6c:	4699      	mov	r9, r3
    4e6e:	4680      	mov	r8, r0
    4e70:	2300      	movs	r3, #0
    4e72:	e5f2      	b.n	4a5a <__aeabi_dmul+0xca>
    4e74:	2200      	movs	r2, #0
    4e76:	e7eb      	b.n	4e50 <__aeabi_dmul+0x4c0>
    4e78:	2480      	movs	r4, #128	; 0x80
    4e7a:	0324      	lsls	r4, r4, #12
    4e7c:	4650      	mov	r0, r10
    4e7e:	2301      	movs	r3, #1
    4e80:	4304      	orrs	r4, r0
    4e82:	4019      	ands	r1, r3
    4e84:	0324      	lsls	r4, r4, #12
    4e86:	0b24      	lsrs	r4, r4, #12
    4e88:	4689      	mov	r9, r1
    4e8a:	4b04      	ldr	r3, [pc, #16]	; (4e9c <__aeabi_dmul+0x50c>)
    4e8c:	e5e5      	b.n	4a5a <__aeabi_dmul+0xca>
    4e8e:	46c0      	nop			; (mov r8, r8)
    4e90:	000003ff 	.word	0x000003ff
    4e94:	feffffff 	.word	0xfeffffff
    4e98:	000007fe 	.word	0x000007fe
    4e9c:	000007ff 	.word	0x000007ff
    4ea0:	fffffc02 	.word	0xfffffc02
    4ea4:	0000041e 	.word	0x0000041e
    4ea8:	fffffbe2 	.word	0xfffffbe2
    4eac:	0000043e 	.word	0x0000043e

00004eb0 <__aeabi_dsub>:
    4eb0:	b5f8      	push	{r3, r4, r5, r6, r7, lr}
    4eb2:	465f      	mov	r7, r11
    4eb4:	4656      	mov	r6, r10
    4eb6:	4644      	mov	r4, r8
    4eb8:	464d      	mov	r5, r9
    4eba:	b4f0      	push	{r4, r5, r6, r7}
    4ebc:	030c      	lsls	r4, r1, #12
    4ebe:	004d      	lsls	r5, r1, #1
    4ec0:	0fcf      	lsrs	r7, r1, #31
    4ec2:	0a61      	lsrs	r1, r4, #9
    4ec4:	0f44      	lsrs	r4, r0, #29
    4ec6:	4321      	orrs	r1, r4
    4ec8:	00c4      	lsls	r4, r0, #3
    4eca:	0318      	lsls	r0, r3, #12
    4ecc:	0fde      	lsrs	r6, r3, #31
    4ece:	4680      	mov	r8, r0
    4ed0:	46b4      	mov	r12, r6
    4ed2:	4646      	mov	r6, r8
    4ed4:	0058      	lsls	r0, r3, #1
    4ed6:	0a76      	lsrs	r6, r6, #9
    4ed8:	0f53      	lsrs	r3, r2, #29
    4eda:	4333      	orrs	r3, r6
    4edc:	00d6      	lsls	r6, r2, #3
    4ede:	4ac9      	ldr	r2, [pc, #804]	; (5204 <__aeabi_dsub+0x354>)
    4ee0:	0d6d      	lsrs	r5, r5, #21
    4ee2:	46ba      	mov	r10, r7
    4ee4:	0d40      	lsrs	r0, r0, #21
    4ee6:	46b3      	mov	r11, r6
    4ee8:	4290      	cmp	r0, r2
    4eea:	d100      	bne.n	4eee <__aeabi_dsub+0x3e>
    4eec:	e0eb      	b.n	50c6 <__aeabi_dsub+0x216>
    4eee:	4662      	mov	r2, r12
    4ef0:	2601      	movs	r6, #1
    4ef2:	4072      	eors	r2, r6
    4ef4:	4694      	mov	r12, r2
    4ef6:	4567      	cmp	r7, r12
    4ef8:	d100      	bne.n	4efc <__aeabi_dsub+0x4c>
    4efa:	e0a1      	b.n	5040 <__aeabi_dsub+0x190>
    4efc:	1a2f      	subs	r7, r5, r0
    4efe:	2f00      	cmp	r7, #0
    4f00:	dc00      	bgt.n	4f04 <__aeabi_dsub+0x54>
    4f02:	e108      	b.n	5116 <__aeabi_dsub+0x266>
    4f04:	2800      	cmp	r0, #0
    4f06:	d13b      	bne.n	4f80 <__aeabi_dsub+0xd0>
    4f08:	4658      	mov	r0, r11
    4f0a:	4318      	orrs	r0, r3
    4f0c:	d000      	beq.n	4f10 <__aeabi_dsub+0x60>
    4f0e:	e0e8      	b.n	50e2 <__aeabi_dsub+0x232>
    4f10:	0760      	lsls	r0, r4, #29
    4f12:	d009      	beq.n	4f28 <__aeabi_dsub+0x78>
    4f14:	230f      	movs	r3, #15
    4f16:	4023      	ands	r3, r4
    4f18:	2b04      	cmp	r3, #4
    4f1a:	d005      	beq.n	4f28 <__aeabi_dsub+0x78>
    4f1c:	1d23      	adds	r3, r4, #4
    4f1e:	42a3      	cmp	r3, r4
    4f20:	41a4      	sbcs	r4, r4
    4f22:	4264      	negs	r4, r4
    4f24:	1909      	adds	r1, r1, r4
    4f26:	1c1c      	adds	r4, r3, #0
    4f28:	020a      	lsls	r2, r1, #8
    4f2a:	d400      	bmi.n	4f2e <__aeabi_dsub+0x7e>
    4f2c:	e079      	b.n	5022 <__aeabi_dsub+0x172>
    4f2e:	4bb5      	ldr	r3, [pc, #724]	; (5204 <__aeabi_dsub+0x354>)
    4f30:	1c6a      	adds	r2, r5, #1
    4f32:	429a      	cmp	r2, r3
    4f34:	d100      	bne.n	4f38 <__aeabi_dsub+0x88>
    4f36:	e109      	b.n	514c <__aeabi_dsub+0x29c>
    4f38:	4bb3      	ldr	r3, [pc, #716]	; (5208 <__aeabi_dsub+0x358>)
    4f3a:	08e4      	lsrs	r4, r4, #3
    4f3c:	4019      	ands	r1, r3
    4f3e:	0748      	lsls	r0, r1, #29
    4f40:	4304      	orrs	r4, r0
    4f42:	0249      	lsls	r1, r1, #9
    4f44:	0552      	lsls	r2, r2, #21
    4f46:	2701      	movs	r7, #1
    4f48:	4650      	mov	r0, r10
    4f4a:	0b0b      	lsrs	r3, r1, #12
    4f4c:	0d52      	lsrs	r2, r2, #21
    4f4e:	4007      	ands	r7, r0
    4f50:	2000      	movs	r0, #0
    4f52:	2100      	movs	r1, #0
    4f54:	031b      	lsls	r3, r3, #12
    4f56:	1c20      	adds	r0, r4, #0
    4f58:	0b1c      	lsrs	r4, r3, #12
    4f5a:	0d0b      	lsrs	r3, r1, #20
    4f5c:	051b      	lsls	r3, r3, #20
    4f5e:	4dab      	ldr	r5, [pc, #684]	; (520c <__aeabi_dsub+0x35c>)
    4f60:	4323      	orrs	r3, r4
    4f62:	0552      	lsls	r2, r2, #21
    4f64:	0852      	lsrs	r2, r2, #1
    4f66:	401d      	ands	r5, r3
    4f68:	4315      	orrs	r5, r2
    4f6a:	006d      	lsls	r5, r5, #1
    4f6c:	086d      	lsrs	r5, r5, #1
    4f6e:	07ff      	lsls	r7, r7, #31
    4f70:	1c29      	adds	r1, r5, #0
    4f72:	4339      	orrs	r1, r7
    4f74:	bc3c      	pop	{r2, r3, r4, r5}
    4f76:	4690      	mov	r8, r2
    4f78:	4699      	mov	r9, r3
    4f7a:	46a2      	mov	r10, r4
    4f7c:	46ab      	mov	r11, r5
    4f7e:	bdf8      	pop	{r3, r4, r5, r6, r7, pc}
    4f80:	48a0      	ldr	r0, [pc, #640]	; (5204 <__aeabi_dsub+0x354>)
    4f82:	4285      	cmp	r5, r0
    4f84:	d0c4      	beq.n	4f10 <__aeabi_dsub+0x60>
    4f86:	2080      	movs	r0, #128	; 0x80
    4f88:	0400      	lsls	r0, r0, #16
    4f8a:	4303      	orrs	r3, r0
    4f8c:	2f38      	cmp	r7, #56	; 0x38
    4f8e:	dd00      	ble.n	4f92 <__aeabi_dsub+0xe2>
    4f90:	e0f0      	b.n	5174 <__aeabi_dsub+0x2c4>
    4f92:	2f1f      	cmp	r7, #31
    4f94:	dd00      	ble.n	4f98 <__aeabi_dsub+0xe8>
    4f96:	e124      	b.n	51e2 <__aeabi_dsub+0x332>
    4f98:	2020      	movs	r0, #32
    4f9a:	1bc0      	subs	r0, r0, r7
    4f9c:	1c1a      	adds	r2, r3, #0
    4f9e:	465e      	mov	r6, r11
    4fa0:	4082      	lsls	r2, r0
    4fa2:	40fe      	lsrs	r6, r7
    4fa4:	4332      	orrs	r2, r6
    4fa6:	4694      	mov	r12, r2
    4fa8:	465a      	mov	r2, r11
    4faa:	4082      	lsls	r2, r0
    4fac:	1c10      	adds	r0, r2, #0
    4fae:	1e42      	subs	r2, r0, #1
    4fb0:	4190      	sbcs	r0, r2
    4fb2:	40fb      	lsrs	r3, r7
    4fb4:	4662      	mov	r2, r12
    4fb6:	4302      	orrs	r2, r0
    4fb8:	1c1f      	adds	r7, r3, #0
    4fba:	1aa2      	subs	r2, r4, r2
    4fbc:	4294      	cmp	r4, r2
    4fbe:	41a4      	sbcs	r4, r4
    4fc0:	4264      	negs	r4, r4
    4fc2:	1bc9      	subs	r1, r1, r7
    4fc4:	1b09      	subs	r1, r1, r4
    4fc6:	1c14      	adds	r4, r2, #0
    4fc8:	020a      	lsls	r2, r1, #8
    4fca:	d5a1      	bpl.n	4f10 <__aeabi_dsub+0x60>
    4fcc:	0249      	lsls	r1, r1, #9
    4fce:	0a4f      	lsrs	r7, r1, #9
    4fd0:	2f00      	cmp	r7, #0
    4fd2:	d100      	bne.n	4fd6 <__aeabi_dsub+0x126>
    4fd4:	e0c9      	b.n	516a <__aeabi_dsub+0x2ba>
    4fd6:	1c38      	adds	r0, r7, #0
    4fd8:	f000 fb72 	bl	56c0 <__clzsi2>
    4fdc:	1c02      	adds	r2, r0, #0
    4fde:	3a08      	subs	r2, #8
    4fe0:	2a1f      	cmp	r2, #31
    4fe2:	dd00      	ble.n	4fe6 <__aeabi_dsub+0x136>
    4fe4:	e0bc      	b.n	5160 <__aeabi_dsub+0x2b0>
    4fe6:	2128      	movs	r1, #40	; 0x28
    4fe8:	1c23      	adds	r3, r4, #0
    4fea:	1a09      	subs	r1, r1, r0
    4fec:	4097      	lsls	r7, r2
    4fee:	40cb      	lsrs	r3, r1
    4ff0:	431f      	orrs	r7, r3
    4ff2:	4094      	lsls	r4, r2
    4ff4:	4295      	cmp	r5, r2
    4ff6:	dd00      	ble.n	4ffa <__aeabi_dsub+0x14a>
    4ff8:	e0ae      	b.n	5158 <__aeabi_dsub+0x2a8>
    4ffa:	1b55      	subs	r5, r2, r5
    4ffc:	1c69      	adds	r1, r5, #1
    4ffe:	291f      	cmp	r1, #31
    5000:	dd00      	ble.n	5004 <__aeabi_dsub+0x154>
    5002:	e0dd      	b.n	51c0 <__aeabi_dsub+0x310>
    5004:	221f      	movs	r2, #31
    5006:	1b55      	subs	r5, r2, r5
    5008:	1c3b      	adds	r3, r7, #0
    500a:	1c22      	adds	r2, r4, #0
    500c:	40ab      	lsls	r3, r5
    500e:	40ca      	lsrs	r2, r1
    5010:	40ac      	lsls	r4, r5
    5012:	1e65      	subs	r5, r4, #1
    5014:	41ac      	sbcs	r4, r5
    5016:	4313      	orrs	r3, r2
    5018:	40cf      	lsrs	r7, r1
    501a:	431c      	orrs	r4, r3
    501c:	1c39      	adds	r1, r7, #0
    501e:	2500      	movs	r5, #0
    5020:	e776      	b.n	4f10 <__aeabi_dsub+0x60>
    5022:	0748      	lsls	r0, r1, #29
    5024:	08e4      	lsrs	r4, r4, #3
    5026:	056a      	lsls	r2, r5, #21
    5028:	2701      	movs	r7, #1
    502a:	4656      	mov	r6, r10
    502c:	08c9      	lsrs	r1, r1, #3
    502e:	0d52      	lsrs	r2, r2, #21
    5030:	4037      	ands	r7, r6
    5032:	4304      	orrs	r4, r0
    5034:	4b73      	ldr	r3, [pc, #460]	; (5204 <__aeabi_dsub+0x354>)
    5036:	429d      	cmp	r5, r3
    5038:	d049      	beq.n	50ce <__aeabi_dsub+0x21e>
    503a:	0309      	lsls	r1, r1, #12
    503c:	0b0b      	lsrs	r3, r1, #12
    503e:	e787      	b.n	4f50 <__aeabi_dsub+0xa0>
    5040:	1a2a      	subs	r2, r5, r0
    5042:	4694      	mov	r12, r2
    5044:	2a00      	cmp	r2, #0
    5046:	dc00      	bgt.n	504a <__aeabi_dsub+0x19a>
    5048:	e09b      	b.n	5182 <__aeabi_dsub+0x2d2>
    504a:	2800      	cmp	r0, #0
    504c:	d055      	beq.n	50fa <__aeabi_dsub+0x24a>
    504e:	486d      	ldr	r0, [pc, #436]	; (5204 <__aeabi_dsub+0x354>)
    5050:	4285      	cmp	r5, r0
    5052:	d100      	bne.n	5056 <__aeabi_dsub+0x1a6>
    5054:	e75c      	b.n	4f10 <__aeabi_dsub+0x60>
    5056:	2080      	movs	r0, #128	; 0x80
    5058:	0400      	lsls	r0, r0, #16
    505a:	4303      	orrs	r3, r0
    505c:	4660      	mov	r0, r12
    505e:	2838      	cmp	r0, #56	; 0x38
    5060:	dd00      	ble.n	5064 <__aeabi_dsub+0x1b4>
    5062:	e109      	b.n	5278 <__aeabi_dsub+0x3c8>
    5064:	281f      	cmp	r0, #31
    5066:	dd00      	ble.n	506a <__aeabi_dsub+0x1ba>
    5068:	e150      	b.n	530c <__aeabi_dsub+0x45c>
    506a:	4662      	mov	r2, r12
    506c:	2020      	movs	r0, #32
    506e:	1a80      	subs	r0, r0, r2
    5070:	1c1e      	adds	r6, r3, #0
    5072:	4086      	lsls	r6, r0
    5074:	46b1      	mov	r9, r6
    5076:	465e      	mov	r6, r11
    5078:	40d6      	lsrs	r6, r2
    507a:	464a      	mov	r2, r9
    507c:	4332      	orrs	r2, r6
    507e:	465e      	mov	r6, r11
    5080:	4086      	lsls	r6, r0
    5082:	4690      	mov	r8, r2
    5084:	1c30      	adds	r0, r6, #0
    5086:	1e42      	subs	r2, r0, #1
    5088:	4190      	sbcs	r0, r2
    508a:	4642      	mov	r2, r8
    508c:	4302      	orrs	r2, r0
    508e:	4660      	mov	r0, r12
    5090:	40c3      	lsrs	r3, r0
    5092:	1912      	adds	r2, r2, r4
    5094:	42a2      	cmp	r2, r4
    5096:	41a4      	sbcs	r4, r4
    5098:	4264      	negs	r4, r4
    509a:	1859      	adds	r1, r3, r1
    509c:	1909      	adds	r1, r1, r4
    509e:	1c14      	adds	r4, r2, #0
    50a0:	0208      	lsls	r0, r1, #8
    50a2:	d400      	bmi.n	50a6 <__aeabi_dsub+0x1f6>
    50a4:	e734      	b.n	4f10 <__aeabi_dsub+0x60>
    50a6:	4b57      	ldr	r3, [pc, #348]	; (5204 <__aeabi_dsub+0x354>)
    50a8:	3501      	adds	r5, #1
    50aa:	429d      	cmp	r5, r3
    50ac:	d100      	bne.n	50b0 <__aeabi_dsub+0x200>
    50ae:	e142      	b.n	5336 <__aeabi_dsub+0x486>
    50b0:	4b55      	ldr	r3, [pc, #340]	; (5208 <__aeabi_dsub+0x358>)
    50b2:	0860      	lsrs	r0, r4, #1
    50b4:	4019      	ands	r1, r3
    50b6:	2301      	movs	r3, #1
    50b8:	4023      	ands	r3, r4
    50ba:	1c1c      	adds	r4, r3, #0
    50bc:	4304      	orrs	r4, r0
    50be:	07cb      	lsls	r3, r1, #31
    50c0:	431c      	orrs	r4, r3
    50c2:	0849      	lsrs	r1, r1, #1
    50c4:	e724      	b.n	4f10 <__aeabi_dsub+0x60>
    50c6:	431e      	orrs	r6, r3
    50c8:	d000      	beq.n	50cc <__aeabi_dsub+0x21c>
    50ca:	e714      	b.n	4ef6 <__aeabi_dsub+0x46>
    50cc:	e70f      	b.n	4eee <__aeabi_dsub+0x3e>
    50ce:	1c0b      	adds	r3, r1, #0
    50d0:	4323      	orrs	r3, r4
    50d2:	d100      	bne.n	50d6 <__aeabi_dsub+0x226>
    50d4:	e1cf      	b.n	5476 <__aeabi_dsub+0x5c6>
    50d6:	2380      	movs	r3, #128	; 0x80
    50d8:	031b      	lsls	r3, r3, #12
    50da:	430b      	orrs	r3, r1
    50dc:	031b      	lsls	r3, r3, #12
    50de:	0b1b      	lsrs	r3, r3, #12
    50e0:	e736      	b.n	4f50 <__aeabi_dsub+0xa0>
    50e2:	3f01      	subs	r7, #1
    50e4:	2f00      	cmp	r7, #0
    50e6:	d166      	bne.n	51b6 <__aeabi_dsub+0x306>
    50e8:	465e      	mov	r6, r11
    50ea:	1ba2      	subs	r2, r4, r6
    50ec:	4294      	cmp	r4, r2
    50ee:	41a4      	sbcs	r4, r4
    50f0:	4264      	negs	r4, r4
    50f2:	1ac9      	subs	r1, r1, r3
    50f4:	1b09      	subs	r1, r1, r4
    50f6:	1c14      	adds	r4, r2, #0
    50f8:	e766      	b.n	4fc8 <__aeabi_dsub+0x118>
    50fa:	4658      	mov	r0, r11
    50fc:	4318      	orrs	r0, r3
    50fe:	d100      	bne.n	5102 <__aeabi_dsub+0x252>
    5100:	e706      	b.n	4f10 <__aeabi_dsub+0x60>
    5102:	2601      	movs	r6, #1
    5104:	4276      	negs	r6, r6
    5106:	44b4      	add	r12, r6
    5108:	4660      	mov	r0, r12
    510a:	2800      	cmp	r0, #0
    510c:	d000      	beq.n	5110 <__aeabi_dsub+0x260>
    510e:	e0ca      	b.n	52a6 <__aeabi_dsub+0x3f6>
    5110:	465e      	mov	r6, r11
    5112:	1932      	adds	r2, r6, r4
    5114:	e7be      	b.n	5094 <__aeabi_dsub+0x1e4>
    5116:	2f00      	cmp	r7, #0
    5118:	d17a      	bne.n	5210 <__aeabi_dsub+0x360>
    511a:	1c68      	adds	r0, r5, #1
    511c:	0540      	lsls	r0, r0, #21
    511e:	0d40      	lsrs	r0, r0, #21
    5120:	2801      	cmp	r0, #1
    5122:	dc00      	bgt.n	5126 <__aeabi_dsub+0x276>
    5124:	e0e3      	b.n	52ee <__aeabi_dsub+0x43e>
    5126:	465a      	mov	r2, r11
    5128:	1aa2      	subs	r2, r4, r2
    512a:	4294      	cmp	r4, r2
    512c:	41bf      	sbcs	r7, r7
    512e:	1ac8      	subs	r0, r1, r3
    5130:	427f      	negs	r7, r7
    5132:	1bc7      	subs	r7, r0, r7
    5134:	023e      	lsls	r6, r7, #8
    5136:	d400      	bmi.n	513a <__aeabi_dsub+0x28a>
    5138:	e092      	b.n	5260 <__aeabi_dsub+0x3b0>
    513a:	4658      	mov	r0, r11
    513c:	1b04      	subs	r4, r0, r4
    513e:	45a3      	cmp	r11, r4
    5140:	4192      	sbcs	r2, r2
    5142:	1a59      	subs	r1, r3, r1
    5144:	4252      	negs	r2, r2
    5146:	1a8f      	subs	r7, r1, r2
    5148:	46e2      	mov	r10, r12
    514a:	e741      	b.n	4fd0 <__aeabi_dsub+0x120>
    514c:	4653      	mov	r3, r10
    514e:	2701      	movs	r7, #1
    5150:	401f      	ands	r7, r3
    5152:	2400      	movs	r4, #0
    5154:	2300      	movs	r3, #0
    5156:	e6fb      	b.n	4f50 <__aeabi_dsub+0xa0>
    5158:	492b      	ldr	r1, [pc, #172]	; (5208 <__aeabi_dsub+0x358>)
    515a:	1aad      	subs	r5, r5, r2
    515c:	4039      	ands	r1, r7
    515e:	e6d7      	b.n	4f10 <__aeabi_dsub+0x60>
    5160:	1c27      	adds	r7, r4, #0
    5162:	3828      	subs	r0, #40	; 0x28
    5164:	4087      	lsls	r7, r0
    5166:	2400      	movs	r4, #0
    5168:	e744      	b.n	4ff4 <__aeabi_dsub+0x144>
    516a:	1c20      	adds	r0, r4, #0
    516c:	f000 faa8 	bl	56c0 <__clzsi2>
    5170:	3020      	adds	r0, #32
    5172:	e733      	b.n	4fdc <__aeabi_dsub+0x12c>
    5174:	465a      	mov	r2, r11
    5176:	431a      	orrs	r2, r3
    5178:	1e53      	subs	r3, r2, #1
    517a:	419a      	sbcs	r2, r3
    517c:	b2d2      	uxtb	r2, r2
    517e:	2700      	movs	r7, #0
    5180:	e71b      	b.n	4fba <__aeabi_dsub+0x10a>
    5182:	2a00      	cmp	r2, #0
    5184:	d000      	beq.n	5188 <__aeabi_dsub+0x2d8>
    5186:	e0e1      	b.n	534c <__aeabi_dsub+0x49c>
    5188:	1c68      	adds	r0, r5, #1
    518a:	0546      	lsls	r6, r0, #21
    518c:	0d76      	lsrs	r6, r6, #21
    518e:	2e01      	cmp	r6, #1
    5190:	dc00      	bgt.n	5194 <__aeabi_dsub+0x2e4>
    5192:	e091      	b.n	52b8 <__aeabi_dsub+0x408>
    5194:	4d1b      	ldr	r5, [pc, #108]	; (5204 <__aeabi_dsub+0x354>)
    5196:	42a8      	cmp	r0, r5
    5198:	d100      	bne.n	519c <__aeabi_dsub+0x2ec>
    519a:	e0f7      	b.n	538c <__aeabi_dsub+0x4dc>
    519c:	465e      	mov	r6, r11
    519e:	1932      	adds	r2, r6, r4
    51a0:	42a2      	cmp	r2, r4
    51a2:	41a4      	sbcs	r4, r4
    51a4:	4264      	negs	r4, r4
    51a6:	1859      	adds	r1, r3, r1
    51a8:	1909      	adds	r1, r1, r4
    51aa:	07cc      	lsls	r4, r1, #31
    51ac:	0852      	lsrs	r2, r2, #1
    51ae:	4314      	orrs	r4, r2
    51b0:	0849      	lsrs	r1, r1, #1
    51b2:	1c05      	adds	r5, r0, #0
    51b4:	e6ac      	b.n	4f10 <__aeabi_dsub+0x60>
    51b6:	4813      	ldr	r0, [pc, #76]	; (5204 <__aeabi_dsub+0x354>)
    51b8:	4285      	cmp	r5, r0
    51ba:	d000      	beq.n	51be <__aeabi_dsub+0x30e>
    51bc:	e6e6      	b.n	4f8c <__aeabi_dsub+0xdc>
    51be:	e6a7      	b.n	4f10 <__aeabi_dsub+0x60>
    51c0:	1c2b      	adds	r3, r5, #0
    51c2:	3b1f      	subs	r3, #31
    51c4:	1c3e      	adds	r6, r7, #0
    51c6:	40de      	lsrs	r6, r3
    51c8:	1c33      	adds	r3, r6, #0
    51ca:	2920      	cmp	r1, #32
    51cc:	d070      	beq.n	52b0 <__aeabi_dsub+0x400>
    51ce:	223f      	movs	r2, #63	; 0x3f
    51d0:	1b55      	subs	r5, r2, r5
    51d2:	40af      	lsls	r7, r5
    51d4:	433c      	orrs	r4, r7
    51d6:	1e60      	subs	r0, r4, #1
    51d8:	4184      	sbcs	r4, r0
    51da:	431c      	orrs	r4, r3
    51dc:	2100      	movs	r1, #0
    51de:	2500      	movs	r5, #0
    51e0:	e696      	b.n	4f10 <__aeabi_dsub+0x60>
    51e2:	1c38      	adds	r0, r7, #0
    51e4:	3820      	subs	r0, #32
    51e6:	1c1e      	adds	r6, r3, #0
    51e8:	40c6      	lsrs	r6, r0
    51ea:	1c30      	adds	r0, r6, #0
    51ec:	2f20      	cmp	r7, #32
    51ee:	d061      	beq.n	52b4 <__aeabi_dsub+0x404>
    51f0:	2240      	movs	r2, #64	; 0x40
    51f2:	1bd7      	subs	r7, r2, r7
    51f4:	40bb      	lsls	r3, r7
    51f6:	465a      	mov	r2, r11
    51f8:	431a      	orrs	r2, r3
    51fa:	1e53      	subs	r3, r2, #1
    51fc:	419a      	sbcs	r2, r3
    51fe:	4302      	orrs	r2, r0
    5200:	2700      	movs	r7, #0
    5202:	e6da      	b.n	4fba <__aeabi_dsub+0x10a>
    5204:	000007ff 	.word	0x000007ff
    5208:	ff7fffff 	.word	0xff7fffff
    520c:	800fffff 	.word	0x800fffff
    5210:	2d00      	cmp	r5, #0
    5212:	d038      	beq.n	5286 <__aeabi_dsub+0x3d6>
    5214:	4db9      	ldr	r5, [pc, #740]	; (54fc <__aeabi_dsub+0x64c>)
    5216:	42a8      	cmp	r0, r5
    5218:	d100      	bne.n	521c <__aeabi_dsub+0x36c>
    521a:	e092      	b.n	5342 <__aeabi_dsub+0x492>
    521c:	2580      	movs	r5, #128	; 0x80
    521e:	042d      	lsls	r5, r5, #16
    5220:	427f      	negs	r7, r7
    5222:	4329      	orrs	r1, r5
    5224:	2f38      	cmp	r7, #56	; 0x38
    5226:	dd00      	ble.n	522a <__aeabi_dsub+0x37a>
    5228:	e0aa      	b.n	5380 <__aeabi_dsub+0x4d0>
    522a:	2f1f      	cmp	r7, #31
    522c:	dd00      	ble.n	5230 <__aeabi_dsub+0x380>
    522e:	e12c      	b.n	548a <__aeabi_dsub+0x5da>
    5230:	2520      	movs	r5, #32
    5232:	1bed      	subs	r5, r5, r7
    5234:	1c0e      	adds	r6, r1, #0
    5236:	40ae      	lsls	r6, r5
    5238:	46b0      	mov	r8, r6
    523a:	1c26      	adds	r6, r4, #0
    523c:	40fe      	lsrs	r6, r7
    523e:	4642      	mov	r2, r8
    5240:	40ac      	lsls	r4, r5
    5242:	4316      	orrs	r6, r2
    5244:	1e65      	subs	r5, r4, #1
    5246:	41ac      	sbcs	r4, r5
    5248:	4334      	orrs	r4, r6
    524a:	40f9      	lsrs	r1, r7
    524c:	465a      	mov	r2, r11
    524e:	1b14      	subs	r4, r2, r4
    5250:	45a3      	cmp	r11, r4
    5252:	4192      	sbcs	r2, r2
    5254:	1a5b      	subs	r3, r3, r1
    5256:	4252      	negs	r2, r2
    5258:	1a99      	subs	r1, r3, r2
    525a:	1c05      	adds	r5, r0, #0
    525c:	46e2      	mov	r10, r12
    525e:	e6b3      	b.n	4fc8 <__aeabi_dsub+0x118>
    5260:	1c13      	adds	r3, r2, #0
    5262:	433b      	orrs	r3, r7
    5264:	1c14      	adds	r4, r2, #0
    5266:	2b00      	cmp	r3, #0
    5268:	d000      	beq.n	526c <__aeabi_dsub+0x3bc>
    526a:	e6b1      	b.n	4fd0 <__aeabi_dsub+0x120>
    526c:	2700      	movs	r7, #0
    526e:	2200      	movs	r2, #0
    5270:	2500      	movs	r5, #0
    5272:	2100      	movs	r1, #0
    5274:	2400      	movs	r4, #0
    5276:	e6dd      	b.n	5034 <__aeabi_dsub+0x184>
    5278:	465a      	mov	r2, r11
    527a:	431a      	orrs	r2, r3
    527c:	1e53      	subs	r3, r2, #1
    527e:	419a      	sbcs	r2, r3
    5280:	b2d2      	uxtb	r2, r2
    5282:	2300      	movs	r3, #0
    5284:	e705      	b.n	5092 <__aeabi_dsub+0x1e2>
    5286:	1c0d      	adds	r5, r1, #0
    5288:	4325      	orrs	r5, r4
    528a:	d05a      	beq.n	5342 <__aeabi_dsub+0x492>
    528c:	43ff      	mvns	r7, r7
    528e:	2f00      	cmp	r7, #0
    5290:	d153      	bne.n	533a <__aeabi_dsub+0x48a>
    5292:	465a      	mov	r2, r11
    5294:	1b14      	subs	r4, r2, r4
    5296:	45a3      	cmp	r11, r4
    5298:	4192      	sbcs	r2, r2
    529a:	1a59      	subs	r1, r3, r1
    529c:	4252      	negs	r2, r2
    529e:	1a89      	subs	r1, r1, r2
    52a0:	1c05      	adds	r5, r0, #0
    52a2:	46e2      	mov	r10, r12
    52a4:	e690      	b.n	4fc8 <__aeabi_dsub+0x118>
    52a6:	4895      	ldr	r0, [pc, #596]	; (54fc <__aeabi_dsub+0x64c>)
    52a8:	4285      	cmp	r5, r0
    52aa:	d000      	beq.n	52ae <__aeabi_dsub+0x3fe>
    52ac:	e6d6      	b.n	505c <__aeabi_dsub+0x1ac>
    52ae:	e62f      	b.n	4f10 <__aeabi_dsub+0x60>
    52b0:	2700      	movs	r7, #0
    52b2:	e78f      	b.n	51d4 <__aeabi_dsub+0x324>
    52b4:	2300      	movs	r3, #0
    52b6:	e79e      	b.n	51f6 <__aeabi_dsub+0x346>
    52b8:	1c08      	adds	r0, r1, #0
    52ba:	4320      	orrs	r0, r4
    52bc:	2d00      	cmp	r5, #0
    52be:	d000      	beq.n	52c2 <__aeabi_dsub+0x412>
    52c0:	e0c3      	b.n	544a <__aeabi_dsub+0x59a>
    52c2:	2800      	cmp	r0, #0
    52c4:	d100      	bne.n	52c8 <__aeabi_dsub+0x418>
    52c6:	e0f6      	b.n	54b6 <__aeabi_dsub+0x606>
    52c8:	4658      	mov	r0, r11
    52ca:	4318      	orrs	r0, r3
    52cc:	d100      	bne.n	52d0 <__aeabi_dsub+0x420>
    52ce:	e61f      	b.n	4f10 <__aeabi_dsub+0x60>
    52d0:	4658      	mov	r0, r11
    52d2:	1902      	adds	r2, r0, r4
    52d4:	42a2      	cmp	r2, r4
    52d6:	41a4      	sbcs	r4, r4
    52d8:	4264      	negs	r4, r4
    52da:	1859      	adds	r1, r3, r1
    52dc:	1909      	adds	r1, r1, r4
    52de:	1c14      	adds	r4, r2, #0
    52e0:	020a      	lsls	r2, r1, #8
    52e2:	d400      	bmi.n	52e6 <__aeabi_dsub+0x436>
    52e4:	e614      	b.n	4f10 <__aeabi_dsub+0x60>
    52e6:	4b86      	ldr	r3, [pc, #536]	; (5500 <__aeabi_dsub+0x650>)
    52e8:	2501      	movs	r5, #1
    52ea:	4019      	ands	r1, r3
    52ec:	e610      	b.n	4f10 <__aeabi_dsub+0x60>
    52ee:	1c08      	adds	r0, r1, #0
    52f0:	4320      	orrs	r0, r4
    52f2:	2d00      	cmp	r5, #0
    52f4:	d13a      	bne.n	536c <__aeabi_dsub+0x4bc>
    52f6:	2800      	cmp	r0, #0
    52f8:	d000      	beq.n	52fc <__aeabi_dsub+0x44c>
    52fa:	e089      	b.n	5410 <__aeabi_dsub+0x560>
    52fc:	4659      	mov	r1, r11
    52fe:	4319      	orrs	r1, r3
    5300:	d100      	bne.n	5304 <__aeabi_dsub+0x454>
    5302:	e0bf      	b.n	5484 <__aeabi_dsub+0x5d4>
    5304:	1c19      	adds	r1, r3, #0
    5306:	465c      	mov	r4, r11
    5308:	46e2      	mov	r10, r12
    530a:	e601      	b.n	4f10 <__aeabi_dsub+0x60>
    530c:	4660      	mov	r0, r12
    530e:	3820      	subs	r0, #32
    5310:	1c1a      	adds	r2, r3, #0
    5312:	40c2      	lsrs	r2, r0
    5314:	4666      	mov	r6, r12
    5316:	1c10      	adds	r0, r2, #0
    5318:	2e20      	cmp	r6, #32
    531a:	d100      	bne.n	531e <__aeabi_dsub+0x46e>
    531c:	e0b0      	b.n	5480 <__aeabi_dsub+0x5d0>
    531e:	2240      	movs	r2, #64	; 0x40
    5320:	1b92      	subs	r2, r2, r6
    5322:	4093      	lsls	r3, r2
    5324:	465a      	mov	r2, r11
    5326:	431a      	orrs	r2, r3
    5328:	1e53      	subs	r3, r2, #1
    532a:	419a      	sbcs	r2, r3
    532c:	4302      	orrs	r2, r0
    532e:	2300      	movs	r3, #0
    5330:	e6af      	b.n	5092 <__aeabi_dsub+0x1e2>
    5332:	4d72      	ldr	r5, [pc, #456]	; (54fc <__aeabi_dsub+0x64c>)
    5334:	2700      	movs	r7, #0
    5336:	1c2a      	adds	r2, r5, #0
    5338:	e79b      	b.n	5272 <__aeabi_dsub+0x3c2>
    533a:	4d70      	ldr	r5, [pc, #448]	; (54fc <__aeabi_dsub+0x64c>)
    533c:	42a8      	cmp	r0, r5
    533e:	d000      	beq.n	5342 <__aeabi_dsub+0x492>
    5340:	e770      	b.n	5224 <__aeabi_dsub+0x374>
    5342:	1c19      	adds	r1, r3, #0
    5344:	465c      	mov	r4, r11
    5346:	1c05      	adds	r5, r0, #0
    5348:	46e2      	mov	r10, r12
    534a:	e5e1      	b.n	4f10 <__aeabi_dsub+0x60>
    534c:	2d00      	cmp	r5, #0
    534e:	d120      	bne.n	5392 <__aeabi_dsub+0x4e2>
    5350:	1c0d      	adds	r5, r1, #0
    5352:	4325      	orrs	r5, r4
    5354:	d075      	beq.n	5442 <__aeabi_dsub+0x592>
    5356:	43d5      	mvns	r5, r2
    5358:	2d00      	cmp	r5, #0
    535a:	d16f      	bne.n	543c <__aeabi_dsub+0x58c>
    535c:	445c      	add	r4, r11
    535e:	455c      	cmp	r4, r11
    5360:	4192      	sbcs	r2, r2
    5362:	1859      	adds	r1, r3, r1
    5364:	4252      	negs	r2, r2
    5366:	1889      	adds	r1, r1, r2
    5368:	1c05      	adds	r5, r0, #0
    536a:	e699      	b.n	50a0 <__aeabi_dsub+0x1f0>
    536c:	2800      	cmp	r0, #0
    536e:	d135      	bne.n	53dc <__aeabi_dsub+0x52c>
    5370:	4659      	mov	r1, r11
    5372:	4319      	orrs	r1, r3
    5374:	d0dd      	beq.n	5332 <__aeabi_dsub+0x482>
    5376:	1c19      	adds	r1, r3, #0
    5378:	465c      	mov	r4, r11
    537a:	46e2      	mov	r10, r12
    537c:	4d5f      	ldr	r5, [pc, #380]	; (54fc <__aeabi_dsub+0x64c>)
    537e:	e5c7      	b.n	4f10 <__aeabi_dsub+0x60>
    5380:	430c      	orrs	r4, r1
    5382:	1e61      	subs	r1, r4, #1
    5384:	418c      	sbcs	r4, r1
    5386:	b2e4      	uxtb	r4, r4
    5388:	2100      	movs	r1, #0
    538a:	e75f      	b.n	524c <__aeabi_dsub+0x39c>
    538c:	1c05      	adds	r5, r0, #0
    538e:	1c02      	adds	r2, r0, #0
    5390:	e76f      	b.n	5272 <__aeabi_dsub+0x3c2>
    5392:	4d5a      	ldr	r5, [pc, #360]	; (54fc <__aeabi_dsub+0x64c>)
    5394:	42a8      	cmp	r0, r5
    5396:	d054      	beq.n	5442 <__aeabi_dsub+0x592>
    5398:	4255      	negs	r5, r2
    539a:	2280      	movs	r2, #128	; 0x80
    539c:	0416      	lsls	r6, r2, #16
    539e:	4331      	orrs	r1, r6
    53a0:	2d38      	cmp	r5, #56	; 0x38
    53a2:	dd00      	ble.n	53a6 <__aeabi_dsub+0x4f6>
    53a4:	e081      	b.n	54aa <__aeabi_dsub+0x5fa>
    53a6:	2d1f      	cmp	r5, #31
    53a8:	dd00      	ble.n	53ac <__aeabi_dsub+0x4fc>
    53aa:	e091      	b.n	54d0 <__aeabi_dsub+0x620>
    53ac:	2220      	movs	r2, #32
    53ae:	1b56      	subs	r6, r2, r5
    53b0:	1c0a      	adds	r2, r1, #0
    53b2:	46b4      	mov	r12, r6
    53b4:	40b2      	lsls	r2, r6
    53b6:	1c26      	adds	r6, r4, #0
    53b8:	40ee      	lsrs	r6, r5
    53ba:	4332      	orrs	r2, r6
    53bc:	4690      	mov	r8, r2
    53be:	4662      	mov	r2, r12
    53c0:	4094      	lsls	r4, r2
    53c2:	1e66      	subs	r6, r4, #1
    53c4:	41b4      	sbcs	r4, r6
    53c6:	4642      	mov	r2, r8
    53c8:	4314      	orrs	r4, r2
    53ca:	40e9      	lsrs	r1, r5
    53cc:	445c      	add	r4, r11
    53ce:	455c      	cmp	r4, r11
    53d0:	4192      	sbcs	r2, r2
    53d2:	18cb      	adds	r3, r1, r3
    53d4:	4252      	negs	r2, r2
    53d6:	1899      	adds	r1, r3, r2
    53d8:	1c05      	adds	r5, r0, #0
    53da:	e661      	b.n	50a0 <__aeabi_dsub+0x1f0>
    53dc:	4658      	mov	r0, r11
    53de:	4318      	orrs	r0, r3
    53e0:	d04c      	beq.n	547c <__aeabi_dsub+0x5cc>
    53e2:	0748      	lsls	r0, r1, #29
    53e4:	08e4      	lsrs	r4, r4, #3
    53e6:	4304      	orrs	r4, r0
    53e8:	2080      	movs	r0, #128	; 0x80
    53ea:	08c9      	lsrs	r1, r1, #3
    53ec:	0300      	lsls	r0, r0, #12
    53ee:	4201      	tst	r1, r0
    53f0:	d008      	beq.n	5404 <__aeabi_dsub+0x554>
    53f2:	08dd      	lsrs	r5, r3, #3
    53f4:	4205      	tst	r5, r0
    53f6:	d105      	bne.n	5404 <__aeabi_dsub+0x554>
    53f8:	4659      	mov	r1, r11
    53fa:	08ca      	lsrs	r2, r1, #3
    53fc:	075c      	lsls	r4, r3, #29
    53fe:	4314      	orrs	r4, r2
    5400:	1c29      	adds	r1, r5, #0
    5402:	46e2      	mov	r10, r12
    5404:	0f63      	lsrs	r3, r4, #29
    5406:	00c9      	lsls	r1, r1, #3
    5408:	4319      	orrs	r1, r3
    540a:	00e4      	lsls	r4, r4, #3
    540c:	4d3b      	ldr	r5, [pc, #236]	; (54fc <__aeabi_dsub+0x64c>)
    540e:	e57f      	b.n	4f10 <__aeabi_dsub+0x60>
    5410:	4658      	mov	r0, r11
    5412:	4318      	orrs	r0, r3
    5414:	d100      	bne.n	5418 <__aeabi_dsub+0x568>
    5416:	e57b      	b.n	4f10 <__aeabi_dsub+0x60>
    5418:	465e      	mov	r6, r11
    541a:	1ba7      	subs	r7, r4, r6
    541c:	42bc      	cmp	r4, r7
    541e:	4192      	sbcs	r2, r2
    5420:	1ac8      	subs	r0, r1, r3
    5422:	4252      	negs	r2, r2
    5424:	1a80      	subs	r0, r0, r2
    5426:	0206      	lsls	r6, r0, #8
    5428:	d54c      	bpl.n	54c4 <__aeabi_dsub+0x614>
    542a:	4658      	mov	r0, r11
    542c:	1b04      	subs	r4, r0, r4
    542e:	45a3      	cmp	r11, r4
    5430:	4192      	sbcs	r2, r2
    5432:	1a59      	subs	r1, r3, r1
    5434:	4252      	negs	r2, r2
    5436:	1a89      	subs	r1, r1, r2
    5438:	46e2      	mov	r10, r12
    543a:	e569      	b.n	4f10 <__aeabi_dsub+0x60>
    543c:	4a2f      	ldr	r2, [pc, #188]	; (54fc <__aeabi_dsub+0x64c>)
    543e:	4290      	cmp	r0, r2
    5440:	d1ae      	bne.n	53a0 <__aeabi_dsub+0x4f0>
    5442:	1c19      	adds	r1, r3, #0
    5444:	465c      	mov	r4, r11
    5446:	1c05      	adds	r5, r0, #0
    5448:	e562      	b.n	4f10 <__aeabi_dsub+0x60>
    544a:	2800      	cmp	r0, #0
    544c:	d036      	beq.n	54bc <__aeabi_dsub+0x60c>
    544e:	4658      	mov	r0, r11
    5450:	4318      	orrs	r0, r3
    5452:	d013      	beq.n	547c <__aeabi_dsub+0x5cc>
    5454:	2580      	movs	r5, #128	; 0x80
    5456:	0748      	lsls	r0, r1, #29
    5458:	08e4      	lsrs	r4, r4, #3
    545a:	08c9      	lsrs	r1, r1, #3
    545c:	032d      	lsls	r5, r5, #12
    545e:	4304      	orrs	r4, r0
    5460:	4229      	tst	r1, r5
    5462:	d0cf      	beq.n	5404 <__aeabi_dsub+0x554>
    5464:	08d8      	lsrs	r0, r3, #3
    5466:	4228      	tst	r0, r5
    5468:	d1cc      	bne.n	5404 <__aeabi_dsub+0x554>
    546a:	465d      	mov	r5, r11
    546c:	08ea      	lsrs	r2, r5, #3
    546e:	075c      	lsls	r4, r3, #29
    5470:	4314      	orrs	r4, r2
    5472:	1c01      	adds	r1, r0, #0
    5474:	e7c6      	b.n	5404 <__aeabi_dsub+0x554>
    5476:	2300      	movs	r3, #0
    5478:	2400      	movs	r4, #0
    547a:	e569      	b.n	4f50 <__aeabi_dsub+0xa0>
    547c:	4d1f      	ldr	r5, [pc, #124]	; (54fc <__aeabi_dsub+0x64c>)
    547e:	e547      	b.n	4f10 <__aeabi_dsub+0x60>
    5480:	2300      	movs	r3, #0
    5482:	e74f      	b.n	5324 <__aeabi_dsub+0x474>
    5484:	2700      	movs	r7, #0
    5486:	2200      	movs	r2, #0
    5488:	e6f3      	b.n	5272 <__aeabi_dsub+0x3c2>
    548a:	1c3d      	adds	r5, r7, #0
    548c:	3d20      	subs	r5, #32
    548e:	1c0e      	adds	r6, r1, #0
    5490:	40ee      	lsrs	r6, r5
    5492:	1c35      	adds	r5, r6, #0
    5494:	2f20      	cmp	r7, #32
    5496:	d02d      	beq.n	54f4 <__aeabi_dsub+0x644>
    5498:	2640      	movs	r6, #64	; 0x40
    549a:	1bf7      	subs	r7, r6, r7
    549c:	40b9      	lsls	r1, r7
    549e:	430c      	orrs	r4, r1
    54a0:	1e61      	subs	r1, r4, #1
    54a2:	418c      	sbcs	r4, r1
    54a4:	432c      	orrs	r4, r5
    54a6:	2100      	movs	r1, #0
    54a8:	e6d0      	b.n	524c <__aeabi_dsub+0x39c>
    54aa:	430c      	orrs	r4, r1
    54ac:	1e61      	subs	r1, r4, #1
    54ae:	418c      	sbcs	r4, r1
    54b0:	b2e4      	uxtb	r4, r4
    54b2:	2100      	movs	r1, #0
    54b4:	e78a      	b.n	53cc <__aeabi_dsub+0x51c>
    54b6:	1c19      	adds	r1, r3, #0
    54b8:	465c      	mov	r4, r11
    54ba:	e529      	b.n	4f10 <__aeabi_dsub+0x60>
    54bc:	1c19      	adds	r1, r3, #0
    54be:	465c      	mov	r4, r11
    54c0:	4d0e      	ldr	r5, [pc, #56]	; (54fc <__aeabi_dsub+0x64c>)
    54c2:	e525      	b.n	4f10 <__aeabi_dsub+0x60>
    54c4:	1c03      	adds	r3, r0, #0
    54c6:	433b      	orrs	r3, r7
    54c8:	d0dc      	beq.n	5484 <__aeabi_dsub+0x5d4>
    54ca:	1c01      	adds	r1, r0, #0
    54cc:	1c3c      	adds	r4, r7, #0
    54ce:	e51f      	b.n	4f10 <__aeabi_dsub+0x60>
    54d0:	2620      	movs	r6, #32
    54d2:	4276      	negs	r6, r6
    54d4:	1976      	adds	r6, r6, r5
    54d6:	1c0a      	adds	r2, r1, #0
    54d8:	40f2      	lsrs	r2, r6
    54da:	4690      	mov	r8, r2
    54dc:	2d20      	cmp	r5, #32
    54de:	d00b      	beq.n	54f8 <__aeabi_dsub+0x648>
    54e0:	2640      	movs	r6, #64	; 0x40
    54e2:	1b75      	subs	r5, r6, r5
    54e4:	40a9      	lsls	r1, r5
    54e6:	430c      	orrs	r4, r1
    54e8:	1e61      	subs	r1, r4, #1
    54ea:	418c      	sbcs	r4, r1
    54ec:	4645      	mov	r5, r8
    54ee:	432c      	orrs	r4, r5
    54f0:	2100      	movs	r1, #0
    54f2:	e76b      	b.n	53cc <__aeabi_dsub+0x51c>
    54f4:	2100      	movs	r1, #0
    54f6:	e7d2      	b.n	549e <__aeabi_dsub+0x5ee>
    54f8:	2100      	movs	r1, #0
    54fa:	e7f4      	b.n	54e6 <__aeabi_dsub+0x636>
    54fc:	000007ff 	.word	0x000007ff
    5500:	ff7fffff 	.word	0xff7fffff

00005504 <__aeabi_f2d>:
    5504:	0043      	lsls	r3, r0, #1
    5506:	0e1b      	lsrs	r3, r3, #24
    5508:	1c5a      	adds	r2, r3, #1
    550a:	0241      	lsls	r1, r0, #9
    550c:	b2d2      	uxtb	r2, r2
    550e:	b570      	push	{r4, r5, r6, lr}
    5510:	0a4c      	lsrs	r4, r1, #9
    5512:	0fc5      	lsrs	r5, r0, #31
    5514:	2a01      	cmp	r2, #1
    5516:	dd17      	ble.n	5548 <__aeabi_f2d+0x44>
    5518:	22e0      	movs	r2, #224	; 0xe0
    551a:	0092      	lsls	r2, r2, #2
    551c:	0764      	lsls	r4, r4, #29
    551e:	0b09      	lsrs	r1, r1, #12
    5520:	1898      	adds	r0, r3, r2
    5522:	2200      	movs	r2, #0
    5524:	2300      	movs	r3, #0
    5526:	0d1e      	lsrs	r6, r3, #20
    5528:	1c22      	adds	r2, r4, #0
    552a:	0534      	lsls	r4, r6, #20
    552c:	430c      	orrs	r4, r1
    552e:	491b      	ldr	r1, [pc, #108]	; (559c <__aeabi_f2d+0x98>)
    5530:	0540      	lsls	r0, r0, #21
    5532:	0840      	lsrs	r0, r0, #1
    5534:	4021      	ands	r1, r4
    5536:	4301      	orrs	r1, r0
    5538:	0049      	lsls	r1, r1, #1
    553a:	0849      	lsrs	r1, r1, #1
    553c:	07ed      	lsls	r5, r5, #31
    553e:	1c0b      	adds	r3, r1, #0
    5540:	432b      	orrs	r3, r5
    5542:	1c10      	adds	r0, r2, #0
    5544:	1c19      	adds	r1, r3, #0
    5546:	bd70      	pop	{r4, r5, r6, pc}
    5548:	2b00      	cmp	r3, #0
    554a:	d115      	bne.n	5578 <__aeabi_f2d+0x74>
    554c:	2c00      	cmp	r4, #0
    554e:	d01c      	beq.n	558a <__aeabi_f2d+0x86>
    5550:	1c20      	adds	r0, r4, #0
    5552:	f000 f8b5 	bl	56c0 <__clzsi2>
    5556:	280a      	cmp	r0, #10
    5558:	dc1a      	bgt.n	5590 <__aeabi_f2d+0x8c>
    555a:	210b      	movs	r1, #11
    555c:	1a09      	subs	r1, r1, r0
    555e:	1c23      	adds	r3, r4, #0
    5560:	40cb      	lsrs	r3, r1
    5562:	1c19      	adds	r1, r3, #0
    5564:	1c03      	adds	r3, r0, #0
    5566:	3315      	adds	r3, #21
    5568:	409c      	lsls	r4, r3
    556a:	4b0d      	ldr	r3, [pc, #52]	; (55a0 <__aeabi_f2d+0x9c>)
    556c:	0309      	lsls	r1, r1, #12
    556e:	1a18      	subs	r0, r3, r0
    5570:	0540      	lsls	r0, r0, #21
    5572:	0b09      	lsrs	r1, r1, #12
    5574:	0d40      	lsrs	r0, r0, #21
    5576:	e7d4      	b.n	5522 <__aeabi_f2d+0x1e>
    5578:	2c00      	cmp	r4, #0
    557a:	d003      	beq.n	5584 <__aeabi_f2d+0x80>
    557c:	0764      	lsls	r4, r4, #29
    557e:	0b09      	lsrs	r1, r1, #12
    5580:	4808      	ldr	r0, [pc, #32]	; (55a4 <__aeabi_f2d+0xa0>)
    5582:	e7ce      	b.n	5522 <__aeabi_f2d+0x1e>
    5584:	4807      	ldr	r0, [pc, #28]	; (55a4 <__aeabi_f2d+0xa0>)
    5586:	2100      	movs	r1, #0
    5588:	e7cb      	b.n	5522 <__aeabi_f2d+0x1e>
    558a:	2000      	movs	r0, #0
    558c:	2100      	movs	r1, #0
    558e:	e7c8      	b.n	5522 <__aeabi_f2d+0x1e>
    5590:	1c01      	adds	r1, r0, #0
    5592:	390b      	subs	r1, #11
    5594:	408c      	lsls	r4, r1
    5596:	1c21      	adds	r1, r4, #0
    5598:	2400      	movs	r4, #0
    559a:	e7e6      	b.n	556a <__aeabi_f2d+0x66>
    559c:	800fffff 	.word	0x800fffff
    55a0:	00000389 	.word	0x00000389
    55a4:	000007ff 	.word	0x000007ff

000055a8 <__aeabi_d2f>:
    55a8:	b5f0      	push	{r4, r5, r6, r7, lr}
    55aa:	004b      	lsls	r3, r1, #1
    55ac:	030d      	lsls	r5, r1, #12
    55ae:	0f42      	lsrs	r2, r0, #29
    55b0:	0d5b      	lsrs	r3, r3, #21
    55b2:	0a6d      	lsrs	r5, r5, #9
    55b4:	4315      	orrs	r5, r2
    55b6:	1c5a      	adds	r2, r3, #1
    55b8:	0552      	lsls	r2, r2, #21
    55ba:	0fcc      	lsrs	r4, r1, #31
    55bc:	00c6      	lsls	r6, r0, #3
    55be:	0d52      	lsrs	r2, r2, #21
    55c0:	2a01      	cmp	r2, #1
    55c2:	dd27      	ble.n	5614 <__aeabi_d2f+0x6c>
    55c4:	4f39      	ldr	r7, [pc, #228]	; (56ac <__aeabi_d2f+0x104>)
    55c6:	19da      	adds	r2, r3, r7
    55c8:	2afe      	cmp	r2, #254	; 0xfe
    55ca:	dc1a      	bgt.n	5602 <__aeabi_d2f+0x5a>
    55cc:	2a00      	cmp	r2, #0
    55ce:	dd35      	ble.n	563c <__aeabi_d2f+0x94>
    55d0:	0180      	lsls	r0, r0, #6
    55d2:	00ed      	lsls	r5, r5, #3
    55d4:	1e43      	subs	r3, r0, #1
    55d6:	4198      	sbcs	r0, r3
    55d8:	4328      	orrs	r0, r5
    55da:	0f76      	lsrs	r6, r6, #29
    55dc:	4330      	orrs	r0, r6
    55de:	0743      	lsls	r3, r0, #29
    55e0:	d004      	beq.n	55ec <__aeabi_d2f+0x44>
    55e2:	230f      	movs	r3, #15
    55e4:	4003      	ands	r3, r0
    55e6:	2b04      	cmp	r3, #4
    55e8:	d000      	beq.n	55ec <__aeabi_d2f+0x44>
    55ea:	3004      	adds	r0, #4
    55ec:	2180      	movs	r1, #128	; 0x80
    55ee:	04c9      	lsls	r1, r1, #19
    55f0:	4001      	ands	r1, r0
    55f2:	d027      	beq.n	5644 <__aeabi_d2f+0x9c>
    55f4:	3201      	adds	r2, #1
    55f6:	2aff      	cmp	r2, #255	; 0xff
    55f8:	d01d      	beq.n	5636 <__aeabi_d2f+0x8e>
    55fa:	0183      	lsls	r3, r0, #6
    55fc:	0a5b      	lsrs	r3, r3, #9
    55fe:	b2d1      	uxtb	r1, r2
    5600:	e001      	b.n	5606 <__aeabi_d2f+0x5e>
    5602:	21ff      	movs	r1, #255	; 0xff
    5604:	2300      	movs	r3, #0
    5606:	0258      	lsls	r0, r3, #9
    5608:	05c9      	lsls	r1, r1, #23
    560a:	0a40      	lsrs	r0, r0, #9
    560c:	07e4      	lsls	r4, r4, #31
    560e:	4308      	orrs	r0, r1
    5610:	4320      	orrs	r0, r4
    5612:	bdf0      	pop	{r4, r5, r6, r7, pc}
    5614:	2b00      	cmp	r3, #0
    5616:	d106      	bne.n	5626 <__aeabi_d2f+0x7e>
    5618:	4335      	orrs	r5, r6
    561a:	d111      	bne.n	5640 <__aeabi_d2f+0x98>
    561c:	2100      	movs	r1, #0
    561e:	2000      	movs	r0, #0
    5620:	0243      	lsls	r3, r0, #9
    5622:	0a5b      	lsrs	r3, r3, #9
    5624:	e7ef      	b.n	5606 <__aeabi_d2f+0x5e>
    5626:	432e      	orrs	r6, r5
    5628:	d0eb      	beq.n	5602 <__aeabi_d2f+0x5a>
    562a:	2080      	movs	r0, #128	; 0x80
    562c:	00ed      	lsls	r5, r5, #3
    562e:	0480      	lsls	r0, r0, #18
    5630:	4328      	orrs	r0, r5
    5632:	22ff      	movs	r2, #255	; 0xff
    5634:	e7d3      	b.n	55de <__aeabi_d2f+0x36>
    5636:	21ff      	movs	r1, #255	; 0xff
    5638:	2300      	movs	r3, #0
    563a:	e7e4      	b.n	5606 <__aeabi_d2f+0x5e>
    563c:	3217      	adds	r2, #23
    563e:	da0d      	bge.n	565c <__aeabi_d2f+0xb4>
    5640:	2005      	movs	r0, #5
    5642:	2200      	movs	r2, #0
    5644:	08c0      	lsrs	r0, r0, #3
    5646:	b2d1      	uxtb	r1, r2
    5648:	2aff      	cmp	r2, #255	; 0xff
    564a:	d1e9      	bne.n	5620 <__aeabi_d2f+0x78>
    564c:	2800      	cmp	r0, #0
    564e:	d0d9      	beq.n	5604 <__aeabi_d2f+0x5c>
    5650:	2380      	movs	r3, #128	; 0x80
    5652:	03db      	lsls	r3, r3, #15
    5654:	4303      	orrs	r3, r0
    5656:	025b      	lsls	r3, r3, #9
    5658:	0a5b      	lsrs	r3, r3, #9
    565a:	e7d4      	b.n	5606 <__aeabi_d2f+0x5e>
    565c:	2280      	movs	r2, #128	; 0x80
    565e:	4914      	ldr	r1, [pc, #80]	; (56b0 <__aeabi_d2f+0x108>)
    5660:	0412      	lsls	r2, r2, #16
    5662:	4315      	orrs	r5, r2
    5664:	1ac9      	subs	r1, r1, r3
    5666:	291f      	cmp	r1, #31
    5668:	dc0d      	bgt.n	5686 <__aeabi_d2f+0xde>
    566a:	4a12      	ldr	r2, [pc, #72]	; (56b4 <__aeabi_d2f+0x10c>)
    566c:	1c37      	adds	r7, r6, #0
    566e:	189b      	adds	r3, r3, r2
    5670:	1c28      	adds	r0, r5, #0
    5672:	409f      	lsls	r7, r3
    5674:	4098      	lsls	r0, r3
    5676:	1c3b      	adds	r3, r7, #0
    5678:	1e5a      	subs	r2, r3, #1
    567a:	4193      	sbcs	r3, r2
    567c:	4318      	orrs	r0, r3
    567e:	40ce      	lsrs	r6, r1
    5680:	4330      	orrs	r0, r6
    5682:	2200      	movs	r2, #0
    5684:	e7ab      	b.n	55de <__aeabi_d2f+0x36>
    5686:	4f0c      	ldr	r7, [pc, #48]	; (56b8 <__aeabi_d2f+0x110>)
    5688:	1c2a      	adds	r2, r5, #0
    568a:	1aff      	subs	r7, r7, r3
    568c:	40fa      	lsrs	r2, r7
    568e:	1c17      	adds	r7, r2, #0
    5690:	2920      	cmp	r1, #32
    5692:	d009      	beq.n	56a8 <__aeabi_d2f+0x100>
    5694:	4a09      	ldr	r2, [pc, #36]	; (56bc <__aeabi_d2f+0x114>)
    5696:	1898      	adds	r0, r3, r2
    5698:	4085      	lsls	r5, r0
    569a:	1c28      	adds	r0, r5, #0
    569c:	4330      	orrs	r0, r6
    569e:	1e46      	subs	r6, r0, #1
    56a0:	41b0      	sbcs	r0, r6
    56a2:	4338      	orrs	r0, r7
    56a4:	2200      	movs	r2, #0
    56a6:	e79a      	b.n	55de <__aeabi_d2f+0x36>
    56a8:	2000      	movs	r0, #0
    56aa:	e7f7      	b.n	569c <__aeabi_d2f+0xf4>
    56ac:	fffffc80 	.word	0xfffffc80
    56b0:	0000039e 	.word	0x0000039e
    56b4:	fffffc82 	.word	0xfffffc82
    56b8:	0000037e 	.word	0x0000037e
    56bc:	fffffca2 	.word	0xfffffca2

000056c0 <__clzsi2>:
    56c0:	211c      	movs	r1, #28
    56c2:	2301      	movs	r3, #1
    56c4:	041b      	lsls	r3, r3, #16
    56c6:	4298      	cmp	r0, r3
    56c8:	d301      	bcc.n	56ce <__clzsi2+0xe>
    56ca:	0c00      	lsrs	r0, r0, #16
    56cc:	3910      	subs	r1, #16
    56ce:	0a1b      	lsrs	r3, r3, #8
    56d0:	4298      	cmp	r0, r3
    56d2:	d301      	bcc.n	56d8 <__clzsi2+0x18>
    56d4:	0a00      	lsrs	r0, r0, #8
    56d6:	3908      	subs	r1, #8
    56d8:	091b      	lsrs	r3, r3, #4
    56da:	4298      	cmp	r0, r3
    56dc:	d301      	bcc.n	56e2 <__clzsi2+0x22>
    56de:	0900      	lsrs	r0, r0, #4
    56e0:	3904      	subs	r1, #4
    56e2:	a202      	add	r2, pc, #8	; (adr r2, 56ec <__clzsi2+0x2c>)
    56e4:	5c10      	ldrb	r0, [r2, r0]
    56e6:	1840      	adds	r0, r0, r1
    56e8:	4770      	bx	lr
    56ea:	46c0      	nop			; (mov r8, r8)
    56ec:	02020304 	.word	0x02020304
    56f0:	01010101 	.word	0x01010101
	...

000056fc <__cxa_atexit>:
    56fc:	b538      	push	{r3, r4, r5, lr}
    56fe:	1c05      	adds	r5, r0, #0
    5700:	4805      	ldr	r0, [pc, #20]	; (5718 <__cxa_atexit+0x1c>)
    5702:	1c0c      	adds	r4, r1, #0
    5704:	1c13      	adds	r3, r2, #0
    5706:	2800      	cmp	r0, #0
    5708:	d004      	beq.n	5714 <__cxa_atexit+0x18>
    570a:	2002      	movs	r0, #2
    570c:	1c29      	adds	r1, r5, #0
    570e:	1c22      	adds	r2, r4, #0
    5710:	e000      	b.n	5714 <__cxa_atexit+0x18>
    5712:	bf00      	nop
    5714:	bd38      	pop	{r3, r4, r5, pc}
    5716:	46c0      	nop			; (mov r8, r8)
    5718:	00000000 	.word	0x00000000

0000571c <__errno>:
    571c:	4b01      	ldr	r3, [pc, #4]	; (5724 <__errno+0x8>)
    571e:	6818      	ldr	r0, [r3, #0]
    5720:	4770      	bx	lr
    5722:	46c0      	nop			; (mov r8, r8)
    5724:	10000130 	.word	0x10000130

00005728 <exit>:
    5728:	4b08      	ldr	r3, [pc, #32]	; (574c <exit+0x24>)
    572a:	b510      	push	{r4, lr}
    572c:	1c04      	adds	r4, r0, #0
    572e:	2b00      	cmp	r3, #0
    5730:	d002      	beq.n	5738 <exit+0x10>
    5732:	2100      	movs	r1, #0
    5734:	e000      	b.n	5738 <exit+0x10>
    5736:	bf00      	nop
    5738:	4b05      	ldr	r3, [pc, #20]	; (5750 <exit+0x28>)
    573a:	6818      	ldr	r0, [r3, #0]
    573c:	6a83      	ldr	r3, [r0, #40]	; 0x28
    573e:	2b00      	cmp	r3, #0
    5740:	d000      	beq.n	5744 <exit+0x1c>
    5742:	4798      	blx	r3
    5744:	1c20      	adds	r0, r4, #0
    5746:	f7fc fcd7 	bl	20f8 <_exit>
    574a:	46c0      	nop			; (mov r8, r8)
    574c:	00000000 	.word	0x00000000
    5750:	00007c34 	.word	0x00007c34

00005754 <_fclose_r>:
    5754:	b570      	push	{r4, r5, r6, lr}
    5756:	1c05      	adds	r5, r0, #0
    5758:	1e0c      	subs	r4, r1, #0
    575a:	d101      	bne.n	5760 <_fclose_r+0xc>
    575c:	2000      	movs	r0, #0
    575e:	e049      	b.n	57f4 <_fclose_r+0xa0>
    5760:	2800      	cmp	r0, #0
    5762:	d004      	beq.n	576e <_fclose_r+0x1a>
    5764:	6982      	ldr	r2, [r0, #24]
    5766:	2a00      	cmp	r2, #0
    5768:	d101      	bne.n	576e <_fclose_r+0x1a>
    576a:	f000 f973 	bl	5a54 <__sinit>
    576e:	4b22      	ldr	r3, [pc, #136]	; (57f8 <_fclose_r+0xa4>)
    5770:	429c      	cmp	r4, r3
    5772:	d101      	bne.n	5778 <_fclose_r+0x24>
    5774:	686c      	ldr	r4, [r5, #4]
    5776:	e008      	b.n	578a <_fclose_r+0x36>
    5778:	4b20      	ldr	r3, [pc, #128]	; (57fc <_fclose_r+0xa8>)
    577a:	429c      	cmp	r4, r3
    577c:	d101      	bne.n	5782 <_fclose_r+0x2e>
    577e:	68ac      	ldr	r4, [r5, #8]
    5780:	e003      	b.n	578a <_fclose_r+0x36>
    5782:	4b1f      	ldr	r3, [pc, #124]	; (5800 <_fclose_r+0xac>)
    5784:	429c      	cmp	r4, r3
    5786:	d100      	bne.n	578a <_fclose_r+0x36>
    5788:	68ec      	ldr	r4, [r5, #12]
    578a:	220c      	movs	r2, #12
    578c:	5ea3      	ldrsh	r3, [r4, r2]
    578e:	2b00      	cmp	r3, #0
    5790:	d0e4      	beq.n	575c <_fclose_r+0x8>
    5792:	1c28      	adds	r0, r5, #0
    5794:	1c21      	adds	r1, r4, #0
    5796:	f000 f8c9 	bl	592c <_fflush_r>
    579a:	6b23      	ldr	r3, [r4, #48]	; 0x30
    579c:	1c06      	adds	r6, r0, #0
    579e:	2b00      	cmp	r3, #0
    57a0:	d006      	beq.n	57b0 <_fclose_r+0x5c>
    57a2:	1c28      	adds	r0, r5, #0
    57a4:	6a21      	ldr	r1, [r4, #32]
    57a6:	4798      	blx	r3
    57a8:	2800      	cmp	r0, #0
    57aa:	da01      	bge.n	57b0 <_fclose_r+0x5c>
    57ac:	2601      	movs	r6, #1
    57ae:	4276      	negs	r6, r6
    57b0:	89a3      	ldrh	r3, [r4, #12]
    57b2:	061a      	lsls	r2, r3, #24
    57b4:	d503      	bpl.n	57be <_fclose_r+0x6a>
    57b6:	1c28      	adds	r0, r5, #0
    57b8:	6921      	ldr	r1, [r4, #16]
    57ba:	f000 fb6b 	bl	5e94 <_free_r>
    57be:	6b61      	ldr	r1, [r4, #52]	; 0x34
    57c0:	2900      	cmp	r1, #0
    57c2:	d008      	beq.n	57d6 <_fclose_r+0x82>
    57c4:	1c23      	adds	r3, r4, #0
    57c6:	3344      	adds	r3, #68	; 0x44
    57c8:	4299      	cmp	r1, r3
    57ca:	d002      	beq.n	57d2 <_fclose_r+0x7e>
    57cc:	1c28      	adds	r0, r5, #0
    57ce:	f000 fb61 	bl	5e94 <_free_r>
    57d2:	2300      	movs	r3, #0
    57d4:	6363      	str	r3, [r4, #52]	; 0x34
    57d6:	6ca1      	ldr	r1, [r4, #72]	; 0x48
    57d8:	2900      	cmp	r1, #0
    57da:	d004      	beq.n	57e6 <_fclose_r+0x92>
    57dc:	1c28      	adds	r0, r5, #0
    57de:	f000 fb59 	bl	5e94 <_free_r>
    57e2:	2300      	movs	r3, #0
    57e4:	64a3      	str	r3, [r4, #72]	; 0x48
    57e6:	f000 f9a5 	bl	5b34 <__sfp_lock_acquire>
    57ea:	2300      	movs	r3, #0
    57ec:	81a3      	strh	r3, [r4, #12]
    57ee:	f000 f9a2 	bl	5b36 <__sfp_lock_release>
    57f2:	1c30      	adds	r0, r6, #0
    57f4:	bd70      	pop	{r4, r5, r6, pc}
    57f6:	46c0      	nop			; (mov r8, r8)
    57f8:	00007bd0 	.word	0x00007bd0
    57fc:	00007bf0 	.word	0x00007bf0
    5800:	00007c10 	.word	0x00007c10

00005804 <fclose>:
    5804:	b508      	push	{r3, lr}
    5806:	4b03      	ldr	r3, [pc, #12]	; (5814 <fclose+0x10>)
    5808:	1c01      	adds	r1, r0, #0
    580a:	6818      	ldr	r0, [r3, #0]
    580c:	f7ff ffa2 	bl	5754 <_fclose_r>
    5810:	bd08      	pop	{r3, pc}
    5812:	46c0      	nop			; (mov r8, r8)
    5814:	10000130 	.word	0x10000130

00005818 <__sflush_r>:
    5818:	b5f7      	push	{r0, r1, r2, r4, r5, r6, r7, lr}
    581a:	898b      	ldrh	r3, [r1, #12]
    581c:	1c05      	adds	r5, r0, #0
    581e:	1c0c      	adds	r4, r1, #0
    5820:	0719      	lsls	r1, r3, #28
    5822:	d45e      	bmi.n	58e2 <__sflush_r+0xca>
    5824:	6862      	ldr	r2, [r4, #4]
    5826:	2a00      	cmp	r2, #0
    5828:	dc02      	bgt.n	5830 <__sflush_r+0x18>
    582a:	6c27      	ldr	r7, [r4, #64]	; 0x40
    582c:	2f00      	cmp	r7, #0
    582e:	dd1a      	ble.n	5866 <__sflush_r+0x4e>
    5830:	6ae7      	ldr	r7, [r4, #44]	; 0x2c
    5832:	2f00      	cmp	r7, #0
    5834:	d017      	beq.n	5866 <__sflush_r+0x4e>
    5836:	2200      	movs	r2, #0
    5838:	682e      	ldr	r6, [r5, #0]
    583a:	602a      	str	r2, [r5, #0]
    583c:	2280      	movs	r2, #128	; 0x80
    583e:	0152      	lsls	r2, r2, #5
    5840:	401a      	ands	r2, r3
    5842:	d001      	beq.n	5848 <__sflush_r+0x30>
    5844:	6d62      	ldr	r2, [r4, #84]	; 0x54
    5846:	e015      	b.n	5874 <__sflush_r+0x5c>
    5848:	1c28      	adds	r0, r5, #0
    584a:	6a21      	ldr	r1, [r4, #32]
    584c:	2301      	movs	r3, #1
    584e:	47b8      	blx	r7
    5850:	1c02      	adds	r2, r0, #0
    5852:	1c41      	adds	r1, r0, #1
    5854:	d10e      	bne.n	5874 <__sflush_r+0x5c>
    5856:	682b      	ldr	r3, [r5, #0]
    5858:	2b00      	cmp	r3, #0
    585a:	d00b      	beq.n	5874 <__sflush_r+0x5c>
    585c:	2b1d      	cmp	r3, #29
    585e:	d001      	beq.n	5864 <__sflush_r+0x4c>
    5860:	2b16      	cmp	r3, #22
    5862:	d102      	bne.n	586a <__sflush_r+0x52>
    5864:	602e      	str	r6, [r5, #0]
    5866:	2000      	movs	r0, #0
    5868:	e05e      	b.n	5928 <__sflush_r+0x110>
    586a:	89a3      	ldrh	r3, [r4, #12]
    586c:	2140      	movs	r1, #64	; 0x40
    586e:	430b      	orrs	r3, r1
    5870:	81a3      	strh	r3, [r4, #12]
    5872:	e059      	b.n	5928 <__sflush_r+0x110>
    5874:	89a3      	ldrh	r3, [r4, #12]
    5876:	075f      	lsls	r7, r3, #29
    5878:	d506      	bpl.n	5888 <__sflush_r+0x70>
    587a:	6861      	ldr	r1, [r4, #4]
    587c:	6b63      	ldr	r3, [r4, #52]	; 0x34
    587e:	1a52      	subs	r2, r2, r1
    5880:	2b00      	cmp	r3, #0
    5882:	d001      	beq.n	5888 <__sflush_r+0x70>
    5884:	6c27      	ldr	r7, [r4, #64]	; 0x40
    5886:	1bd2      	subs	r2, r2, r7
    5888:	1c28      	adds	r0, r5, #0
    588a:	6a21      	ldr	r1, [r4, #32]
    588c:	2300      	movs	r3, #0
    588e:	6ae7      	ldr	r7, [r4, #44]	; 0x2c
    5890:	47b8      	blx	r7
    5892:	89a2      	ldrh	r2, [r4, #12]
    5894:	1c41      	adds	r1, r0, #1
    5896:	d106      	bne.n	58a6 <__sflush_r+0x8e>
    5898:	682b      	ldr	r3, [r5, #0]
    589a:	2b00      	cmp	r3, #0
    589c:	d003      	beq.n	58a6 <__sflush_r+0x8e>
    589e:	2b1d      	cmp	r3, #29
    58a0:	d001      	beq.n	58a6 <__sflush_r+0x8e>
    58a2:	2b16      	cmp	r3, #22
    58a4:	d119      	bne.n	58da <__sflush_r+0xc2>
    58a6:	2300      	movs	r3, #0
    58a8:	6063      	str	r3, [r4, #4]
    58aa:	6923      	ldr	r3, [r4, #16]
    58ac:	6023      	str	r3, [r4, #0]
    58ae:	04d7      	lsls	r7, r2, #19
    58b0:	d505      	bpl.n	58be <__sflush_r+0xa6>
    58b2:	1c41      	adds	r1, r0, #1
    58b4:	d102      	bne.n	58bc <__sflush_r+0xa4>
    58b6:	682a      	ldr	r2, [r5, #0]
    58b8:	2a00      	cmp	r2, #0
    58ba:	d100      	bne.n	58be <__sflush_r+0xa6>
    58bc:	6560      	str	r0, [r4, #84]	; 0x54
    58be:	6b61      	ldr	r1, [r4, #52]	; 0x34
    58c0:	602e      	str	r6, [r5, #0]
    58c2:	2900      	cmp	r1, #0
    58c4:	d0cf      	beq.n	5866 <__sflush_r+0x4e>
    58c6:	1c23      	adds	r3, r4, #0
    58c8:	3344      	adds	r3, #68	; 0x44
    58ca:	4299      	cmp	r1, r3
    58cc:	d002      	beq.n	58d4 <__sflush_r+0xbc>
    58ce:	1c28      	adds	r0, r5, #0
    58d0:	f000 fae0 	bl	5e94 <_free_r>
    58d4:	2000      	movs	r0, #0
    58d6:	6360      	str	r0, [r4, #52]	; 0x34
    58d8:	e026      	b.n	5928 <__sflush_r+0x110>
    58da:	2340      	movs	r3, #64	; 0x40
    58dc:	431a      	orrs	r2, r3
    58de:	81a2      	strh	r2, [r4, #12]
    58e0:	e022      	b.n	5928 <__sflush_r+0x110>
    58e2:	6926      	ldr	r6, [r4, #16]
    58e4:	2e00      	cmp	r6, #0
    58e6:	d0be      	beq.n	5866 <__sflush_r+0x4e>
    58e8:	6827      	ldr	r7, [r4, #0]
    58ea:	2200      	movs	r2, #0
    58ec:	1bbf      	subs	r7, r7, r6
    58ee:	9701      	str	r7, [sp, #4]
    58f0:	6026      	str	r6, [r4, #0]
    58f2:	0799      	lsls	r1, r3, #30
    58f4:	d100      	bne.n	58f8 <__sflush_r+0xe0>
    58f6:	6962      	ldr	r2, [r4, #20]
    58f8:	60a2      	str	r2, [r4, #8]
    58fa:	9f01      	ldr	r7, [sp, #4]
    58fc:	2f00      	cmp	r7, #0
    58fe:	ddb2      	ble.n	5866 <__sflush_r+0x4e>
    5900:	1c28      	adds	r0, r5, #0
    5902:	6a21      	ldr	r1, [r4, #32]
    5904:	1c32      	adds	r2, r6, #0
    5906:	9b01      	ldr	r3, [sp, #4]
    5908:	6aa7      	ldr	r7, [r4, #40]	; 0x28
    590a:	47b8      	blx	r7
    590c:	2800      	cmp	r0, #0
    590e:	dc06      	bgt.n	591e <__sflush_r+0x106>
    5910:	89a3      	ldrh	r3, [r4, #12]
    5912:	2240      	movs	r2, #64	; 0x40
    5914:	4313      	orrs	r3, r2
    5916:	2001      	movs	r0, #1
    5918:	81a3      	strh	r3, [r4, #12]
    591a:	4240      	negs	r0, r0
    591c:	e004      	b.n	5928 <__sflush_r+0x110>
    591e:	9f01      	ldr	r7, [sp, #4]
    5920:	1836      	adds	r6, r6, r0
    5922:	1a3f      	subs	r7, r7, r0
    5924:	9701      	str	r7, [sp, #4]
    5926:	e7e8      	b.n	58fa <__sflush_r+0xe2>
    5928:	bdfe      	pop	{r1, r2, r3, r4, r5, r6, r7, pc}
	...

0000592c <_fflush_r>:
    592c:	690a      	ldr	r2, [r1, #16]
    592e:	b538      	push	{r3, r4, r5, lr}
    5930:	1c05      	adds	r5, r0, #0
    5932:	1c0c      	adds	r4, r1, #0
    5934:	2a00      	cmp	r2, #0
    5936:	d101      	bne.n	593c <_fflush_r+0x10>
    5938:	2000      	movs	r0, #0
    593a:	e01c      	b.n	5976 <_fflush_r+0x4a>
    593c:	2800      	cmp	r0, #0
    593e:	d004      	beq.n	594a <_fflush_r+0x1e>
    5940:	6983      	ldr	r3, [r0, #24]
    5942:	2b00      	cmp	r3, #0
    5944:	d101      	bne.n	594a <_fflush_r+0x1e>
    5946:	f000 f885 	bl	5a54 <__sinit>
    594a:	4b0b      	ldr	r3, [pc, #44]	; (5978 <_fflush_r+0x4c>)
    594c:	429c      	cmp	r4, r3
    594e:	d101      	bne.n	5954 <_fflush_r+0x28>
    5950:	686c      	ldr	r4, [r5, #4]
    5952:	e008      	b.n	5966 <_fflush_r+0x3a>
    5954:	4b09      	ldr	r3, [pc, #36]	; (597c <_fflush_r+0x50>)
    5956:	429c      	cmp	r4, r3
    5958:	d101      	bne.n	595e <_fflush_r+0x32>
    595a:	68ac      	ldr	r4, [r5, #8]
    595c:	e003      	b.n	5966 <_fflush_r+0x3a>
    595e:	4b08      	ldr	r3, [pc, #32]	; (5980 <_fflush_r+0x54>)
    5960:	429c      	cmp	r4, r3
    5962:	d100      	bne.n	5966 <_fflush_r+0x3a>
    5964:	68ec      	ldr	r4, [r5, #12]
    5966:	220c      	movs	r2, #12
    5968:	5ea3      	ldrsh	r3, [r4, r2]
    596a:	2b00      	cmp	r3, #0
    596c:	d0e4      	beq.n	5938 <_fflush_r+0xc>
    596e:	1c28      	adds	r0, r5, #0
    5970:	1c21      	adds	r1, r4, #0
    5972:	f7ff ff51 	bl	5818 <__sflush_r>
    5976:	bd38      	pop	{r3, r4, r5, pc}
    5978:	00007bd0 	.word	0x00007bd0
    597c:	00007bf0 	.word	0x00007bf0
    5980:	00007c10 	.word	0x00007c10

00005984 <fflush>:
    5984:	b508      	push	{r3, lr}
    5986:	1e01      	subs	r1, r0, #0
    5988:	d105      	bne.n	5996 <fflush+0x12>
    598a:	4b05      	ldr	r3, [pc, #20]	; (59a0 <fflush+0x1c>)
    598c:	4905      	ldr	r1, [pc, #20]	; (59a4 <fflush+0x20>)
    598e:	6818      	ldr	r0, [r3, #0]
    5990:	f000 f9b8 	bl	5d04 <_fwalk_reent>
    5994:	e003      	b.n	599e <fflush+0x1a>
    5996:	4b04      	ldr	r3, [pc, #16]	; (59a8 <fflush+0x24>)
    5998:	6818      	ldr	r0, [r3, #0]
    599a:	f7ff ffc7 	bl	592c <_fflush_r>
    599e:	bd08      	pop	{r3, pc}
    59a0:	00007c34 	.word	0x00007c34
    59a4:	0000592d 	.word	0x0000592d
    59a8:	10000130 	.word	0x10000130

000059ac <_cleanup_r>:
    59ac:	b5f8      	push	{r3, r4, r5, r6, r7, lr}
    59ae:	1c04      	adds	r4, r0, #0
    59b0:	1c07      	adds	r7, r0, #0
    59b2:	3448      	adds	r4, #72	; 0x48
    59b4:	2c00      	cmp	r4, #0
    59b6:	d012      	beq.n	59de <_cleanup_r+0x32>
    59b8:	68a5      	ldr	r5, [r4, #8]
    59ba:	6866      	ldr	r6, [r4, #4]
    59bc:	3e01      	subs	r6, #1
    59be:	d40c      	bmi.n	59da <_cleanup_r+0x2e>
    59c0:	89ab      	ldrh	r3, [r5, #12]
    59c2:	2b01      	cmp	r3, #1
    59c4:	d907      	bls.n	59d6 <_cleanup_r+0x2a>
    59c6:	220e      	movs	r2, #14
    59c8:	5eab      	ldrsh	r3, [r5, r2]
    59ca:	3301      	adds	r3, #1
    59cc:	d003      	beq.n	59d6 <_cleanup_r+0x2a>
    59ce:	1c38      	adds	r0, r7, #0
    59d0:	1c29      	adds	r1, r5, #0
    59d2:	f7ff ffab 	bl	592c <_fflush_r>
    59d6:	3568      	adds	r5, #104	; 0x68
    59d8:	e7f0      	b.n	59bc <_cleanup_r+0x10>
    59da:	6824      	ldr	r4, [r4, #0]
    59dc:	e7ea      	b.n	59b4 <_cleanup_r+0x8>
    59de:	bdf8      	pop	{r3, r4, r5, r6, r7, pc}

000059e0 <std.isra.0>:
    59e0:	2300      	movs	r3, #0
    59e2:	b510      	push	{r4, lr}
    59e4:	1c04      	adds	r4, r0, #0
    59e6:	6003      	str	r3, [r0, #0]
    59e8:	6043      	str	r3, [r0, #4]
    59ea:	6083      	str	r3, [r0, #8]
    59ec:	8181      	strh	r1, [r0, #12]
    59ee:	6643      	str	r3, [r0, #100]	; 0x64
    59f0:	81c2      	strh	r2, [r0, #14]
    59f2:	6103      	str	r3, [r0, #16]
    59f4:	6143      	str	r3, [r0, #20]
    59f6:	6183      	str	r3, [r0, #24]
    59f8:	1c19      	adds	r1, r3, #0
    59fa:	2208      	movs	r2, #8
    59fc:	305c      	adds	r0, #92	; 0x5c
    59fe:	f000 fa41 	bl	5e84 <memset>
    5a02:	4b05      	ldr	r3, [pc, #20]	; (5a18 <std.isra.0+0x38>)
    5a04:	6224      	str	r4, [r4, #32]
    5a06:	6263      	str	r3, [r4, #36]	; 0x24
    5a08:	4b04      	ldr	r3, [pc, #16]	; (5a1c <std.isra.0+0x3c>)
    5a0a:	62a3      	str	r3, [r4, #40]	; 0x28
    5a0c:	4b04      	ldr	r3, [pc, #16]	; (5a20 <std.isra.0+0x40>)
    5a0e:	62e3      	str	r3, [r4, #44]	; 0x2c
    5a10:	4b04      	ldr	r3, [pc, #16]	; (5a24 <std.isra.0+0x44>)
    5a12:	6323      	str	r3, [r4, #48]	; 0x30
    5a14:	bd10      	pop	{r4, pc}
    5a16:	46c0      	nop			; (mov r8, r8)
    5a18:	000061cd 	.word	0x000061cd
    5a1c:	000061f9 	.word	0x000061f9
    5a20:	00006231 	.word	0x00006231
    5a24:	0000625d 	.word	0x0000625d

00005a28 <__sfmoreglue>:
    5a28:	b570      	push	{r4, r5, r6, lr}
    5a2a:	1e4b      	subs	r3, r1, #1
    5a2c:	2568      	movs	r5, #104	; 0x68
    5a2e:	435d      	muls	r5, r3
    5a30:	1c0e      	adds	r6, r1, #0
    5a32:	1c29      	adds	r1, r5, #0
    5a34:	3174      	adds	r1, #116	; 0x74
    5a36:	f000 fa75 	bl	5f24 <_malloc_r>
    5a3a:	1e04      	subs	r4, r0, #0
    5a3c:	d008      	beq.n	5a50 <__sfmoreglue+0x28>
    5a3e:	2100      	movs	r1, #0
    5a40:	6001      	str	r1, [r0, #0]
    5a42:	6046      	str	r6, [r0, #4]
    5a44:	1c2a      	adds	r2, r5, #0
    5a46:	300c      	adds	r0, #12
    5a48:	60a0      	str	r0, [r4, #8]
    5a4a:	3268      	adds	r2, #104	; 0x68
    5a4c:	f000 fa1a 	bl	5e84 <memset>
    5a50:	1c20      	adds	r0, r4, #0
    5a52:	bd70      	pop	{r4, r5, r6, pc}

00005a54 <__sinit>:
    5a54:	6983      	ldr	r3, [r0, #24]
    5a56:	b513      	push	{r0, r1, r4, lr}
    5a58:	1c04      	adds	r4, r0, #0
    5a5a:	2b00      	cmp	r3, #0
    5a5c:	d127      	bne.n	5aae <__sinit+0x5a>
    5a5e:	6483      	str	r3, [r0, #72]	; 0x48
    5a60:	64c3      	str	r3, [r0, #76]	; 0x4c
    5a62:	6503      	str	r3, [r0, #80]	; 0x50
    5a64:	4b12      	ldr	r3, [pc, #72]	; (5ab0 <__sinit+0x5c>)
    5a66:	4a13      	ldr	r2, [pc, #76]	; (5ab4 <__sinit+0x60>)
    5a68:	681b      	ldr	r3, [r3, #0]
    5a6a:	6282      	str	r2, [r0, #40]	; 0x28
    5a6c:	4298      	cmp	r0, r3
    5a6e:	d101      	bne.n	5a74 <__sinit+0x20>
    5a70:	2301      	movs	r3, #1
    5a72:	6183      	str	r3, [r0, #24]
    5a74:	1c20      	adds	r0, r4, #0
    5a76:	f000 f81f 	bl	5ab8 <__sfp>
    5a7a:	6060      	str	r0, [r4, #4]
    5a7c:	1c20      	adds	r0, r4, #0
    5a7e:	f000 f81b 	bl	5ab8 <__sfp>
    5a82:	60a0      	str	r0, [r4, #8]
    5a84:	1c20      	adds	r0, r4, #0
    5a86:	f000 f817 	bl	5ab8 <__sfp>
    5a8a:	2104      	movs	r1, #4
    5a8c:	60e0      	str	r0, [r4, #12]
    5a8e:	2200      	movs	r2, #0
    5a90:	6860      	ldr	r0, [r4, #4]
    5a92:	f7ff ffa5 	bl	59e0 <std.isra.0>
    5a96:	68a0      	ldr	r0, [r4, #8]
    5a98:	2109      	movs	r1, #9
    5a9a:	2201      	movs	r2, #1
    5a9c:	f7ff ffa0 	bl	59e0 <std.isra.0>
    5aa0:	68e0      	ldr	r0, [r4, #12]
    5aa2:	2112      	movs	r1, #18
    5aa4:	2202      	movs	r2, #2
    5aa6:	f7ff ff9b 	bl	59e0 <std.isra.0>
    5aaa:	2301      	movs	r3, #1
    5aac:	61a3      	str	r3, [r4, #24]
    5aae:	bd13      	pop	{r0, r1, r4, pc}
    5ab0:	00007c34 	.word	0x00007c34
    5ab4:	000059ad 	.word	0x000059ad

00005ab8 <__sfp>:
    5ab8:	b5f8      	push	{r3, r4, r5, r6, r7, lr}
    5aba:	4b1d      	ldr	r3, [pc, #116]	; (5b30 <__sfp+0x78>)
    5abc:	1c07      	adds	r7, r0, #0
    5abe:	681e      	ldr	r6, [r3, #0]
    5ac0:	69b2      	ldr	r2, [r6, #24]
    5ac2:	2a00      	cmp	r2, #0
    5ac4:	d102      	bne.n	5acc <__sfp+0x14>
    5ac6:	1c30      	adds	r0, r6, #0
    5ac8:	f7ff ffc4 	bl	5a54 <__sinit>
    5acc:	3648      	adds	r6, #72	; 0x48
    5ace:	68b4      	ldr	r4, [r6, #8]
    5ad0:	6873      	ldr	r3, [r6, #4]
    5ad2:	3b01      	subs	r3, #1
    5ad4:	d405      	bmi.n	5ae2 <__sfp+0x2a>
    5ad6:	220c      	movs	r2, #12
    5ad8:	5ea5      	ldrsh	r5, [r4, r2]
    5ada:	2d00      	cmp	r5, #0
    5adc:	d010      	beq.n	5b00 <__sfp+0x48>
    5ade:	3468      	adds	r4, #104	; 0x68
    5ae0:	e7f7      	b.n	5ad2 <__sfp+0x1a>
    5ae2:	6833      	ldr	r3, [r6, #0]
    5ae4:	2b00      	cmp	r3, #0
    5ae6:	d106      	bne.n	5af6 <__sfp+0x3e>
    5ae8:	1c38      	adds	r0, r7, #0
    5aea:	2104      	movs	r1, #4
    5aec:	f7ff ff9c 	bl	5a28 <__sfmoreglue>
    5af0:	6030      	str	r0, [r6, #0]
    5af2:	2800      	cmp	r0, #0
    5af4:	d001      	beq.n	5afa <__sfp+0x42>
    5af6:	6836      	ldr	r6, [r6, #0]
    5af8:	e7e9      	b.n	5ace <__sfp+0x16>
    5afa:	230c      	movs	r3, #12
    5afc:	603b      	str	r3, [r7, #0]
    5afe:	e016      	b.n	5b2e <__sfp+0x76>
    5b00:	2301      	movs	r3, #1
    5b02:	425b      	negs	r3, r3
    5b04:	81e3      	strh	r3, [r4, #14]
    5b06:	1c20      	adds	r0, r4, #0
    5b08:	2301      	movs	r3, #1
    5b0a:	81a3      	strh	r3, [r4, #12]
    5b0c:	6665      	str	r5, [r4, #100]	; 0x64
    5b0e:	6025      	str	r5, [r4, #0]
    5b10:	60a5      	str	r5, [r4, #8]
    5b12:	6065      	str	r5, [r4, #4]
    5b14:	6125      	str	r5, [r4, #16]
    5b16:	6165      	str	r5, [r4, #20]
    5b18:	61a5      	str	r5, [r4, #24]
    5b1a:	305c      	adds	r0, #92	; 0x5c
    5b1c:	1c29      	adds	r1, r5, #0
    5b1e:	2208      	movs	r2, #8
    5b20:	f000 f9b0 	bl	5e84 <memset>
    5b24:	6365      	str	r5, [r4, #52]	; 0x34
    5b26:	63a5      	str	r5, [r4, #56]	; 0x38
    5b28:	64a5      	str	r5, [r4, #72]	; 0x48
    5b2a:	64e5      	str	r5, [r4, #76]	; 0x4c
    5b2c:	1c20      	adds	r0, r4, #0
    5b2e:	bdf8      	pop	{r3, r4, r5, r6, r7, pc}
    5b30:	00007c34 	.word	0x00007c34

00005b34 <__sfp_lock_acquire>:
    5b34:	4770      	bx	lr

00005b36 <__sfp_lock_release>:
    5b36:	4770      	bx	lr

00005b38 <_fopen_r>:
    5b38:	b5f7      	push	{r0, r1, r2, r4, r5, r6, r7, lr}
    5b3a:	1c0f      	adds	r7, r1, #0
    5b3c:	1c11      	adds	r1, r2, #0
    5b3e:	aa01      	add	r2, sp, #4
    5b40:	1c05      	adds	r5, r0, #0
    5b42:	f001 fc15 	bl	7370 <__sflags>
    5b46:	1e06      	subs	r6, r0, #0
    5b48:	d101      	bne.n	5b4e <_fopen_r+0x16>
    5b4a:	2400      	movs	r4, #0
    5b4c:	e027      	b.n	5b9e <_fopen_r+0x66>
    5b4e:	1c28      	adds	r0, r5, #0
    5b50:	f7ff ffb2 	bl	5ab8 <__sfp>
    5b54:	1e04      	subs	r4, r0, #0
    5b56:	d0f8      	beq.n	5b4a <_fopen_r+0x12>
    5b58:	23db      	movs	r3, #219	; 0xdb
    5b5a:	1c28      	adds	r0, r5, #0
    5b5c:	1c39      	adds	r1, r7, #0
    5b5e:	9a01      	ldr	r2, [sp, #4]
    5b60:	005b      	lsls	r3, r3, #1
    5b62:	f000 fa33 	bl	5fcc <_open_r>
    5b66:	2800      	cmp	r0, #0
    5b68:	da06      	bge.n	5b78 <_fopen_r+0x40>
    5b6a:	2500      	movs	r5, #0
    5b6c:	f7ff ffe2 	bl	5b34 <__sfp_lock_acquire>
    5b70:	81a5      	strh	r5, [r4, #12]
    5b72:	f7ff ffe0 	bl	5b36 <__sfp_lock_release>
    5b76:	e7e8      	b.n	5b4a <_fopen_r+0x12>
    5b78:	4b0a      	ldr	r3, [pc, #40]	; (5ba4 <_fopen_r+0x6c>)
    5b7a:	81e0      	strh	r0, [r4, #14]
    5b7c:	6263      	str	r3, [r4, #36]	; 0x24
    5b7e:	4b0a      	ldr	r3, [pc, #40]	; (5ba8 <_fopen_r+0x70>)
    5b80:	81a6      	strh	r6, [r4, #12]
    5b82:	62a3      	str	r3, [r4, #40]	; 0x28
    5b84:	4b09      	ldr	r3, [pc, #36]	; (5bac <_fopen_r+0x74>)
    5b86:	6224      	str	r4, [r4, #32]
    5b88:	62e3      	str	r3, [r4, #44]	; 0x2c
    5b8a:	4b09      	ldr	r3, [pc, #36]	; (5bb0 <_fopen_r+0x78>)
    5b8c:	6323      	str	r3, [r4, #48]	; 0x30
    5b8e:	05f3      	lsls	r3, r6, #23
    5b90:	d505      	bpl.n	5b9e <_fopen_r+0x66>
    5b92:	1c28      	adds	r0, r5, #0
    5b94:	1c21      	adds	r1, r4, #0
    5b96:	2200      	movs	r2, #0
    5b98:	2302      	movs	r3, #2
    5b9a:	f000 f817 	bl	5bcc <_fseek_r>
    5b9e:	1c20      	adds	r0, r4, #0
    5ba0:	bdfe      	pop	{r1, r2, r3, r4, r5, r6, r7, pc}
    5ba2:	46c0      	nop			; (mov r8, r8)
    5ba4:	000061cd 	.word	0x000061cd
    5ba8:	000061f9 	.word	0x000061f9
    5bac:	00006231 	.word	0x00006231
    5bb0:	0000625d 	.word	0x0000625d

00005bb4 <fopen>:
    5bb4:	b508      	push	{r3, lr}
    5bb6:	1c0a      	adds	r2, r1, #0
    5bb8:	4903      	ldr	r1, [pc, #12]	; (5bc8 <fopen+0x14>)
    5bba:	1c03      	adds	r3, r0, #0
    5bbc:	6808      	ldr	r0, [r1, #0]
    5bbe:	1c19      	adds	r1, r3, #0
    5bc0:	f7ff ffba 	bl	5b38 <_fopen_r>
    5bc4:	bd08      	pop	{r3, pc}
    5bc6:	46c0      	nop			; (mov r8, r8)
    5bc8:	10000130 	.word	0x10000130

00005bcc <_fseek_r>:
    5bcc:	b508      	push	{r3, lr}
    5bce:	f000 f801 	bl	5bd4 <_fseeko_r>
    5bd2:	bd08      	pop	{r3, pc}

00005bd4 <_fseeko_r>:
    5bd4:	b5f7      	push	{r0, r1, r2, r4, r5, r6, r7, lr}
    5bd6:	1c05      	adds	r5, r0, #0
    5bd8:	1c0c      	adds	r4, r1, #0
    5bda:	9201      	str	r2, [sp, #4]
    5bdc:	1c1e      	adds	r6, r3, #0
    5bde:	2800      	cmp	r0, #0
    5be0:	d004      	beq.n	5bec <_fseeko_r+0x18>
    5be2:	6982      	ldr	r2, [r0, #24]
    5be4:	2a00      	cmp	r2, #0
    5be6:	d101      	bne.n	5bec <_fseeko_r+0x18>
    5be8:	f7ff ff34 	bl	5a54 <__sinit>
    5bec:	4b41      	ldr	r3, [pc, #260]	; (5cf4 <_fseeko_r+0x120>)
    5bee:	429c      	cmp	r4, r3
    5bf0:	d101      	bne.n	5bf6 <_fseeko_r+0x22>
    5bf2:	686c      	ldr	r4, [r5, #4]
    5bf4:	e008      	b.n	5c08 <_fseeko_r+0x34>
    5bf6:	4b40      	ldr	r3, [pc, #256]	; (5cf8 <_fseeko_r+0x124>)
    5bf8:	429c      	cmp	r4, r3
    5bfa:	d101      	bne.n	5c00 <_fseeko_r+0x2c>
    5bfc:	68ac      	ldr	r4, [r5, #8]
    5bfe:	e003      	b.n	5c08 <_fseeko_r+0x34>
    5c00:	4b3e      	ldr	r3, [pc, #248]	; (5cfc <_fseeko_r+0x128>)
    5c02:	429c      	cmp	r4, r3
    5c04:	d100      	bne.n	5c08 <_fseeko_r+0x34>
    5c06:	68ec      	ldr	r4, [r5, #12]
    5c08:	89a2      	ldrh	r2, [r4, #12]
    5c0a:	2384      	movs	r3, #132	; 0x84
    5c0c:	005b      	lsls	r3, r3, #1
    5c0e:	401a      	ands	r2, r3
    5c10:	429a      	cmp	r2, r3
    5c12:	d103      	bne.n	5c1c <_fseeko_r+0x48>
    5c14:	1c28      	adds	r0, r5, #0
    5c16:	1c21      	adds	r1, r4, #0
    5c18:	f7ff fe88 	bl	592c <_fflush_r>
    5c1c:	6ae3      	ldr	r3, [r4, #44]	; 0x2c
    5c1e:	9300      	str	r3, [sp, #0]
    5c20:	2b00      	cmp	r3, #0
    5c22:	d101      	bne.n	5c28 <_fseeko_r+0x54>
    5c24:	231d      	movs	r3, #29
    5c26:	e031      	b.n	5c8c <_fseeko_r+0xb8>
    5c28:	2e01      	cmp	r6, #1
    5c2a:	d005      	beq.n	5c38 <_fseeko_r+0x64>
    5c2c:	2e02      	cmp	r6, #2
    5c2e:	d031      	beq.n	5c94 <_fseeko_r+0xc0>
    5c30:	2316      	movs	r3, #22
    5c32:	2e00      	cmp	r6, #0
    5c34:	d12a      	bne.n	5c8c <_fseeko_r+0xb8>
    5c36:	e02d      	b.n	5c94 <_fseeko_r+0xc0>
    5c38:	1c28      	adds	r0, r5, #0
    5c3a:	1c21      	adds	r1, r4, #0
    5c3c:	f7ff fe76 	bl	592c <_fflush_r>
    5c40:	89a3      	ldrh	r3, [r4, #12]
    5c42:	2280      	movs	r2, #128	; 0x80
    5c44:	0152      	lsls	r2, r2, #5
    5c46:	401a      	ands	r2, r3
    5c48:	d001      	beq.n	5c4e <_fseeko_r+0x7a>
    5c4a:	6d60      	ldr	r0, [r4, #84]	; 0x54
    5c4c:	e006      	b.n	5c5c <_fseeko_r+0x88>
    5c4e:	1c33      	adds	r3, r6, #0
    5c50:	1c28      	adds	r0, r5, #0
    5c52:	6a21      	ldr	r1, [r4, #32]
    5c54:	9e00      	ldr	r6, [sp, #0]
    5c56:	47b0      	blx	r6
    5c58:	1c42      	adds	r2, r0, #1
    5c5a:	d018      	beq.n	5c8e <_fseeko_r+0xba>
    5c5c:	89a3      	ldrh	r3, [r4, #12]
    5c5e:	075e      	lsls	r6, r3, #29
    5c60:	d507      	bpl.n	5c72 <_fseeko_r+0x9e>
    5c62:	6862      	ldr	r2, [r4, #4]
    5c64:	6b63      	ldr	r3, [r4, #52]	; 0x34
    5c66:	1a80      	subs	r0, r0, r2
    5c68:	2b00      	cmp	r3, #0
    5c6a:	d00a      	beq.n	5c82 <_fseeko_r+0xae>
    5c6c:	6c26      	ldr	r6, [r4, #64]	; 0x40
    5c6e:	1b80      	subs	r0, r0, r6
    5c70:	e007      	b.n	5c82 <_fseeko_r+0xae>
    5c72:	071a      	lsls	r2, r3, #28
    5c74:	d505      	bpl.n	5c82 <_fseeko_r+0xae>
    5c76:	6823      	ldr	r3, [r4, #0]
    5c78:	2b00      	cmp	r3, #0
    5c7a:	d002      	beq.n	5c82 <_fseeko_r+0xae>
    5c7c:	6926      	ldr	r6, [r4, #16]
    5c7e:	1b9b      	subs	r3, r3, r6
    5c80:	18c0      	adds	r0, r0, r3
    5c82:	9e01      	ldr	r6, [sp, #4]
    5c84:	1836      	adds	r6, r6, r0
    5c86:	9601      	str	r6, [sp, #4]
    5c88:	2600      	movs	r6, #0
    5c8a:	e003      	b.n	5c94 <_fseeko_r+0xc0>
    5c8c:	602b      	str	r3, [r5, #0]
    5c8e:	2701      	movs	r7, #1
    5c90:	427f      	negs	r7, r7
    5c92:	e02d      	b.n	5cf0 <_fseeko_r+0x11c>
    5c94:	6922      	ldr	r2, [r4, #16]
    5c96:	2a00      	cmp	r2, #0
    5c98:	d103      	bne.n	5ca2 <_fseeko_r+0xce>
    5c9a:	1c28      	adds	r0, r5, #0
    5c9c:	1c21      	adds	r1, r4, #0
    5c9e:	f000 f879 	bl	5d94 <__smakebuf_r>
    5ca2:	1c28      	adds	r0, r5, #0
    5ca4:	1c21      	adds	r1, r4, #0
    5ca6:	f7ff fe41 	bl	592c <_fflush_r>
    5caa:	1e07      	subs	r7, r0, #0
    5cac:	d1ef      	bne.n	5c8e <_fseeko_r+0xba>
    5cae:	1c33      	adds	r3, r6, #0
    5cb0:	1c28      	adds	r0, r5, #0
    5cb2:	6a21      	ldr	r1, [r4, #32]
    5cb4:	9a01      	ldr	r2, [sp, #4]
    5cb6:	9e00      	ldr	r6, [sp, #0]
    5cb8:	47b0      	blx	r6
    5cba:	3001      	adds	r0, #1
    5cbc:	d0e7      	beq.n	5c8e <_fseeko_r+0xba>
    5cbe:	6b61      	ldr	r1, [r4, #52]	; 0x34
    5cc0:	2900      	cmp	r1, #0
    5cc2:	d008      	beq.n	5cd6 <_fseeko_r+0x102>
    5cc4:	1c23      	adds	r3, r4, #0
    5cc6:	3344      	adds	r3, #68	; 0x44
    5cc8:	4299      	cmp	r1, r3
    5cca:	d002      	beq.n	5cd2 <_fseeko_r+0xfe>
    5ccc:	1c28      	adds	r0, r5, #0
    5cce:	f000 f8e1 	bl	5e94 <_free_r>
    5cd2:	2300      	movs	r3, #0
    5cd4:	6363      	str	r3, [r4, #52]	; 0x34
    5cd6:	6922      	ldr	r2, [r4, #16]
    5cd8:	4b09      	ldr	r3, [pc, #36]	; (5d00 <_fseeko_r+0x12c>)
    5cda:	6022      	str	r2, [r4, #0]
    5cdc:	89a2      	ldrh	r2, [r4, #12]
    5cde:	2100      	movs	r1, #0
    5ce0:	4013      	ands	r3, r2
    5ce2:	1c20      	adds	r0, r4, #0
    5ce4:	6061      	str	r1, [r4, #4]
    5ce6:	81a3      	strh	r3, [r4, #12]
    5ce8:	305c      	adds	r0, #92	; 0x5c
    5cea:	2208      	movs	r2, #8
    5cec:	f000 f8ca 	bl	5e84 <memset>
    5cf0:	1c38      	adds	r0, r7, #0
    5cf2:	bdfe      	pop	{r1, r2, r3, r4, r5, r6, r7, pc}
    5cf4:	00007bd0 	.word	0x00007bd0
    5cf8:	00007bf0 	.word	0x00007bf0
    5cfc:	00007c10 	.word	0x00007c10
    5d00:	fffff7df 	.word	0xfffff7df

00005d04 <_fwalk_reent>:
    5d04:	b5f7      	push	{r0, r1, r2, r4, r5, r6, r7, lr}
    5d06:	1c04      	adds	r4, r0, #0
    5d08:	1c07      	adds	r7, r0, #0
    5d0a:	9101      	str	r1, [sp, #4]
    5d0c:	3448      	adds	r4, #72	; 0x48
    5d0e:	2600      	movs	r6, #0
    5d10:	2c00      	cmp	r4, #0
    5d12:	d016      	beq.n	5d42 <_fwalk_reent+0x3e>
    5d14:	6862      	ldr	r2, [r4, #4]
    5d16:	68a5      	ldr	r5, [r4, #8]
    5d18:	9200      	str	r2, [sp, #0]
    5d1a:	9a00      	ldr	r2, [sp, #0]
    5d1c:	3a01      	subs	r2, #1
    5d1e:	9200      	str	r2, [sp, #0]
    5d20:	d40d      	bmi.n	5d3e <_fwalk_reent+0x3a>
    5d22:	89ab      	ldrh	r3, [r5, #12]
    5d24:	2b01      	cmp	r3, #1
    5d26:	d908      	bls.n	5d3a <_fwalk_reent+0x36>
    5d28:	220e      	movs	r2, #14
    5d2a:	5eab      	ldrsh	r3, [r5, r2]
    5d2c:	3301      	adds	r3, #1
    5d2e:	d004      	beq.n	5d3a <_fwalk_reent+0x36>
    5d30:	1c38      	adds	r0, r7, #0
    5d32:	1c29      	adds	r1, r5, #0
    5d34:	9b01      	ldr	r3, [sp, #4]
    5d36:	4798      	blx	r3
    5d38:	4306      	orrs	r6, r0
    5d3a:	3568      	adds	r5, #104	; 0x68
    5d3c:	e7ed      	b.n	5d1a <_fwalk_reent+0x16>
    5d3e:	6824      	ldr	r4, [r4, #0]
    5d40:	e7e6      	b.n	5d10 <_fwalk_reent+0xc>
    5d42:	1c30      	adds	r0, r6, #0
    5d44:	bdfe      	pop	{r1, r2, r3, r4, r5, r6, r7, pc}
	...

00005d48 <__libc_init_array>:
    5d48:	b570      	push	{r4, r5, r6, lr}
    5d4a:	4b0e      	ldr	r3, [pc, #56]	; (5d84 <__libc_init_array+0x3c>)
    5d4c:	4d0e      	ldr	r5, [pc, #56]	; (5d88 <__libc_init_array+0x40>)
    5d4e:	2400      	movs	r4, #0
    5d50:	1aed      	subs	r5, r5, r3
    5d52:	10ad      	asrs	r5, r5, #2
    5d54:	1c1e      	adds	r6, r3, #0
    5d56:	42ac      	cmp	r4, r5
    5d58:	d004      	beq.n	5d64 <__libc_init_array+0x1c>
    5d5a:	00a3      	lsls	r3, r4, #2
    5d5c:	58f3      	ldr	r3, [r6, r3]
    5d5e:	4798      	blx	r3
    5d60:	3401      	adds	r4, #1
    5d62:	e7f8      	b.n	5d56 <__libc_init_array+0xe>
    5d64:	f001 fd0c 	bl	7780 <_init>
    5d68:	4b08      	ldr	r3, [pc, #32]	; (5d8c <__libc_init_array+0x44>)
    5d6a:	4d09      	ldr	r5, [pc, #36]	; (5d90 <__libc_init_array+0x48>)
    5d6c:	2400      	movs	r4, #0
    5d6e:	1aed      	subs	r5, r5, r3
    5d70:	10ad      	asrs	r5, r5, #2
    5d72:	1c1e      	adds	r6, r3, #0
    5d74:	42ac      	cmp	r4, r5
    5d76:	d004      	beq.n	5d82 <__libc_init_array+0x3a>
    5d78:	00a3      	lsls	r3, r4, #2
    5d7a:	58f3      	ldr	r3, [r6, r3]
    5d7c:	4798      	blx	r3
    5d7e:	3401      	adds	r4, #1
    5d80:	e7f8      	b.n	5d74 <__libc_init_array+0x2c>
    5d82:	bd70      	pop	{r4, r5, r6, pc}
    5d84:	10000138 	.word	0x10000138
    5d88:	10000138 	.word	0x10000138
    5d8c:	10000138 	.word	0x10000138
    5d90:	10000140 	.word	0x10000140

00005d94 <__smakebuf_r>:
    5d94:	b5f0      	push	{r4, r5, r6, r7, lr}
    5d96:	898b      	ldrh	r3, [r1, #12]
    5d98:	b091      	sub	sp, #68	; 0x44
    5d9a:	1c05      	adds	r5, r0, #0
    5d9c:	1c0c      	adds	r4, r1, #0
    5d9e:	079a      	lsls	r2, r3, #30
    5da0:	d425      	bmi.n	5dee <__smakebuf_r+0x5a>
    5da2:	230e      	movs	r3, #14
    5da4:	5ec9      	ldrsh	r1, [r1, r3]
    5da6:	2900      	cmp	r1, #0
    5da8:	da06      	bge.n	5db8 <__smakebuf_r+0x24>
    5daa:	89a7      	ldrh	r7, [r4, #12]
    5dac:	2380      	movs	r3, #128	; 0x80
    5dae:	401f      	ands	r7, r3
    5db0:	d00f      	beq.n	5dd2 <__smakebuf_r+0x3e>
    5db2:	2700      	movs	r7, #0
    5db4:	2640      	movs	r6, #64	; 0x40
    5db6:	e00e      	b.n	5dd6 <__smakebuf_r+0x42>
    5db8:	aa01      	add	r2, sp, #4
    5dba:	f001 fb11 	bl	73e0 <_fstat_r>
    5dbe:	2800      	cmp	r0, #0
    5dc0:	dbf3      	blt.n	5daa <__smakebuf_r+0x16>
    5dc2:	9b02      	ldr	r3, [sp, #8]
    5dc4:	27f0      	movs	r7, #240	; 0xf0
    5dc6:	023f      	lsls	r7, r7, #8
    5dc8:	4a18      	ldr	r2, [pc, #96]	; (5e2c <__smakebuf_r+0x98>)
    5dca:	401f      	ands	r7, r3
    5dcc:	18bf      	adds	r7, r7, r2
    5dce:	427b      	negs	r3, r7
    5dd0:	415f      	adcs	r7, r3
    5dd2:	2680      	movs	r6, #128	; 0x80
    5dd4:	00f6      	lsls	r6, r6, #3
    5dd6:	1c28      	adds	r0, r5, #0
    5dd8:	1c31      	adds	r1, r6, #0
    5dda:	f000 f8a3 	bl	5f24 <_malloc_r>
    5dde:	2800      	cmp	r0, #0
    5de0:	d10c      	bne.n	5dfc <__smakebuf_r+0x68>
    5de2:	89a3      	ldrh	r3, [r4, #12]
    5de4:	059a      	lsls	r2, r3, #22
    5de6:	d41f      	bmi.n	5e28 <__smakebuf_r+0x94>
    5de8:	2202      	movs	r2, #2
    5dea:	4313      	orrs	r3, r2
    5dec:	81a3      	strh	r3, [r4, #12]
    5dee:	1c23      	adds	r3, r4, #0
    5df0:	3347      	adds	r3, #71	; 0x47
    5df2:	6023      	str	r3, [r4, #0]
    5df4:	6123      	str	r3, [r4, #16]
    5df6:	2301      	movs	r3, #1
    5df8:	6163      	str	r3, [r4, #20]
    5dfa:	e015      	b.n	5e28 <__smakebuf_r+0x94>
    5dfc:	4b0c      	ldr	r3, [pc, #48]	; (5e30 <__smakebuf_r+0x9c>)
    5dfe:	2280      	movs	r2, #128	; 0x80
    5e00:	62ab      	str	r3, [r5, #40]	; 0x28
    5e02:	89a3      	ldrh	r3, [r4, #12]
    5e04:	6020      	str	r0, [r4, #0]
    5e06:	4313      	orrs	r3, r2
    5e08:	81a3      	strh	r3, [r4, #12]
    5e0a:	6120      	str	r0, [r4, #16]
    5e0c:	6166      	str	r6, [r4, #20]
    5e0e:	2f00      	cmp	r7, #0
    5e10:	d00a      	beq.n	5e28 <__smakebuf_r+0x94>
    5e12:	230e      	movs	r3, #14
    5e14:	5ee1      	ldrsh	r1, [r4, r3]
    5e16:	1c28      	adds	r0, r5, #0
    5e18:	f001 faf4 	bl	7404 <_isatty_r>
    5e1c:	2800      	cmp	r0, #0
    5e1e:	d003      	beq.n	5e28 <__smakebuf_r+0x94>
    5e20:	89a3      	ldrh	r3, [r4, #12]
    5e22:	2201      	movs	r2, #1
    5e24:	4313      	orrs	r3, r2
    5e26:	81a3      	strh	r3, [r4, #12]
    5e28:	b011      	add	sp, #68	; 0x44
    5e2a:	bdf0      	pop	{r4, r5, r6, r7, pc}
    5e2c:	ffffe000 	.word	0xffffe000
    5e30:	000059ad 	.word	0x000059ad

00005e34 <malloc>:
    5e34:	b508      	push	{r3, lr}
    5e36:	4b03      	ldr	r3, [pc, #12]	; (5e44 <malloc+0x10>)
    5e38:	1c01      	adds	r1, r0, #0
    5e3a:	6818      	ldr	r0, [r3, #0]
    5e3c:	f000 f872 	bl	5f24 <_malloc_r>
    5e40:	bd08      	pop	{r3, pc}
    5e42:	46c0      	nop			; (mov r8, r8)
    5e44:	10000130 	.word	0x10000130

00005e48 <free>:
    5e48:	b508      	push	{r3, lr}
    5e4a:	4b03      	ldr	r3, [pc, #12]	; (5e58 <free+0x10>)
    5e4c:	1c01      	adds	r1, r0, #0
    5e4e:	6818      	ldr	r0, [r3, #0]
    5e50:	f000 f820 	bl	5e94 <_free_r>
    5e54:	bd08      	pop	{r3, pc}
    5e56:	46c0      	nop			; (mov r8, r8)
    5e58:	10000130 	.word	0x10000130

00005e5c <memchr>:
    5e5c:	b2c9      	uxtb	r1, r1
    5e5e:	1882      	adds	r2, r0, r2
    5e60:	4290      	cmp	r0, r2
    5e62:	d004      	beq.n	5e6e <memchr+0x12>
    5e64:	7803      	ldrb	r3, [r0, #0]
    5e66:	428b      	cmp	r3, r1
    5e68:	d002      	beq.n	5e70 <memchr+0x14>
    5e6a:	3001      	adds	r0, #1
    5e6c:	e7f8      	b.n	5e60 <memchr+0x4>
    5e6e:	2000      	movs	r0, #0
    5e70:	4770      	bx	lr

00005e72 <memcpy>:
    5e72:	b510      	push	{r4, lr}
    5e74:	2300      	movs	r3, #0
    5e76:	4293      	cmp	r3, r2
    5e78:	d003      	beq.n	5e82 <memcpy+0x10>
    5e7a:	5ccc      	ldrb	r4, [r1, r3]
    5e7c:	54c4      	strb	r4, [r0, r3]
    5e7e:	3301      	adds	r3, #1
    5e80:	e7f9      	b.n	5e76 <memcpy+0x4>
    5e82:	bd10      	pop	{r4, pc}

00005e84 <memset>:
    5e84:	1c03      	adds	r3, r0, #0
    5e86:	1882      	adds	r2, r0, r2
    5e88:	4293      	cmp	r3, r2
    5e8a:	d002      	beq.n	5e92 <memset+0xe>
    5e8c:	7019      	strb	r1, [r3, #0]
    5e8e:	3301      	adds	r3, #1
    5e90:	e7fa      	b.n	5e88 <memset+0x4>
    5e92:	4770      	bx	lr

00005e94 <_free_r>:
    5e94:	b530      	push	{r4, r5, lr}
    5e96:	2900      	cmp	r1, #0
    5e98:	d040      	beq.n	5f1c <_free_r+0x88>
    5e9a:	3904      	subs	r1, #4
    5e9c:	680b      	ldr	r3, [r1, #0]
    5e9e:	2b00      	cmp	r3, #0
    5ea0:	da00      	bge.n	5ea4 <_free_r+0x10>
    5ea2:	18c9      	adds	r1, r1, r3
    5ea4:	4a1e      	ldr	r2, [pc, #120]	; (5f20 <_free_r+0x8c>)
    5ea6:	6813      	ldr	r3, [r2, #0]
    5ea8:	1c14      	adds	r4, r2, #0
    5eaa:	2b00      	cmp	r3, #0
    5eac:	d102      	bne.n	5eb4 <_free_r+0x20>
    5eae:	604b      	str	r3, [r1, #4]
    5eb0:	6011      	str	r1, [r2, #0]
    5eb2:	e033      	b.n	5f1c <_free_r+0x88>
    5eb4:	4299      	cmp	r1, r3
    5eb6:	d20f      	bcs.n	5ed8 <_free_r+0x44>
    5eb8:	6808      	ldr	r0, [r1, #0]
    5eba:	180a      	adds	r2, r1, r0
    5ebc:	429a      	cmp	r2, r3
    5ebe:	d105      	bne.n	5ecc <_free_r+0x38>
    5ec0:	6813      	ldr	r3, [r2, #0]
    5ec2:	6852      	ldr	r2, [r2, #4]
    5ec4:	18c0      	adds	r0, r0, r3
    5ec6:	6008      	str	r0, [r1, #0]
    5ec8:	604a      	str	r2, [r1, #4]
    5eca:	e000      	b.n	5ece <_free_r+0x3a>
    5ecc:	604b      	str	r3, [r1, #4]
    5ece:	6021      	str	r1, [r4, #0]
    5ed0:	e024      	b.n	5f1c <_free_r+0x88>
    5ed2:	428a      	cmp	r2, r1
    5ed4:	d803      	bhi.n	5ede <_free_r+0x4a>
    5ed6:	1c13      	adds	r3, r2, #0
    5ed8:	685a      	ldr	r2, [r3, #4]
    5eda:	2a00      	cmp	r2, #0
    5edc:	d1f9      	bne.n	5ed2 <_free_r+0x3e>
    5ede:	681d      	ldr	r5, [r3, #0]
    5ee0:	195c      	adds	r4, r3, r5
    5ee2:	428c      	cmp	r4, r1
    5ee4:	d10b      	bne.n	5efe <_free_r+0x6a>
    5ee6:	6809      	ldr	r1, [r1, #0]
    5ee8:	1869      	adds	r1, r5, r1
    5eea:	1858      	adds	r0, r3, r1
    5eec:	6019      	str	r1, [r3, #0]
    5eee:	4290      	cmp	r0, r2
    5ef0:	d114      	bne.n	5f1c <_free_r+0x88>
    5ef2:	6814      	ldr	r4, [r2, #0]
    5ef4:	6852      	ldr	r2, [r2, #4]
    5ef6:	1909      	adds	r1, r1, r4
    5ef8:	6019      	str	r1, [r3, #0]
    5efa:	605a      	str	r2, [r3, #4]
    5efc:	e00e      	b.n	5f1c <_free_r+0x88>
    5efe:	428c      	cmp	r4, r1
    5f00:	d902      	bls.n	5f08 <_free_r+0x74>
    5f02:	230c      	movs	r3, #12
    5f04:	6003      	str	r3, [r0, #0]
    5f06:	e009      	b.n	5f1c <_free_r+0x88>
    5f08:	6808      	ldr	r0, [r1, #0]
    5f0a:	180c      	adds	r4, r1, r0
    5f0c:	4294      	cmp	r4, r2
    5f0e:	d103      	bne.n	5f18 <_free_r+0x84>
    5f10:	6814      	ldr	r4, [r2, #0]
    5f12:	6852      	ldr	r2, [r2, #4]
    5f14:	1900      	adds	r0, r0, r4
    5f16:	6008      	str	r0, [r1, #0]
    5f18:	604a      	str	r2, [r1, #4]
    5f1a:	6059      	str	r1, [r3, #4]
    5f1c:	bd30      	pop	{r4, r5, pc}
    5f1e:	46c0      	nop			; (mov r8, r8)
    5f20:	10000410 	.word	0x10000410

00005f24 <_malloc_r>:
    5f24:	b570      	push	{r4, r5, r6, lr}
    5f26:	2303      	movs	r3, #3
    5f28:	1ccd      	adds	r5, r1, #3
    5f2a:	439d      	bics	r5, r3
    5f2c:	3508      	adds	r5, #8
    5f2e:	1c06      	adds	r6, r0, #0
    5f30:	2d0c      	cmp	r5, #12
    5f32:	d201      	bcs.n	5f38 <_malloc_r+0x14>
    5f34:	250c      	movs	r5, #12
    5f36:	e001      	b.n	5f3c <_malloc_r+0x18>
    5f38:	2d00      	cmp	r5, #0
    5f3a:	db3f      	blt.n	5fbc <_malloc_r+0x98>
    5f3c:	428d      	cmp	r5, r1
    5f3e:	d33d      	bcc.n	5fbc <_malloc_r+0x98>
    5f40:	4b20      	ldr	r3, [pc, #128]	; (5fc4 <_malloc_r+0xa0>)
    5f42:	681c      	ldr	r4, [r3, #0]
    5f44:	1c1a      	adds	r2, r3, #0
    5f46:	1c21      	adds	r1, r4, #0
    5f48:	2900      	cmp	r1, #0
    5f4a:	d013      	beq.n	5f74 <_malloc_r+0x50>
    5f4c:	6808      	ldr	r0, [r1, #0]
    5f4e:	1b43      	subs	r3, r0, r5
    5f50:	d40d      	bmi.n	5f6e <_malloc_r+0x4a>
    5f52:	2b0b      	cmp	r3, #11
    5f54:	d902      	bls.n	5f5c <_malloc_r+0x38>
    5f56:	600b      	str	r3, [r1, #0]
    5f58:	18cc      	adds	r4, r1, r3
    5f5a:	e01e      	b.n	5f9a <_malloc_r+0x76>
    5f5c:	428c      	cmp	r4, r1
    5f5e:	d102      	bne.n	5f66 <_malloc_r+0x42>
    5f60:	6863      	ldr	r3, [r4, #4]
    5f62:	6013      	str	r3, [r2, #0]
    5f64:	e01a      	b.n	5f9c <_malloc_r+0x78>
    5f66:	6848      	ldr	r0, [r1, #4]
    5f68:	6060      	str	r0, [r4, #4]
    5f6a:	1c0c      	adds	r4, r1, #0
    5f6c:	e016      	b.n	5f9c <_malloc_r+0x78>
    5f6e:	1c0c      	adds	r4, r1, #0
    5f70:	6849      	ldr	r1, [r1, #4]
    5f72:	e7e9      	b.n	5f48 <_malloc_r+0x24>
    5f74:	4c14      	ldr	r4, [pc, #80]	; (5fc8 <_malloc_r+0xa4>)
    5f76:	6820      	ldr	r0, [r4, #0]
    5f78:	2800      	cmp	r0, #0
    5f7a:	d103      	bne.n	5f84 <_malloc_r+0x60>
    5f7c:	1c30      	adds	r0, r6, #0
    5f7e:	f000 f839 	bl	5ff4 <_sbrk_r>
    5f82:	6020      	str	r0, [r4, #0]
    5f84:	1c30      	adds	r0, r6, #0
    5f86:	1c29      	adds	r1, r5, #0
    5f88:	f000 f834 	bl	5ff4 <_sbrk_r>
    5f8c:	1c43      	adds	r3, r0, #1
    5f8e:	d015      	beq.n	5fbc <_malloc_r+0x98>
    5f90:	1cc4      	adds	r4, r0, #3
    5f92:	2303      	movs	r3, #3
    5f94:	439c      	bics	r4, r3
    5f96:	4284      	cmp	r4, r0
    5f98:	d10a      	bne.n	5fb0 <_malloc_r+0x8c>
    5f9a:	6025      	str	r5, [r4, #0]
    5f9c:	1c20      	adds	r0, r4, #0
    5f9e:	300b      	adds	r0, #11
    5fa0:	2207      	movs	r2, #7
    5fa2:	1d23      	adds	r3, r4, #4
    5fa4:	4390      	bics	r0, r2
    5fa6:	1ac3      	subs	r3, r0, r3
    5fa8:	d00b      	beq.n	5fc2 <_malloc_r+0x9e>
    5faa:	425a      	negs	r2, r3
    5fac:	50e2      	str	r2, [r4, r3]
    5fae:	e008      	b.n	5fc2 <_malloc_r+0x9e>
    5fb0:	1a21      	subs	r1, r4, r0
    5fb2:	1c30      	adds	r0, r6, #0
    5fb4:	f000 f81e 	bl	5ff4 <_sbrk_r>
    5fb8:	3001      	adds	r0, #1
    5fba:	d1ee      	bne.n	5f9a <_malloc_r+0x76>
    5fbc:	230c      	movs	r3, #12
    5fbe:	6033      	str	r3, [r6, #0]
    5fc0:	2000      	movs	r0, #0
    5fc2:	bd70      	pop	{r4, r5, r6, pc}
    5fc4:	10000410 	.word	0x10000410
    5fc8:	1000040c 	.word	0x1000040c

00005fcc <_open_r>:
    5fcc:	b538      	push	{r3, r4, r5, lr}
    5fce:	4c08      	ldr	r4, [pc, #32]	; (5ff0 <_open_r+0x24>)
    5fd0:	1c05      	adds	r5, r0, #0
    5fd2:	2000      	movs	r0, #0
    5fd4:	6020      	str	r0, [r4, #0]
    5fd6:	1c08      	adds	r0, r1, #0
    5fd8:	1c11      	adds	r1, r2, #0
    5fda:	1c1a      	adds	r2, r3, #0
    5fdc:	f7fb ff60 	bl	1ea0 <_open>
    5fe0:	1c43      	adds	r3, r0, #1
    5fe2:	d103      	bne.n	5fec <_open_r+0x20>
    5fe4:	6823      	ldr	r3, [r4, #0]
    5fe6:	2b00      	cmp	r3, #0
    5fe8:	d000      	beq.n	5fec <_open_r+0x20>
    5fea:	602b      	str	r3, [r5, #0]
    5fec:	bd38      	pop	{r3, r4, r5, pc}
    5fee:	46c0      	nop			; (mov r8, r8)
    5ff0:	10000424 	.word	0x10000424

00005ff4 <_sbrk_r>:
    5ff4:	b538      	push	{r3, r4, r5, lr}
    5ff6:	4c07      	ldr	r4, [pc, #28]	; (6014 <_sbrk_r+0x20>)
    5ff8:	2300      	movs	r3, #0
    5ffa:	1c05      	adds	r5, r0, #0
    5ffc:	1c08      	adds	r0, r1, #0
    5ffe:	6023      	str	r3, [r4, #0]
    6000:	f7fc f866 	bl	20d0 <_sbrk>
    6004:	1c43      	adds	r3, r0, #1
    6006:	d103      	bne.n	6010 <_sbrk_r+0x1c>
    6008:	6823      	ldr	r3, [r4, #0]
    600a:	2b00      	cmp	r3, #0
    600c:	d000      	beq.n	6010 <_sbrk_r+0x1c>
    600e:	602b      	str	r3, [r5, #0]
    6010:	bd38      	pop	{r3, r4, r5, pc}
    6012:	46c0      	nop			; (mov r8, r8)
    6014:	10000424 	.word	0x10000424

00006018 <setbuf>:
    6018:	b508      	push	{r3, lr}
    601a:	424a      	negs	r2, r1
    601c:	414a      	adcs	r2, r1
    601e:	2380      	movs	r3, #128	; 0x80
    6020:	0052      	lsls	r2, r2, #1
    6022:	00db      	lsls	r3, r3, #3
    6024:	f000 f802 	bl	602c <setvbuf>
    6028:	bd08      	pop	{r3, pc}
	...

0000602c <setvbuf>:
    602c:	b5f7      	push	{r0, r1, r2, r4, r5, r6, r7, lr}
    602e:	1c1e      	adds	r6, r3, #0
    6030:	4b3c      	ldr	r3, [pc, #240]	; (6124 <setvbuf+0xf8>)
    6032:	1c04      	adds	r4, r0, #0
    6034:	681d      	ldr	r5, [r3, #0]
    6036:	1c0f      	adds	r7, r1, #0
    6038:	9201      	str	r2, [sp, #4]
    603a:	2d00      	cmp	r5, #0
    603c:	d005      	beq.n	604a <setvbuf+0x1e>
    603e:	69aa      	ldr	r2, [r5, #24]
    6040:	2a00      	cmp	r2, #0
    6042:	d102      	bne.n	604a <setvbuf+0x1e>
    6044:	1c28      	adds	r0, r5, #0
    6046:	f7ff fd05 	bl	5a54 <__sinit>
    604a:	4b37      	ldr	r3, [pc, #220]	; (6128 <setvbuf+0xfc>)
    604c:	429c      	cmp	r4, r3
    604e:	d101      	bne.n	6054 <setvbuf+0x28>
    6050:	686c      	ldr	r4, [r5, #4]
    6052:	e008      	b.n	6066 <setvbuf+0x3a>
    6054:	4b35      	ldr	r3, [pc, #212]	; (612c <setvbuf+0x100>)
    6056:	429c      	cmp	r4, r3
    6058:	d101      	bne.n	605e <setvbuf+0x32>
    605a:	68ac      	ldr	r4, [r5, #8]
    605c:	e003      	b.n	6066 <setvbuf+0x3a>
    605e:	4b34      	ldr	r3, [pc, #208]	; (6130 <setvbuf+0x104>)
    6060:	429c      	cmp	r4, r3
    6062:	d100      	bne.n	6066 <setvbuf+0x3a>
    6064:	68ec      	ldr	r4, [r5, #12]
    6066:	9b01      	ldr	r3, [sp, #4]
    6068:	2b02      	cmp	r3, #2
    606a:	d857      	bhi.n	611c <setvbuf+0xf0>
    606c:	2e00      	cmp	r6, #0
    606e:	db55      	blt.n	611c <setvbuf+0xf0>
    6070:	1c28      	adds	r0, r5, #0
    6072:	1c21      	adds	r1, r4, #0
    6074:	f7ff fc5a 	bl	592c <_fflush_r>
    6078:	2300      	movs	r3, #0
    607a:	6063      	str	r3, [r4, #4]
    607c:	61a3      	str	r3, [r4, #24]
    607e:	89a3      	ldrh	r3, [r4, #12]
    6080:	061a      	lsls	r2, r3, #24
    6082:	d503      	bpl.n	608c <setvbuf+0x60>
    6084:	1c28      	adds	r0, r5, #0
    6086:	6921      	ldr	r1, [r4, #16]
    6088:	f7ff ff04 	bl	5e94 <_free_r>
    608c:	89a3      	ldrh	r3, [r4, #12]
    608e:	2283      	movs	r2, #131	; 0x83
    6090:	4393      	bics	r3, r2
    6092:	81a3      	strh	r3, [r4, #12]
    6094:	9b01      	ldr	r3, [sp, #4]
    6096:	2b02      	cmp	r3, #2
    6098:	d013      	beq.n	60c2 <setvbuf+0x96>
    609a:	2f00      	cmp	r7, #0
    609c:	d125      	bne.n	60ea <setvbuf+0xbe>
    609e:	2e00      	cmp	r6, #0
    60a0:	d101      	bne.n	60a6 <setvbuf+0x7a>
    60a2:	2680      	movs	r6, #128	; 0x80
    60a4:	00f6      	lsls	r6, r6, #3
    60a6:	1c30      	adds	r0, r6, #0
    60a8:	f7fb fbf4 	bl	1894 <__wrap_malloc>
    60ac:	1e07      	subs	r7, r0, #0
    60ae:	d118      	bne.n	60e2 <setvbuf+0xb6>
    60b0:	2080      	movs	r0, #128	; 0x80
    60b2:	00c0      	lsls	r0, r0, #3
    60b4:	f7fb fbee 	bl	1894 <__wrap_malloc>
    60b8:	1e07      	subs	r7, r0, #0
    60ba:	d110      	bne.n	60de <setvbuf+0xb2>
    60bc:	2001      	movs	r0, #1
    60be:	4240      	negs	r0, r0
    60c0:	e000      	b.n	60c4 <setvbuf+0x98>
    60c2:	2000      	movs	r0, #0
    60c4:	89a3      	ldrh	r3, [r4, #12]
    60c6:	2202      	movs	r2, #2
    60c8:	4313      	orrs	r3, r2
    60ca:	81a3      	strh	r3, [r4, #12]
    60cc:	2300      	movs	r3, #0
    60ce:	60a3      	str	r3, [r4, #8]
    60d0:	1c23      	adds	r3, r4, #0
    60d2:	3347      	adds	r3, #71	; 0x47
    60d4:	6023      	str	r3, [r4, #0]
    60d6:	6123      	str	r3, [r4, #16]
    60d8:	2301      	movs	r3, #1
    60da:	6163      	str	r3, [r4, #20]
    60dc:	e020      	b.n	6120 <setvbuf+0xf4>
    60de:	2680      	movs	r6, #128	; 0x80
    60e0:	00f6      	lsls	r6, r6, #3
    60e2:	89a3      	ldrh	r3, [r4, #12]
    60e4:	2280      	movs	r2, #128	; 0x80
    60e6:	4313      	orrs	r3, r2
    60e8:	81a3      	strh	r3, [r4, #12]
    60ea:	9a01      	ldr	r2, [sp, #4]
    60ec:	2a01      	cmp	r2, #1
    60ee:	d104      	bne.n	60fa <setvbuf+0xce>
    60f0:	89a3      	ldrh	r3, [r4, #12]
    60f2:	4313      	orrs	r3, r2
    60f4:	81a3      	strh	r3, [r4, #12]
    60f6:	4273      	negs	r3, r6
    60f8:	61a3      	str	r3, [r4, #24]
    60fa:	4b0e      	ldr	r3, [pc, #56]	; (6134 <setvbuf+0x108>)
    60fc:	2000      	movs	r0, #0
    60fe:	62ab      	str	r3, [r5, #40]	; 0x28
    6100:	89a3      	ldrh	r3, [r4, #12]
    6102:	6027      	str	r7, [r4, #0]
    6104:	6127      	str	r7, [r4, #16]
    6106:	6166      	str	r6, [r4, #20]
    6108:	071a      	lsls	r2, r3, #28
    610a:	d509      	bpl.n	6120 <setvbuf+0xf4>
    610c:	2203      	movs	r2, #3
    610e:	4013      	ands	r3, r2
    6110:	425a      	negs	r2, r3
    6112:	4153      	adcs	r3, r2
    6114:	425b      	negs	r3, r3
    6116:	401e      	ands	r6, r3
    6118:	60a6      	str	r6, [r4, #8]
    611a:	e001      	b.n	6120 <setvbuf+0xf4>
    611c:	2001      	movs	r0, #1
    611e:	4240      	negs	r0, r0
    6120:	bdfe      	pop	{r1, r2, r3, r4, r5, r6, r7, pc}
    6122:	46c0      	nop			; (mov r8, r8)
    6124:	10000130 	.word	0x10000130
    6128:	00007bd0 	.word	0x00007bd0
    612c:	00007bf0 	.word	0x00007bf0
    6130:	00007c10 	.word	0x00007c10
    6134:	000059ad 	.word	0x000059ad

00006138 <siprintf>:
    6138:	b40e      	push	{r1, r2, r3}
    613a:	b500      	push	{lr}
    613c:	b09c      	sub	sp, #112	; 0x70
    613e:	ab1d      	add	r3, sp, #116	; 0x74
    6140:	cb04      	ldmia	r3!, {r2}
    6142:	2282      	movs	r2, #130	; 0x82
    6144:	a902      	add	r1, sp, #8
    6146:	0092      	lsls	r2, r2, #2
    6148:	818a      	strh	r2, [r1, #12]
    614a:	4a0a      	ldr	r2, [pc, #40]	; (6174 <siprintf+0x3c>)
    614c:	9002      	str	r0, [sp, #8]
    614e:	608a      	str	r2, [r1, #8]
    6150:	614a      	str	r2, [r1, #20]
    6152:	2201      	movs	r2, #1
    6154:	4252      	negs	r2, r2
    6156:	81ca      	strh	r2, [r1, #14]
    6158:	4a07      	ldr	r2, [pc, #28]	; (6178 <siprintf+0x40>)
    615a:	6108      	str	r0, [r1, #16]
    615c:	6810      	ldr	r0, [r2, #0]
    615e:	9a1d      	ldr	r2, [sp, #116]	; 0x74
    6160:	9301      	str	r3, [sp, #4]
    6162:	f000 f909 	bl	6378 <_svfiprintf_r>
    6166:	9a02      	ldr	r2, [sp, #8]
    6168:	2300      	movs	r3, #0
    616a:	7013      	strb	r3, [r2, #0]
    616c:	b01c      	add	sp, #112	; 0x70
    616e:	bc08      	pop	{r3}
    6170:	b003      	add	sp, #12
    6172:	4718      	bx	r3
    6174:	7fffffff 	.word	0x7fffffff
    6178:	10000130 	.word	0x10000130

0000617c <siscanf>:
    617c:	b40e      	push	{r1, r2, r3}
    617e:	b530      	push	{r4, r5, lr}
    6180:	b09c      	sub	sp, #112	; 0x70
    6182:	ad1f      	add	r5, sp, #124	; 0x7c
    6184:	cd08      	ldmia	r5!, {r3}
    6186:	2381      	movs	r3, #129	; 0x81
    6188:	ac02      	add	r4, sp, #8
    618a:	009b      	lsls	r3, r3, #2
    618c:	81a3      	strh	r3, [r4, #12]
    618e:	9002      	str	r0, [sp, #8]
    6190:	9006      	str	r0, [sp, #24]
    6192:	f000 f873 	bl	627c <strlen>
    6196:	4b0b      	ldr	r3, [pc, #44]	; (61c4 <siscanf+0x48>)
    6198:	6060      	str	r0, [r4, #4]
    619a:	6263      	str	r3, [r4, #36]	; 0x24
    619c:	2300      	movs	r3, #0
    619e:	6363      	str	r3, [r4, #52]	; 0x34
    61a0:	64a3      	str	r3, [r4, #72]	; 0x48
    61a2:	2301      	movs	r3, #1
    61a4:	425b      	negs	r3, r3
    61a6:	81e3      	strh	r3, [r4, #14]
    61a8:	4b07      	ldr	r3, [pc, #28]	; (61c8 <siscanf+0x4c>)
    61aa:	6160      	str	r0, [r4, #20]
    61ac:	1c21      	adds	r1, r4, #0
    61ae:	6818      	ldr	r0, [r3, #0]
    61b0:	9a1f      	ldr	r2, [sp, #124]	; 0x7c
    61b2:	1c2b      	adds	r3, r5, #0
    61b4:	9501      	str	r5, [sp, #4]
    61b6:	f000 fa2b 	bl	6610 <__ssvfiscanf_r>
    61ba:	b01c      	add	sp, #112	; 0x70
    61bc:	bc30      	pop	{r4, r5}
    61be:	bc08      	pop	{r3}
    61c0:	b003      	add	sp, #12
    61c2:	4718      	bx	r3
    61c4:	000061f5 	.word	0x000061f5
    61c8:	10000130 	.word	0x10000130

000061cc <__sread>:
    61cc:	b538      	push	{r3, r4, r5, lr}
    61ce:	1c0c      	adds	r4, r1, #0
    61d0:	250e      	movs	r5, #14
    61d2:	5f49      	ldrsh	r1, [r1, r5]
    61d4:	f001 f97c 	bl	74d0 <_read_r>
    61d8:	2800      	cmp	r0, #0
    61da:	db03      	blt.n	61e4 <__sread+0x18>
    61dc:	6d62      	ldr	r2, [r4, #84]	; 0x54
    61de:	1813      	adds	r3, r2, r0
    61e0:	6563      	str	r3, [r4, #84]	; 0x54
    61e2:	e003      	b.n	61ec <__sread+0x20>
    61e4:	89a2      	ldrh	r2, [r4, #12]
    61e6:	4b02      	ldr	r3, [pc, #8]	; (61f0 <__sread+0x24>)
    61e8:	4013      	ands	r3, r2
    61ea:	81a3      	strh	r3, [r4, #12]
    61ec:	bd38      	pop	{r3, r4, r5, pc}
    61ee:	46c0      	nop			; (mov r8, r8)
    61f0:	ffffefff 	.word	0xffffefff

000061f4 <__seofread>:
    61f4:	2000      	movs	r0, #0
    61f6:	4770      	bx	lr

000061f8 <__swrite>:
    61f8:	b5f8      	push	{r3, r4, r5, r6, r7, lr}
    61fa:	1c1e      	adds	r6, r3, #0
    61fc:	898b      	ldrh	r3, [r1, #12]
    61fe:	1c05      	adds	r5, r0, #0
    6200:	1c0c      	adds	r4, r1, #0
    6202:	1c17      	adds	r7, r2, #0
    6204:	05da      	lsls	r2, r3, #23
    6206:	d505      	bpl.n	6214 <__swrite+0x1c>
    6208:	230e      	movs	r3, #14
    620a:	5ec9      	ldrsh	r1, [r1, r3]
    620c:	2200      	movs	r2, #0
    620e:	2302      	movs	r3, #2
    6210:	f001 f90a 	bl	7428 <_lseek_r>
    6214:	89a2      	ldrh	r2, [r4, #12]
    6216:	4b05      	ldr	r3, [pc, #20]	; (622c <__swrite+0x34>)
    6218:	1c28      	adds	r0, r5, #0
    621a:	4013      	ands	r3, r2
    621c:	81a3      	strh	r3, [r4, #12]
    621e:	220e      	movs	r2, #14
    6220:	5ea1      	ldrsh	r1, [r4, r2]
    6222:	1c33      	adds	r3, r6, #0
    6224:	1c3a      	adds	r2, r7, #0
    6226:	f001 f80b 	bl	7240 <_write_r>
    622a:	bdf8      	pop	{r3, r4, r5, r6, r7, pc}
    622c:	ffffefff 	.word	0xffffefff

00006230 <__sseek>:
    6230:	b538      	push	{r3, r4, r5, lr}
    6232:	1c0c      	adds	r4, r1, #0
    6234:	250e      	movs	r5, #14
    6236:	5f49      	ldrsh	r1, [r1, r5]
    6238:	f001 f8f6 	bl	7428 <_lseek_r>
    623c:	89a3      	ldrh	r3, [r4, #12]
    623e:	1c42      	adds	r2, r0, #1
    6240:	d103      	bne.n	624a <__sseek+0x1a>
    6242:	4a05      	ldr	r2, [pc, #20]	; (6258 <__sseek+0x28>)
    6244:	4013      	ands	r3, r2
    6246:	81a3      	strh	r3, [r4, #12]
    6248:	e004      	b.n	6254 <__sseek+0x24>
    624a:	2280      	movs	r2, #128	; 0x80
    624c:	0152      	lsls	r2, r2, #5
    624e:	4313      	orrs	r3, r2
    6250:	81a3      	strh	r3, [r4, #12]
    6252:	6560      	str	r0, [r4, #84]	; 0x54
    6254:	bd38      	pop	{r3, r4, r5, pc}
    6256:	46c0      	nop			; (mov r8, r8)
    6258:	ffffefff 	.word	0xffffefff

0000625c <__sclose>:
    625c:	b508      	push	{r3, lr}
    625e:	230e      	movs	r3, #14
    6260:	5ec9      	ldrsh	r1, [r1, r3]
    6262:	f001 f873 	bl	734c <_close_r>
    6266:	bd08      	pop	{r3, pc}

00006268 <strcmp>:
    6268:	7802      	ldrb	r2, [r0, #0]
    626a:	780b      	ldrb	r3, [r1, #0]
    626c:	3001      	adds	r0, #1
    626e:	3101      	adds	r1, #1
    6270:	2a00      	cmp	r2, #0
    6272:	d001      	beq.n	6278 <strcmp+0x10>
    6274:	429a      	cmp	r2, r3
    6276:	d0f7      	beq.n	6268 <strcmp>
    6278:	1ad0      	subs	r0, r2, r3
    627a:	4770      	bx	lr

0000627c <strlen>:
    627c:	2300      	movs	r3, #0
    627e:	5cc2      	ldrb	r2, [r0, r3]
    6280:	3301      	adds	r3, #1
    6282:	2a00      	cmp	r2, #0
    6284:	d1fb      	bne.n	627e <strlen+0x2>
    6286:	1e58      	subs	r0, r3, #1
    6288:	4770      	bx	lr

0000628a <strncmp>:
    628a:	1c03      	adds	r3, r0, #0
    628c:	2000      	movs	r0, #0
    628e:	b510      	push	{r4, lr}
    6290:	4282      	cmp	r2, r0
    6292:	d00f      	beq.n	62b4 <strncmp+0x2a>
    6294:	781c      	ldrb	r4, [r3, #0]
    6296:	7808      	ldrb	r0, [r1, #0]
    6298:	42a0      	cmp	r0, r4
    629a:	d101      	bne.n	62a0 <strncmp+0x16>
    629c:	2a01      	cmp	r2, #1
    629e:	d103      	bne.n	62a8 <strncmp+0x1e>
    62a0:	7818      	ldrb	r0, [r3, #0]
    62a2:	780b      	ldrb	r3, [r1, #0]
    62a4:	1ac0      	subs	r0, r0, r3
    62a6:	e005      	b.n	62b4 <strncmp+0x2a>
    62a8:	3a01      	subs	r2, #1
    62aa:	2800      	cmp	r0, #0
    62ac:	d0f8      	beq.n	62a0 <strncmp+0x16>
    62ae:	3301      	adds	r3, #1
    62b0:	3101      	adds	r1, #1
    62b2:	e7ef      	b.n	6294 <strncmp+0xa>
    62b4:	bd10      	pop	{r4, pc}
	...

000062b8 <__ssputs_r>:
    62b8:	b5f0      	push	{r4, r5, r6, r7, lr}
    62ba:	688d      	ldr	r5, [r1, #8]
    62bc:	b085      	sub	sp, #20
    62be:	1c07      	adds	r7, r0, #0
    62c0:	1c0c      	adds	r4, r1, #0
    62c2:	9203      	str	r2, [sp, #12]
    62c4:	9301      	str	r3, [sp, #4]
    62c6:	42ab      	cmp	r3, r5
    62c8:	d345      	bcc.n	6356 <__ssputs_r+0x9e>
    62ca:	2290      	movs	r2, #144	; 0x90
    62cc:	898b      	ldrh	r3, [r1, #12]
    62ce:	00d2      	lsls	r2, r2, #3
    62d0:	4213      	tst	r3, r2
    62d2:	d03d      	beq.n	6350 <__ssputs_r+0x98>
    62d4:	6962      	ldr	r2, [r4, #20]
    62d6:	2603      	movs	r6, #3
    62d8:	4356      	muls	r6, r2
    62da:	6909      	ldr	r1, [r1, #16]
    62dc:	6820      	ldr	r0, [r4, #0]
    62de:	0ff2      	lsrs	r2, r6, #31
    62e0:	1a40      	subs	r0, r0, r1
    62e2:	1996      	adds	r6, r2, r6
    62e4:	9002      	str	r0, [sp, #8]
    62e6:	1c02      	adds	r2, r0, #0
    62e8:	9801      	ldr	r0, [sp, #4]
    62ea:	3201      	adds	r2, #1
    62ec:	1812      	adds	r2, r2, r0
    62ee:	1076      	asrs	r6, r6, #1
    62f0:	4296      	cmp	r6, r2
    62f2:	d200      	bcs.n	62f6 <__ssputs_r+0x3e>
    62f4:	1c16      	adds	r6, r2, #0
    62f6:	1c38      	adds	r0, r7, #0
    62f8:	055a      	lsls	r2, r3, #21
    62fa:	d50f      	bpl.n	631c <__ssputs_r+0x64>
    62fc:	1c31      	adds	r1, r6, #0
    62fe:	f7ff fe11 	bl	5f24 <_malloc_r>
    6302:	1e05      	subs	r5, r0, #0
    6304:	d013      	beq.n	632e <__ssputs_r+0x76>
    6306:	9a02      	ldr	r2, [sp, #8]
    6308:	6921      	ldr	r1, [r4, #16]
    630a:	f7ff fdb2 	bl	5e72 <memcpy>
    630e:	89a2      	ldrh	r2, [r4, #12]
    6310:	4b18      	ldr	r3, [pc, #96]	; (6374 <__ssputs_r+0xbc>)
    6312:	4013      	ands	r3, r2
    6314:	2280      	movs	r2, #128	; 0x80
    6316:	4313      	orrs	r3, r2
    6318:	81a3      	strh	r3, [r4, #12]
    631a:	e011      	b.n	6340 <__ssputs_r+0x88>
    631c:	1c32      	adds	r2, r6, #0
    631e:	f001 f8b0 	bl	7482 <_realloc_r>
    6322:	1e05      	subs	r5, r0, #0
    6324:	d10c      	bne.n	6340 <__ssputs_r+0x88>
    6326:	1c38      	adds	r0, r7, #0
    6328:	6921      	ldr	r1, [r4, #16]
    632a:	f7ff fdb3 	bl	5e94 <_free_r>
    632e:	230c      	movs	r3, #12
    6330:	603b      	str	r3, [r7, #0]
    6332:	89a3      	ldrh	r3, [r4, #12]
    6334:	2240      	movs	r2, #64	; 0x40
    6336:	4313      	orrs	r3, r2
    6338:	2001      	movs	r0, #1
    633a:	81a3      	strh	r3, [r4, #12]
    633c:	4240      	negs	r0, r0
    633e:	e017      	b.n	6370 <__ssputs_r+0xb8>
    6340:	9b02      	ldr	r3, [sp, #8]
    6342:	6125      	str	r5, [r4, #16]
    6344:	18ed      	adds	r5, r5, r3
    6346:	6025      	str	r5, [r4, #0]
    6348:	6166      	str	r6, [r4, #20]
    634a:	9d01      	ldr	r5, [sp, #4]
    634c:	1af6      	subs	r6, r6, r3
    634e:	60a6      	str	r6, [r4, #8]
    6350:	9801      	ldr	r0, [sp, #4]
    6352:	42a8      	cmp	r0, r5
    6354:	d200      	bcs.n	6358 <__ssputs_r+0xa0>
    6356:	9d01      	ldr	r5, [sp, #4]
    6358:	1c2a      	adds	r2, r5, #0
    635a:	6820      	ldr	r0, [r4, #0]
    635c:	9903      	ldr	r1, [sp, #12]
    635e:	f001 f877 	bl	7450 <memmove>
    6362:	68a2      	ldr	r2, [r4, #8]
    6364:	2000      	movs	r0, #0
    6366:	1b53      	subs	r3, r2, r5
    6368:	60a3      	str	r3, [r4, #8]
    636a:	6823      	ldr	r3, [r4, #0]
    636c:	195d      	adds	r5, r3, r5
    636e:	6025      	str	r5, [r4, #0]
    6370:	b005      	add	sp, #20
    6372:	bdf0      	pop	{r4, r5, r6, r7, pc}
    6374:	fffffb7f 	.word	0xfffffb7f

00006378 <_svfiprintf_r>:
    6378:	b5f0      	push	{r4, r5, r6, r7, lr}
    637a:	b09f      	sub	sp, #124	; 0x7c
    637c:	9003      	str	r0, [sp, #12]
    637e:	9305      	str	r3, [sp, #20]
    6380:	898b      	ldrh	r3, [r1, #12]
    6382:	1c0e      	adds	r6, r1, #0
    6384:	1c17      	adds	r7, r2, #0
    6386:	0619      	lsls	r1, r3, #24
    6388:	d50f      	bpl.n	63aa <_svfiprintf_r+0x32>
    638a:	6932      	ldr	r2, [r6, #16]
    638c:	2a00      	cmp	r2, #0
    638e:	d10c      	bne.n	63aa <_svfiprintf_r+0x32>
    6390:	2140      	movs	r1, #64	; 0x40
    6392:	f7ff fdc7 	bl	5f24 <_malloc_r>
    6396:	6030      	str	r0, [r6, #0]
    6398:	6130      	str	r0, [r6, #16]
    639a:	2800      	cmp	r0, #0
    639c:	d103      	bne.n	63a6 <_svfiprintf_r+0x2e>
    639e:	9903      	ldr	r1, [sp, #12]
    63a0:	230c      	movs	r3, #12
    63a2:	600b      	str	r3, [r1, #0]
    63a4:	e0c9      	b.n	653a <_svfiprintf_r+0x1c2>
    63a6:	2340      	movs	r3, #64	; 0x40
    63a8:	6173      	str	r3, [r6, #20]
    63aa:	ad06      	add	r5, sp, #24
    63ac:	2300      	movs	r3, #0
    63ae:	616b      	str	r3, [r5, #20]
    63b0:	2320      	movs	r3, #32
    63b2:	766b      	strb	r3, [r5, #25]
    63b4:	2330      	movs	r3, #48	; 0x30
    63b6:	76ab      	strb	r3, [r5, #26]
    63b8:	1c3c      	adds	r4, r7, #0
    63ba:	7823      	ldrb	r3, [r4, #0]
    63bc:	2b00      	cmp	r3, #0
    63be:	d103      	bne.n	63c8 <_svfiprintf_r+0x50>
    63c0:	1be2      	subs	r2, r4, r7
    63c2:	9202      	str	r2, [sp, #8]
    63c4:	d011      	beq.n	63ea <_svfiprintf_r+0x72>
    63c6:	e003      	b.n	63d0 <_svfiprintf_r+0x58>
    63c8:	2b25      	cmp	r3, #37	; 0x25
    63ca:	d0f9      	beq.n	63c0 <_svfiprintf_r+0x48>
    63cc:	3401      	adds	r4, #1
    63ce:	e7f4      	b.n	63ba <_svfiprintf_r+0x42>
    63d0:	9803      	ldr	r0, [sp, #12]
    63d2:	1c31      	adds	r1, r6, #0
    63d4:	1c3a      	adds	r2, r7, #0
    63d6:	9b02      	ldr	r3, [sp, #8]
    63d8:	f7ff ff6e 	bl	62b8 <__ssputs_r>
    63dc:	3001      	adds	r0, #1
    63de:	d100      	bne.n	63e2 <_svfiprintf_r+0x6a>
    63e0:	e0a6      	b.n	6530 <_svfiprintf_r+0x1b8>
    63e2:	6969      	ldr	r1, [r5, #20]
    63e4:	9a02      	ldr	r2, [sp, #8]
    63e6:	188b      	adds	r3, r1, r2
    63e8:	616b      	str	r3, [r5, #20]
    63ea:	7823      	ldrb	r3, [r4, #0]
    63ec:	2b00      	cmp	r3, #0
    63ee:	d100      	bne.n	63f2 <_svfiprintf_r+0x7a>
    63f0:	e09e      	b.n	6530 <_svfiprintf_r+0x1b8>
    63f2:	2201      	movs	r2, #1
    63f4:	4252      	negs	r2, r2
    63f6:	606a      	str	r2, [r5, #4]
    63f8:	466a      	mov	r2, sp
    63fa:	2300      	movs	r3, #0
    63fc:	325b      	adds	r2, #91	; 0x5b
    63fe:	3401      	adds	r4, #1
    6400:	602b      	str	r3, [r5, #0]
    6402:	60eb      	str	r3, [r5, #12]
    6404:	60ab      	str	r3, [r5, #8]
    6406:	7013      	strb	r3, [r2, #0]
    6408:	65ab      	str	r3, [r5, #88]	; 0x58
    640a:	4f4e      	ldr	r7, [pc, #312]	; (6544 <_svfiprintf_r+0x1cc>)
    640c:	7821      	ldrb	r1, [r4, #0]
    640e:	1c38      	adds	r0, r7, #0
    6410:	2205      	movs	r2, #5
    6412:	f7ff fd23 	bl	5e5c <memchr>
    6416:	2800      	cmp	r0, #0
    6418:	d007      	beq.n	642a <_svfiprintf_r+0xb2>
    641a:	1bc7      	subs	r7, r0, r7
    641c:	682b      	ldr	r3, [r5, #0]
    641e:	2001      	movs	r0, #1
    6420:	40b8      	lsls	r0, r7
    6422:	4318      	orrs	r0, r3
    6424:	6028      	str	r0, [r5, #0]
    6426:	3401      	adds	r4, #1
    6428:	e7ef      	b.n	640a <_svfiprintf_r+0x92>
    642a:	682b      	ldr	r3, [r5, #0]
    642c:	06d9      	lsls	r1, r3, #27
    642e:	d503      	bpl.n	6438 <_svfiprintf_r+0xc0>
    6430:	466a      	mov	r2, sp
    6432:	2120      	movs	r1, #32
    6434:	325b      	adds	r2, #91	; 0x5b
    6436:	7011      	strb	r1, [r2, #0]
    6438:	071a      	lsls	r2, r3, #28
    643a:	d503      	bpl.n	6444 <_svfiprintf_r+0xcc>
    643c:	466a      	mov	r2, sp
    643e:	212b      	movs	r1, #43	; 0x2b
    6440:	325b      	adds	r2, #91	; 0x5b
    6442:	7011      	strb	r1, [r2, #0]
    6444:	7822      	ldrb	r2, [r4, #0]
    6446:	2a2a      	cmp	r2, #42	; 0x2a
    6448:	d001      	beq.n	644e <_svfiprintf_r+0xd6>
    644a:	9b09      	ldr	r3, [sp, #36]	; 0x24
    644c:	e00e      	b.n	646c <_svfiprintf_r+0xf4>
    644e:	9a05      	ldr	r2, [sp, #20]
    6450:	1d11      	adds	r1, r2, #4
    6452:	6812      	ldr	r2, [r2, #0]
    6454:	9105      	str	r1, [sp, #20]
    6456:	2a00      	cmp	r2, #0
    6458:	db01      	blt.n	645e <_svfiprintf_r+0xe6>
    645a:	9209      	str	r2, [sp, #36]	; 0x24
    645c:	e004      	b.n	6468 <_svfiprintf_r+0xf0>
    645e:	4252      	negs	r2, r2
    6460:	60ea      	str	r2, [r5, #12]
    6462:	2202      	movs	r2, #2
    6464:	4313      	orrs	r3, r2
    6466:	602b      	str	r3, [r5, #0]
    6468:	3401      	adds	r4, #1
    646a:	e009      	b.n	6480 <_svfiprintf_r+0x108>
    646c:	7822      	ldrb	r2, [r4, #0]
    646e:	3a30      	subs	r2, #48	; 0x30
    6470:	2a09      	cmp	r2, #9
    6472:	d804      	bhi.n	647e <_svfiprintf_r+0x106>
    6474:	210a      	movs	r1, #10
    6476:	434b      	muls	r3, r1
    6478:	3401      	adds	r4, #1
    647a:	189b      	adds	r3, r3, r2
    647c:	e7f6      	b.n	646c <_svfiprintf_r+0xf4>
    647e:	9309      	str	r3, [sp, #36]	; 0x24
    6480:	7823      	ldrb	r3, [r4, #0]
    6482:	2b2e      	cmp	r3, #46	; 0x2e
    6484:	d118      	bne.n	64b8 <_svfiprintf_r+0x140>
    6486:	7863      	ldrb	r3, [r4, #1]
    6488:	2b2a      	cmp	r3, #42	; 0x2a
    648a:	d109      	bne.n	64a0 <_svfiprintf_r+0x128>
    648c:	9b05      	ldr	r3, [sp, #20]
    648e:	3402      	adds	r4, #2
    6490:	1d1a      	adds	r2, r3, #4
    6492:	681b      	ldr	r3, [r3, #0]
    6494:	9205      	str	r2, [sp, #20]
    6496:	2b00      	cmp	r3, #0
    6498:	da0d      	bge.n	64b6 <_svfiprintf_r+0x13e>
    649a:	2301      	movs	r3, #1
    649c:	425b      	negs	r3, r3
    649e:	e00a      	b.n	64b6 <_svfiprintf_r+0x13e>
    64a0:	3401      	adds	r4, #1
    64a2:	2300      	movs	r3, #0
    64a4:	7822      	ldrb	r2, [r4, #0]
    64a6:	3a30      	subs	r2, #48	; 0x30
    64a8:	2a09      	cmp	r2, #9
    64aa:	d804      	bhi.n	64b6 <_svfiprintf_r+0x13e>
    64ac:	210a      	movs	r1, #10
    64ae:	434b      	muls	r3, r1
    64b0:	3401      	adds	r4, #1
    64b2:	189b      	adds	r3, r3, r2
    64b4:	e7f6      	b.n	64a4 <_svfiprintf_r+0x12c>
    64b6:	9307      	str	r3, [sp, #28]
    64b8:	4f23      	ldr	r7, [pc, #140]	; (6548 <_svfiprintf_r+0x1d0>)
    64ba:	7821      	ldrb	r1, [r4, #0]
    64bc:	1c38      	adds	r0, r7, #0
    64be:	2203      	movs	r2, #3
    64c0:	f7ff fccc 	bl	5e5c <memchr>
    64c4:	2800      	cmp	r0, #0
    64c6:	d006      	beq.n	64d6 <_svfiprintf_r+0x15e>
    64c8:	1bc7      	subs	r7, r0, r7
    64ca:	682b      	ldr	r3, [r5, #0]
    64cc:	2040      	movs	r0, #64	; 0x40
    64ce:	40b8      	lsls	r0, r7
    64d0:	4318      	orrs	r0, r3
    64d2:	6028      	str	r0, [r5, #0]
    64d4:	3401      	adds	r4, #1
    64d6:	7821      	ldrb	r1, [r4, #0]
    64d8:	481c      	ldr	r0, [pc, #112]	; (654c <_svfiprintf_r+0x1d4>)
    64da:	2206      	movs	r2, #6
    64dc:	1c67      	adds	r7, r4, #1
    64de:	7629      	strb	r1, [r5, #24]
    64e0:	f7ff fcbc 	bl	5e5c <memchr>
    64e4:	2800      	cmp	r0, #0
    64e6:	d012      	beq.n	650e <_svfiprintf_r+0x196>
    64e8:	4b19      	ldr	r3, [pc, #100]	; (6550 <_svfiprintf_r+0x1d8>)
    64ea:	2b00      	cmp	r3, #0
    64ec:	d106      	bne.n	64fc <_svfiprintf_r+0x184>
    64ee:	9b05      	ldr	r3, [sp, #20]
    64f0:	2207      	movs	r2, #7
    64f2:	3307      	adds	r3, #7
    64f4:	4393      	bics	r3, r2
    64f6:	3308      	adds	r3, #8
    64f8:	9305      	str	r3, [sp, #20]
    64fa:	e014      	b.n	6526 <_svfiprintf_r+0x1ae>
    64fc:	ab05      	add	r3, sp, #20
    64fe:	9300      	str	r3, [sp, #0]
    6500:	9803      	ldr	r0, [sp, #12]
    6502:	1c29      	adds	r1, r5, #0
    6504:	1c32      	adds	r2, r6, #0
    6506:	4b13      	ldr	r3, [pc, #76]	; (6554 <_svfiprintf_r+0x1dc>)
    6508:	e000      	b.n	650c <_svfiprintf_r+0x194>
    650a:	bf00      	nop
    650c:	e007      	b.n	651e <_svfiprintf_r+0x1a6>
    650e:	ab05      	add	r3, sp, #20
    6510:	9300      	str	r3, [sp, #0]
    6512:	9803      	ldr	r0, [sp, #12]
    6514:	1c29      	adds	r1, r5, #0
    6516:	1c32      	adds	r2, r6, #0
    6518:	4b0e      	ldr	r3, [pc, #56]	; (6554 <_svfiprintf_r+0x1dc>)
    651a:	f000 fbc1 	bl	6ca0 <_printf_i>
    651e:	9004      	str	r0, [sp, #16]
    6520:	9904      	ldr	r1, [sp, #16]
    6522:	3101      	adds	r1, #1
    6524:	d004      	beq.n	6530 <_svfiprintf_r+0x1b8>
    6526:	696a      	ldr	r2, [r5, #20]
    6528:	9904      	ldr	r1, [sp, #16]
    652a:	1853      	adds	r3, r2, r1
    652c:	616b      	str	r3, [r5, #20]
    652e:	e743      	b.n	63b8 <_svfiprintf_r+0x40>
    6530:	89b3      	ldrh	r3, [r6, #12]
    6532:	065a      	lsls	r2, r3, #25
    6534:	d401      	bmi.n	653a <_svfiprintf_r+0x1c2>
    6536:	980b      	ldr	r0, [sp, #44]	; 0x2c
    6538:	e001      	b.n	653e <_svfiprintf_r+0x1c6>
    653a:	2001      	movs	r0, #1
    653c:	4240      	negs	r0, r0
    653e:	b01f      	add	sp, #124	; 0x7c
    6540:	bdf0      	pop	{r4, r5, r6, r7, pc}
    6542:	46c0      	nop			; (mov r8, r8)
    6544:	00007c38 	.word	0x00007c38
    6548:	00007c3e 	.word	0x00007c3e
    654c:	00007c42 	.word	0x00007c42
    6550:	00000000 	.word	0x00000000
    6554:	000062b9 	.word	0x000062b9

00006558 <_sungetc_r>:
    6558:	b538      	push	{r3, r4, r5, lr}
    655a:	1c14      	adds	r4, r2, #0
    655c:	1c4b      	adds	r3, r1, #1
    655e:	d102      	bne.n	6566 <_sungetc_r+0xe>
    6560:	2001      	movs	r0, #1
    6562:	4240      	negs	r0, r0
    6564:	e034      	b.n	65d0 <_sungetc_r+0x78>
    6566:	8993      	ldrh	r3, [r2, #12]
    6568:	2220      	movs	r2, #32
    656a:	4393      	bics	r3, r2
    656c:	81a3      	strh	r3, [r4, #12]
    656e:	6b63      	ldr	r3, [r4, #52]	; 0x34
    6570:	b2cd      	uxtb	r5, r1
    6572:	6862      	ldr	r2, [r4, #4]
    6574:	2b00      	cmp	r3, #0
    6576:	d00f      	beq.n	6598 <_sungetc_r+0x40>
    6578:	6ba3      	ldr	r3, [r4, #56]	; 0x38
    657a:	429a      	cmp	r2, r3
    657c:	da06      	bge.n	658c <_sungetc_r+0x34>
    657e:	6823      	ldr	r3, [r4, #0]
    6580:	3b01      	subs	r3, #1
    6582:	6023      	str	r3, [r4, #0]
    6584:	701d      	strb	r5, [r3, #0]
    6586:	6863      	ldr	r3, [r4, #4]
    6588:	3301      	adds	r3, #1
    658a:	e01f      	b.n	65cc <_sungetc_r+0x74>
    658c:	1c21      	adds	r1, r4, #0
    658e:	f000 f997 	bl	68c0 <__submore>
    6592:	2800      	cmp	r0, #0
    6594:	d0f3      	beq.n	657e <_sungetc_r+0x26>
    6596:	e7e3      	b.n	6560 <_sungetc_r+0x8>
    6598:	6921      	ldr	r1, [r4, #16]
    659a:	6823      	ldr	r3, [r4, #0]
    659c:	2900      	cmp	r1, #0
    659e:	d009      	beq.n	65b4 <_sungetc_r+0x5c>
    65a0:	428b      	cmp	r3, r1
    65a2:	d907      	bls.n	65b4 <_sungetc_r+0x5c>
    65a4:	1e59      	subs	r1, r3, #1
    65a6:	7808      	ldrb	r0, [r1, #0]
    65a8:	42a8      	cmp	r0, r5
    65aa:	d103      	bne.n	65b4 <_sungetc_r+0x5c>
    65ac:	3201      	adds	r2, #1
    65ae:	6021      	str	r1, [r4, #0]
    65b0:	6062      	str	r2, [r4, #4]
    65b2:	e00d      	b.n	65d0 <_sungetc_r+0x78>
    65b4:	63e3      	str	r3, [r4, #60]	; 0x3c
    65b6:	1c23      	adds	r3, r4, #0
    65b8:	3344      	adds	r3, #68	; 0x44
    65ba:	6363      	str	r3, [r4, #52]	; 0x34
    65bc:	2303      	movs	r3, #3
    65be:	63a3      	str	r3, [r4, #56]	; 0x38
    65c0:	1c23      	adds	r3, r4, #0
    65c2:	3346      	adds	r3, #70	; 0x46
    65c4:	6422      	str	r2, [r4, #64]	; 0x40
    65c6:	701d      	strb	r5, [r3, #0]
    65c8:	6023      	str	r3, [r4, #0]
    65ca:	2301      	movs	r3, #1
    65cc:	6063      	str	r3, [r4, #4]
    65ce:	1c28      	adds	r0, r5, #0
    65d0:	bd38      	pop	{r3, r4, r5, pc}

000065d2 <__ssrefill_r>:
    65d2:	b510      	push	{r4, lr}
    65d4:	1c0c      	adds	r4, r1, #0
    65d6:	6b49      	ldr	r1, [r1, #52]	; 0x34
    65d8:	2900      	cmp	r1, #0
    65da:	d00e      	beq.n	65fa <__ssrefill_r+0x28>
    65dc:	1c23      	adds	r3, r4, #0
    65de:	3344      	adds	r3, #68	; 0x44
    65e0:	4299      	cmp	r1, r3
    65e2:	d001      	beq.n	65e8 <__ssrefill_r+0x16>
    65e4:	f7ff fc56 	bl	5e94 <_free_r>
    65e8:	6c23      	ldr	r3, [r4, #64]	; 0x40
    65ea:	2000      	movs	r0, #0
    65ec:	6360      	str	r0, [r4, #52]	; 0x34
    65ee:	6063      	str	r3, [r4, #4]
    65f0:	4283      	cmp	r3, r0
    65f2:	d002      	beq.n	65fa <__ssrefill_r+0x28>
    65f4:	6be3      	ldr	r3, [r4, #60]	; 0x3c
    65f6:	6023      	str	r3, [r4, #0]
    65f8:	e009      	b.n	660e <__ssrefill_r+0x3c>
    65fa:	6923      	ldr	r3, [r4, #16]
    65fc:	2220      	movs	r2, #32
    65fe:	6023      	str	r3, [r4, #0]
    6600:	2300      	movs	r3, #0
    6602:	6063      	str	r3, [r4, #4]
    6604:	89a3      	ldrh	r3, [r4, #12]
    6606:	2001      	movs	r0, #1
    6608:	4313      	orrs	r3, r2
    660a:	81a3      	strh	r3, [r4, #12]
    660c:	4240      	negs	r0, r0
    660e:	bd10      	pop	{r4, pc}

00006610 <__ssvfiscanf_r>:
    6610:	b5f0      	push	{r4, r5, r6, r7, lr}
    6612:	4ca5      	ldr	r4, [pc, #660]	; (68a8 <__ssvfiscanf_r+0x298>)
    6614:	1c07      	adds	r7, r0, #0
    6616:	44a5      	add	sp, r4
    6618:	9301      	str	r3, [sp, #4]
    661a:	2300      	movs	r3, #0
    661c:	9200      	str	r2, [sp, #0]
    661e:	9346      	str	r3, [sp, #280]	; 0x118
    6620:	4aa2      	ldr	r2, [pc, #648]	; (68ac <__ssvfiscanf_r+0x29c>)
    6622:	9347      	str	r3, [sp, #284]	; 0x11c
    6624:	23be      	movs	r3, #190	; 0xbe
    6626:	005b      	lsls	r3, r3, #1
    6628:	1c0c      	adds	r4, r1, #0
    662a:	a943      	add	r1, sp, #268	; 0x10c
    662c:	50ca      	str	r2, [r1, r3]
    662e:	4aa0      	ldr	r2, [pc, #640]	; (68b0 <__ssvfiscanf_r+0x2a0>)
    6630:	23c0      	movs	r3, #192	; 0xc0
    6632:	a803      	add	r0, sp, #12
    6634:	005b      	lsls	r3, r3, #1
    6636:	9048      	str	r0, [sp, #288]	; 0x120
    6638:	50ca      	str	r2, [r1, r3]
    663a:	9a00      	ldr	r2, [sp, #0]
    663c:	7815      	ldrb	r5, [r2, #0]
    663e:	2d00      	cmp	r5, #0
    6640:	d100      	bne.n	6644 <__ssvfiscanf_r+0x34>
    6642:	e128      	b.n	6896 <__ssvfiscanf_r+0x286>
    6644:	4e9b      	ldr	r6, [pc, #620]	; (68b4 <__ssvfiscanf_r+0x2a4>)
    6646:	6830      	ldr	r0, [r6, #0]
    6648:	1943      	adds	r3, r0, r5
    664a:	785a      	ldrb	r2, [r3, #1]
    664c:	2308      	movs	r3, #8
    664e:	4013      	ands	r3, r2
    6650:	d01f      	beq.n	6692 <__ssvfiscanf_r+0x82>
    6652:	6861      	ldr	r1, [r4, #4]
    6654:	2900      	cmp	r1, #0
    6656:	dd0f      	ble.n	6678 <__ssvfiscanf_r+0x68>
    6658:	6823      	ldr	r3, [r4, #0]
    665a:	6830      	ldr	r0, [r6, #0]
    665c:	781a      	ldrb	r2, [r3, #0]
    665e:	1882      	adds	r2, r0, r2
    6660:	7852      	ldrb	r2, [r2, #1]
    6662:	0711      	lsls	r1, r2, #28
    6664:	d511      	bpl.n	668a <__ssvfiscanf_r+0x7a>
    6666:	9a47      	ldr	r2, [sp, #284]	; 0x11c
    6668:	3301      	adds	r3, #1
    666a:	3201      	adds	r2, #1
    666c:	9247      	str	r2, [sp, #284]	; 0x11c
    666e:	6862      	ldr	r2, [r4, #4]
    6670:	6023      	str	r3, [r4, #0]
    6672:	3a01      	subs	r2, #1
    6674:	6062      	str	r2, [r4, #4]
    6676:	e7ec      	b.n	6652 <__ssvfiscanf_r+0x42>
    6678:	23c0      	movs	r3, #192	; 0xc0
    667a:	005b      	lsls	r3, r3, #1
    667c:	aa43      	add	r2, sp, #268	; 0x10c
    667e:	58d3      	ldr	r3, [r2, r3]
    6680:	1c38      	adds	r0, r7, #0
    6682:	1c21      	adds	r1, r4, #0
    6684:	4798      	blx	r3
    6686:	2800      	cmp	r0, #0
    6688:	d0e6      	beq.n	6658 <__ssvfiscanf_r+0x48>
    668a:	9e00      	ldr	r6, [sp, #0]
    668c:	3601      	adds	r6, #1
    668e:	9600      	str	r6, [sp, #0]
    6690:	e7d3      	b.n	663a <__ssvfiscanf_r+0x2a>
    6692:	9e00      	ldr	r6, [sp, #0]
    6694:	3601      	adds	r6, #1
    6696:	2d25      	cmp	r5, #37	; 0x25
    6698:	d14c      	bne.n	6734 <__ssvfiscanf_r+0x124>
    669a:	9800      	ldr	r0, [sp, #0]
    669c:	9345      	str	r3, [sp, #276]	; 0x114
    669e:	9343      	str	r3, [sp, #268]	; 0x10c
    66a0:	7843      	ldrb	r3, [r0, #1]
    66a2:	2b2a      	cmp	r3, #42	; 0x2a
    66a4:	d103      	bne.n	66ae <__ssvfiscanf_r+0x9e>
    66a6:	2310      	movs	r3, #16
    66a8:	1c06      	adds	r6, r0, #0
    66aa:	9343      	str	r3, [sp, #268]	; 0x10c
    66ac:	3602      	adds	r6, #2
    66ae:	1c35      	adds	r5, r6, #0
    66b0:	7829      	ldrb	r1, [r5, #0]
    66b2:	1c0b      	adds	r3, r1, #0
    66b4:	3b30      	subs	r3, #48	; 0x30
    66b6:	2b09      	cmp	r3, #9
    66b8:	d807      	bhi.n	66ca <__ssvfiscanf_r+0xba>
    66ba:	9a45      	ldr	r2, [sp, #276]	; 0x114
    66bc:	230a      	movs	r3, #10
    66be:	4353      	muls	r3, r2
    66c0:	3b30      	subs	r3, #48	; 0x30
    66c2:	1859      	adds	r1, r3, r1
    66c4:	9145      	str	r1, [sp, #276]	; 0x114
    66c6:	3501      	adds	r5, #1
    66c8:	e7f2      	b.n	66b0 <__ssvfiscanf_r+0xa0>
    66ca:	4e7b      	ldr	r6, [pc, #492]	; (68b8 <__ssvfiscanf_r+0x2a8>)
    66cc:	2203      	movs	r2, #3
    66ce:	1c30      	adds	r0, r6, #0
    66d0:	f7ff fbc4 	bl	5e5c <memchr>
    66d4:	2800      	cmp	r0, #0
    66d6:	d006      	beq.n	66e6 <__ssvfiscanf_r+0xd6>
    66d8:	1b86      	subs	r6, r0, r6
    66da:	9b43      	ldr	r3, [sp, #268]	; 0x10c
    66dc:	2001      	movs	r0, #1
    66de:	40b0      	lsls	r0, r6
    66e0:	4318      	orrs	r0, r3
    66e2:	9043      	str	r0, [sp, #268]	; 0x10c
    66e4:	3501      	adds	r5, #1
    66e6:	1c6e      	adds	r6, r5, #1
    66e8:	782d      	ldrb	r5, [r5, #0]
    66ea:	2d67      	cmp	r5, #103	; 0x67
    66ec:	d80f      	bhi.n	670e <__ssvfiscanf_r+0xfe>
    66ee:	2d65      	cmp	r5, #101	; 0x65
    66f0:	d277      	bcs.n	67e2 <__ssvfiscanf_r+0x1d2>
    66f2:	2d5b      	cmp	r5, #91	; 0x5b
    66f4:	d051      	beq.n	679a <__ssvfiscanf_r+0x18a>
    66f6:	d805      	bhi.n	6704 <__ssvfiscanf_r+0xf4>
    66f8:	2d00      	cmp	r5, #0
    66fa:	d100      	bne.n	66fe <__ssvfiscanf_r+0xee>
    66fc:	e0cd      	b.n	689a <__ssvfiscanf_r+0x28a>
    66fe:	2d25      	cmp	r5, #37	; 0x25
    6700:	d018      	beq.n	6734 <__ssvfiscanf_r+0x124>
    6702:	e070      	b.n	67e6 <__ssvfiscanf_r+0x1d6>
    6704:	2d63      	cmp	r5, #99	; 0x63
    6706:	d054      	beq.n	67b2 <__ssvfiscanf_r+0x1a2>
    6708:	2d64      	cmp	r5, #100	; 0x64
    670a:	d03d      	beq.n	6788 <__ssvfiscanf_r+0x178>
    670c:	e06b      	b.n	67e6 <__ssvfiscanf_r+0x1d6>
    670e:	2d70      	cmp	r5, #112	; 0x70
    6710:	d02f      	beq.n	6772 <__ssvfiscanf_r+0x162>
    6712:	d807      	bhi.n	6724 <__ssvfiscanf_r+0x114>
    6714:	2d6e      	cmp	r5, #110	; 0x6e
    6716:	d052      	beq.n	67be <__ssvfiscanf_r+0x1ae>
    6718:	d838      	bhi.n	678c <__ssvfiscanf_r+0x17c>
    671a:	2d69      	cmp	r5, #105	; 0x69
    671c:	d163      	bne.n	67e6 <__ssvfiscanf_r+0x1d6>
    671e:	2300      	movs	r3, #0
    6720:	9344      	str	r3, [sp, #272]	; 0x110
    6722:	e038      	b.n	6796 <__ssvfiscanf_r+0x186>
    6724:	2d75      	cmp	r5, #117	; 0x75
    6726:	d02f      	beq.n	6788 <__ssvfiscanf_r+0x178>
    6728:	2d78      	cmp	r5, #120	; 0x78
    672a:	d026      	beq.n	677a <__ssvfiscanf_r+0x16a>
    672c:	2d73      	cmp	r5, #115	; 0x73
    672e:	d15a      	bne.n	67e6 <__ssvfiscanf_r+0x1d6>
    6730:	2302      	movs	r3, #2
    6732:	e03c      	b.n	67ae <__ssvfiscanf_r+0x19e>
    6734:	6860      	ldr	r0, [r4, #4]
    6736:	2800      	cmp	r0, #0
    6738:	dd0d      	ble.n	6756 <__ssvfiscanf_r+0x146>
    673a:	6823      	ldr	r3, [r4, #0]
    673c:	781a      	ldrb	r2, [r3, #0]
    673e:	42aa      	cmp	r2, r5
    6740:	d000      	beq.n	6744 <__ssvfiscanf_r+0x134>
    6742:	e0a8      	b.n	6896 <__ssvfiscanf_r+0x286>
    6744:	3301      	adds	r3, #1
    6746:	6862      	ldr	r2, [r4, #4]
    6748:	6023      	str	r3, [r4, #0]
    674a:	9b47      	ldr	r3, [sp, #284]	; 0x11c
    674c:	3a01      	subs	r2, #1
    674e:	3301      	adds	r3, #1
    6750:	6062      	str	r2, [r4, #4]
    6752:	9347      	str	r3, [sp, #284]	; 0x11c
    6754:	e79b      	b.n	668e <__ssvfiscanf_r+0x7e>
    6756:	23c0      	movs	r3, #192	; 0xc0
    6758:	a943      	add	r1, sp, #268	; 0x10c
    675a:	005b      	lsls	r3, r3, #1
    675c:	58cb      	ldr	r3, [r1, r3]
    675e:	1c38      	adds	r0, r7, #0
    6760:	1c21      	adds	r1, r4, #0
    6762:	4798      	blx	r3
    6764:	2800      	cmp	r0, #0
    6766:	d0e8      	beq.n	673a <__ssvfiscanf_r+0x12a>
    6768:	9846      	ldr	r0, [sp, #280]	; 0x118
    676a:	2800      	cmp	r0, #0
    676c:	d000      	beq.n	6770 <__ssvfiscanf_r+0x160>
    676e:	e08e      	b.n	688e <__ssvfiscanf_r+0x27e>
    6770:	e093      	b.n	689a <__ssvfiscanf_r+0x28a>
    6772:	9a43      	ldr	r2, [sp, #268]	; 0x10c
    6774:	2320      	movs	r3, #32
    6776:	4313      	orrs	r3, r2
    6778:	9343      	str	r3, [sp, #268]	; 0x10c
    677a:	9843      	ldr	r0, [sp, #268]	; 0x10c
    677c:	2380      	movs	r3, #128	; 0x80
    677e:	009b      	lsls	r3, r3, #2
    6780:	4303      	orrs	r3, r0
    6782:	9343      	str	r3, [sp, #268]	; 0x10c
    6784:	2310      	movs	r3, #16
    6786:	e002      	b.n	678e <__ssvfiscanf_r+0x17e>
    6788:	230a      	movs	r3, #10
    678a:	e000      	b.n	678e <__ssvfiscanf_r+0x17e>
    678c:	2308      	movs	r3, #8
    678e:	9344      	str	r3, [sp, #272]	; 0x110
    6790:	2304      	movs	r3, #4
    6792:	2d6e      	cmp	r5, #110	; 0x6e
    6794:	dc0b      	bgt.n	67ae <__ssvfiscanf_r+0x19e>
    6796:	2303      	movs	r3, #3
    6798:	e009      	b.n	67ae <__ssvfiscanf_r+0x19e>
    679a:	1c31      	adds	r1, r6, #0
    679c:	a803      	add	r0, sp, #12
    679e:	f000 feab 	bl	74f8 <__sccl>
    67a2:	9943      	ldr	r1, [sp, #268]	; 0x10c
    67a4:	2340      	movs	r3, #64	; 0x40
    67a6:	430b      	orrs	r3, r1
    67a8:	9343      	str	r3, [sp, #268]	; 0x10c
    67aa:	1c06      	adds	r6, r0, #0
    67ac:	2301      	movs	r3, #1
    67ae:	9349      	str	r3, [sp, #292]	; 0x124
    67b0:	e01d      	b.n	67ee <__ssvfiscanf_r+0x1de>
    67b2:	9a43      	ldr	r2, [sp, #268]	; 0x10c
    67b4:	2340      	movs	r3, #64	; 0x40
    67b6:	4313      	orrs	r3, r2
    67b8:	9343      	str	r3, [sp, #268]	; 0x10c
    67ba:	2300      	movs	r3, #0
    67bc:	e7f7      	b.n	67ae <__ssvfiscanf_r+0x19e>
    67be:	9943      	ldr	r1, [sp, #268]	; 0x10c
    67c0:	06cb      	lsls	r3, r1, #27
    67c2:	d500      	bpl.n	67c6 <__ssvfiscanf_r+0x1b6>
    67c4:	e763      	b.n	668e <__ssvfiscanf_r+0x7e>
    67c6:	9b01      	ldr	r3, [sp, #4]
    67c8:	9a47      	ldr	r2, [sp, #284]	; 0x11c
    67ca:	07c8      	lsls	r0, r1, #31
    67cc:	d504      	bpl.n	67d8 <__ssvfiscanf_r+0x1c8>
    67ce:	1d19      	adds	r1, r3, #4
    67d0:	9101      	str	r1, [sp, #4]
    67d2:	681b      	ldr	r3, [r3, #0]
    67d4:	801a      	strh	r2, [r3, #0]
    67d6:	e75a      	b.n	668e <__ssvfiscanf_r+0x7e>
    67d8:	1d19      	adds	r1, r3, #4
    67da:	9101      	str	r1, [sp, #4]
    67dc:	681b      	ldr	r3, [r3, #0]
    67de:	601a      	str	r2, [r3, #0]
    67e0:	e755      	b.n	668e <__ssvfiscanf_r+0x7e>
    67e2:	2305      	movs	r3, #5
    67e4:	e7e3      	b.n	67ae <__ssvfiscanf_r+0x19e>
    67e6:	2303      	movs	r3, #3
    67e8:	9349      	str	r3, [sp, #292]	; 0x124
    67ea:	230a      	movs	r3, #10
    67ec:	9344      	str	r3, [sp, #272]	; 0x110
    67ee:	6861      	ldr	r1, [r4, #4]
    67f0:	2900      	cmp	r1, #0
    67f2:	dd03      	ble.n	67fc <__ssvfiscanf_r+0x1ec>
    67f4:	9a43      	ldr	r2, [sp, #268]	; 0x10c
    67f6:	0652      	lsls	r2, r2, #25
    67f8:	d514      	bpl.n	6824 <__ssvfiscanf_r+0x214>
    67fa:	e01b      	b.n	6834 <__ssvfiscanf_r+0x224>
    67fc:	23c0      	movs	r3, #192	; 0xc0
    67fe:	a843      	add	r0, sp, #268	; 0x10c
    6800:	005b      	lsls	r3, r3, #1
    6802:	58c3      	ldr	r3, [r0, r3]
    6804:	1c21      	adds	r1, r4, #0
    6806:	1c38      	adds	r0, r7, #0
    6808:	4798      	blx	r3
    680a:	2800      	cmp	r0, #0
    680c:	d0f2      	beq.n	67f4 <__ssvfiscanf_r+0x1e4>
    680e:	e7ab      	b.n	6768 <__ssvfiscanf_r+0x158>
    6810:	9a47      	ldr	r2, [sp, #284]	; 0x11c
    6812:	3201      	adds	r2, #1
    6814:	9247      	str	r2, [sp, #284]	; 0x11c
    6816:	6862      	ldr	r2, [r4, #4]
    6818:	3a01      	subs	r2, #1
    681a:	6062      	str	r2, [r4, #4]
    681c:	2a00      	cmp	r2, #0
    681e:	dd13      	ble.n	6848 <__ssvfiscanf_r+0x238>
    6820:	3301      	adds	r3, #1
    6822:	6023      	str	r3, [r4, #0]
    6824:	6823      	ldr	r3, [r4, #0]
    6826:	4923      	ldr	r1, [pc, #140]	; (68b4 <__ssvfiscanf_r+0x2a4>)
    6828:	781a      	ldrb	r2, [r3, #0]
    682a:	6809      	ldr	r1, [r1, #0]
    682c:	188a      	adds	r2, r1, r2
    682e:	7852      	ldrb	r2, [r2, #1]
    6830:	0710      	lsls	r0, r2, #28
    6832:	d4ed      	bmi.n	6810 <__ssvfiscanf_r+0x200>
    6834:	9b49      	ldr	r3, [sp, #292]	; 0x124
    6836:	2b02      	cmp	r3, #2
    6838:	dc10      	bgt.n	685c <__ssvfiscanf_r+0x24c>
    683a:	1c38      	adds	r0, r7, #0
    683c:	a943      	add	r1, sp, #268	; 0x10c
    683e:	1c22      	adds	r2, r4, #0
    6840:	ab01      	add	r3, sp, #4
    6842:	f000 fb43 	bl	6ecc <_scanf_chars>
    6846:	e01c      	b.n	6882 <__ssvfiscanf_r+0x272>
    6848:	23c0      	movs	r3, #192	; 0xc0
    684a:	a943      	add	r1, sp, #268	; 0x10c
    684c:	005b      	lsls	r3, r3, #1
    684e:	58cb      	ldr	r3, [r1, r3]
    6850:	1c38      	adds	r0, r7, #0
    6852:	1c21      	adds	r1, r4, #0
    6854:	4798      	blx	r3
    6856:	2800      	cmp	r0, #0
    6858:	d0e4      	beq.n	6824 <__ssvfiscanf_r+0x214>
    685a:	e785      	b.n	6768 <__ssvfiscanf_r+0x158>
    685c:	2b04      	cmp	r3, #4
    685e:	dc06      	bgt.n	686e <__ssvfiscanf_r+0x25e>
    6860:	1c38      	adds	r0, r7, #0
    6862:	a943      	add	r1, sp, #268	; 0x10c
    6864:	1c22      	adds	r2, r4, #0
    6866:	ab01      	add	r3, sp, #4
    6868:	f000 fb94 	bl	6f94 <_scanf_i>
    686c:	e009      	b.n	6882 <__ssvfiscanf_r+0x272>
    686e:	4b13      	ldr	r3, [pc, #76]	; (68bc <__ssvfiscanf_r+0x2ac>)
    6870:	2b00      	cmp	r3, #0
    6872:	d100      	bne.n	6876 <__ssvfiscanf_r+0x266>
    6874:	e70b      	b.n	668e <__ssvfiscanf_r+0x7e>
    6876:	1c38      	adds	r0, r7, #0
    6878:	a943      	add	r1, sp, #268	; 0x10c
    687a:	1c22      	adds	r2, r4, #0
    687c:	ab01      	add	r3, sp, #4
    687e:	e000      	b.n	6882 <__ssvfiscanf_r+0x272>
    6880:	bf00      	nop
    6882:	2801      	cmp	r0, #1
    6884:	d007      	beq.n	6896 <__ssvfiscanf_r+0x286>
    6886:	2802      	cmp	r0, #2
    6888:	d000      	beq.n	688c <__ssvfiscanf_r+0x27c>
    688a:	e700      	b.n	668e <__ssvfiscanf_r+0x7e>
    688c:	e76c      	b.n	6768 <__ssvfiscanf_r+0x158>
    688e:	89a3      	ldrh	r3, [r4, #12]
    6890:	0659      	lsls	r1, r3, #25
    6892:	d504      	bpl.n	689e <__ssvfiscanf_r+0x28e>
    6894:	e001      	b.n	689a <__ssvfiscanf_r+0x28a>
    6896:	9846      	ldr	r0, [sp, #280]	; 0x118
    6898:	e001      	b.n	689e <__ssvfiscanf_r+0x28e>
    689a:	2001      	movs	r0, #1
    689c:	4240      	negs	r0, r0
    689e:	23a5      	movs	r3, #165	; 0xa5
    68a0:	009b      	lsls	r3, r3, #2
    68a2:	449d      	add	sp, r3
    68a4:	bdf0      	pop	{r4, r5, r6, r7, pc}
    68a6:	46c0      	nop			; (mov r8, r8)
    68a8:	fffffd6c 	.word	0xfffffd6c
    68ac:	00006559 	.word	0x00006559
    68b0:	000065d3 	.word	0x000065d3
    68b4:	10000134 	.word	0x10000134
    68b8:	00007c3e 	.word	0x00007c3e
    68bc:	00000000 	.word	0x00000000

000068c0 <__submore>:
    68c0:	b5f7      	push	{r0, r1, r2, r4, r5, r6, r7, lr}
    68c2:	1c0b      	adds	r3, r1, #0
    68c4:	6b4d      	ldr	r5, [r1, #52]	; 0x34
    68c6:	3344      	adds	r3, #68	; 0x44
    68c8:	1c0c      	adds	r4, r1, #0
    68ca:	429d      	cmp	r5, r3
    68cc:	d11b      	bne.n	6906 <__submore+0x46>
    68ce:	2680      	movs	r6, #128	; 0x80
    68d0:	00f6      	lsls	r6, r6, #3
    68d2:	1c31      	adds	r1, r6, #0
    68d4:	f7ff fb26 	bl	5f24 <_malloc_r>
    68d8:	2800      	cmp	r0, #0
    68da:	d102      	bne.n	68e2 <__submore+0x22>
    68dc:	2001      	movs	r0, #1
    68de:	4240      	negs	r0, r0
    68e0:	e025      	b.n	692e <__submore+0x6e>
    68e2:	1c23      	adds	r3, r4, #0
    68e4:	6360      	str	r0, [r4, #52]	; 0x34
    68e6:	63a6      	str	r6, [r4, #56]	; 0x38
    68e8:	3346      	adds	r3, #70	; 0x46
    68ea:	781a      	ldrb	r2, [r3, #0]
    68ec:	4b10      	ldr	r3, [pc, #64]	; (6930 <__submore+0x70>)
    68ee:	54c2      	strb	r2, [r0, r3]
    68f0:	1c23      	adds	r3, r4, #0
    68f2:	3345      	adds	r3, #69	; 0x45
    68f4:	781a      	ldrb	r2, [r3, #0]
    68f6:	4b0f      	ldr	r3, [pc, #60]	; (6934 <__submore+0x74>)
    68f8:	54c2      	strb	r2, [r0, r3]
    68fa:	782a      	ldrb	r2, [r5, #0]
    68fc:	4b0e      	ldr	r3, [pc, #56]	; (6938 <__submore+0x78>)
    68fe:	54c2      	strb	r2, [r0, r3]
    6900:	18c0      	adds	r0, r0, r3
    6902:	6020      	str	r0, [r4, #0]
    6904:	e012      	b.n	692c <__submore+0x6c>
    6906:	6b8e      	ldr	r6, [r1, #56]	; 0x38
    6908:	1c29      	adds	r1, r5, #0
    690a:	0073      	lsls	r3, r6, #1
    690c:	1c1a      	adds	r2, r3, #0
    690e:	9301      	str	r3, [sp, #4]
    6910:	f000 fdb7 	bl	7482 <_realloc_r>
    6914:	1e05      	subs	r5, r0, #0
    6916:	d0e1      	beq.n	68dc <__submore+0x1c>
    6918:	1987      	adds	r7, r0, r6
    691a:	1c38      	adds	r0, r7, #0
    691c:	1c29      	adds	r1, r5, #0
    691e:	1c32      	adds	r2, r6, #0
    6920:	f7ff faa7 	bl	5e72 <memcpy>
    6924:	9b01      	ldr	r3, [sp, #4]
    6926:	6027      	str	r7, [r4, #0]
    6928:	6365      	str	r5, [r4, #52]	; 0x34
    692a:	63a3      	str	r3, [r4, #56]	; 0x38
    692c:	2000      	movs	r0, #0
    692e:	bdfe      	pop	{r1, r2, r3, r4, r5, r6, r7, pc}
    6930:	000003ff 	.word	0x000003ff
    6934:	000003fe 	.word	0x000003fe
    6938:	000003fd 	.word	0x000003fd

0000693c <__sfputc_r>:
    693c:	6893      	ldr	r3, [r2, #8]
    693e:	b510      	push	{r4, lr}
    6940:	3b01      	subs	r3, #1
    6942:	6093      	str	r3, [r2, #8]
    6944:	2b00      	cmp	r3, #0
    6946:	da05      	bge.n	6954 <__sfputc_r+0x18>
    6948:	6994      	ldr	r4, [r2, #24]
    694a:	42a3      	cmp	r3, r4
    694c:	db08      	blt.n	6960 <__sfputc_r+0x24>
    694e:	b2cb      	uxtb	r3, r1
    6950:	2b0a      	cmp	r3, #10
    6952:	d005      	beq.n	6960 <__sfputc_r+0x24>
    6954:	6813      	ldr	r3, [r2, #0]
    6956:	1c58      	adds	r0, r3, #1
    6958:	6010      	str	r0, [r2, #0]
    695a:	7019      	strb	r1, [r3, #0]
    695c:	b2c8      	uxtb	r0, r1
    695e:	e001      	b.n	6964 <__sfputc_r+0x28>
    6960:	f000 fc16 	bl	7190 <__swbuf_r>
    6964:	bd10      	pop	{r4, pc}

00006966 <__sfputs_r>:
    6966:	b5f8      	push	{r3, r4, r5, r6, r7, lr}
    6968:	1c06      	adds	r6, r0, #0
    696a:	1c0f      	adds	r7, r1, #0
    696c:	1c14      	adds	r4, r2, #0
    696e:	18d5      	adds	r5, r2, r3
    6970:	42ac      	cmp	r4, r5
    6972:	d008      	beq.n	6986 <__sfputs_r+0x20>
    6974:	7821      	ldrb	r1, [r4, #0]
    6976:	1c30      	adds	r0, r6, #0
    6978:	1c3a      	adds	r2, r7, #0
    697a:	f7ff ffdf 	bl	693c <__sfputc_r>
    697e:	3401      	adds	r4, #1
    6980:	1c43      	adds	r3, r0, #1
    6982:	d1f5      	bne.n	6970 <__sfputs_r+0xa>
    6984:	e000      	b.n	6988 <__sfputs_r+0x22>
    6986:	2000      	movs	r0, #0
    6988:	bdf8      	pop	{r3, r4, r5, r6, r7, pc}
	...

0000698c <_vfiprintf_r>:
    698c:	b5f0      	push	{r4, r5, r6, r7, lr}
    698e:	b09f      	sub	sp, #124	; 0x7c
    6990:	1c06      	adds	r6, r0, #0
    6992:	1c0f      	adds	r7, r1, #0
    6994:	9203      	str	r2, [sp, #12]
    6996:	9305      	str	r3, [sp, #20]
    6998:	2800      	cmp	r0, #0
    699a:	d004      	beq.n	69a6 <_vfiprintf_r+0x1a>
    699c:	6981      	ldr	r1, [r0, #24]
    699e:	2900      	cmp	r1, #0
    69a0:	d101      	bne.n	69a6 <_vfiprintf_r+0x1a>
    69a2:	f7ff f857 	bl	5a54 <__sinit>
    69a6:	4b75      	ldr	r3, [pc, #468]	; (6b7c <_vfiprintf_r+0x1f0>)
    69a8:	429f      	cmp	r7, r3
    69aa:	d101      	bne.n	69b0 <_vfiprintf_r+0x24>
    69ac:	6877      	ldr	r7, [r6, #4]
    69ae:	e008      	b.n	69c2 <_vfiprintf_r+0x36>
    69b0:	4b73      	ldr	r3, [pc, #460]	; (6b80 <_vfiprintf_r+0x1f4>)
    69b2:	429f      	cmp	r7, r3
    69b4:	d101      	bne.n	69ba <_vfiprintf_r+0x2e>
    69b6:	68b7      	ldr	r7, [r6, #8]
    69b8:	e003      	b.n	69c2 <_vfiprintf_r+0x36>
    69ba:	4b72      	ldr	r3, [pc, #456]	; (6b84 <_vfiprintf_r+0x1f8>)
    69bc:	429f      	cmp	r7, r3
    69be:	d100      	bne.n	69c2 <_vfiprintf_r+0x36>
    69c0:	68f7      	ldr	r7, [r6, #12]
    69c2:	89bb      	ldrh	r3, [r7, #12]
    69c4:	071a      	lsls	r2, r3, #28
    69c6:	d50a      	bpl.n	69de <_vfiprintf_r+0x52>
    69c8:	693b      	ldr	r3, [r7, #16]
    69ca:	2b00      	cmp	r3, #0
    69cc:	d007      	beq.n	69de <_vfiprintf_r+0x52>
    69ce:	ad06      	add	r5, sp, #24
    69d0:	2300      	movs	r3, #0
    69d2:	616b      	str	r3, [r5, #20]
    69d4:	2320      	movs	r3, #32
    69d6:	766b      	strb	r3, [r5, #25]
    69d8:	2330      	movs	r3, #48	; 0x30
    69da:	76ab      	strb	r3, [r5, #26]
    69dc:	e03b      	b.n	6a56 <_vfiprintf_r+0xca>
    69de:	1c30      	adds	r0, r6, #0
    69e0:	1c39      	adds	r1, r7, #0
    69e2:	f000 fc41 	bl	7268 <__swsetup_r>
    69e6:	2800      	cmp	r0, #0
    69e8:	d0f1      	beq.n	69ce <_vfiprintf_r+0x42>
    69ea:	2001      	movs	r0, #1
    69ec:	4240      	negs	r0, r0
    69ee:	e0c2      	b.n	6b76 <_vfiprintf_r+0x1ea>
    69f0:	9a05      	ldr	r2, [sp, #20]
    69f2:	1d11      	adds	r1, r2, #4
    69f4:	6812      	ldr	r2, [r2, #0]
    69f6:	9105      	str	r1, [sp, #20]
    69f8:	2a00      	cmp	r2, #0
    69fa:	db76      	blt.n	6aea <_vfiprintf_r+0x15e>
    69fc:	9209      	str	r2, [sp, #36]	; 0x24
    69fe:	3401      	adds	r4, #1
    6a00:	7823      	ldrb	r3, [r4, #0]
    6a02:	2b2e      	cmp	r3, #46	; 0x2e
    6a04:	d100      	bne.n	6a08 <_vfiprintf_r+0x7c>
    6a06:	e081      	b.n	6b0c <_vfiprintf_r+0x180>
    6a08:	7821      	ldrb	r1, [r4, #0]
    6a0a:	485f      	ldr	r0, [pc, #380]	; (6b88 <_vfiprintf_r+0x1fc>)
    6a0c:	2203      	movs	r2, #3
    6a0e:	f7ff fa25 	bl	5e5c <memchr>
    6a12:	2800      	cmp	r0, #0
    6a14:	d007      	beq.n	6a26 <_vfiprintf_r+0x9a>
    6a16:	495c      	ldr	r1, [pc, #368]	; (6b88 <_vfiprintf_r+0x1fc>)
    6a18:	682a      	ldr	r2, [r5, #0]
    6a1a:	1a43      	subs	r3, r0, r1
    6a1c:	2040      	movs	r0, #64	; 0x40
    6a1e:	4098      	lsls	r0, r3
    6a20:	4310      	orrs	r0, r2
    6a22:	6028      	str	r0, [r5, #0]
    6a24:	3401      	adds	r4, #1
    6a26:	7821      	ldrb	r1, [r4, #0]
    6a28:	1c63      	adds	r3, r4, #1
    6a2a:	4858      	ldr	r0, [pc, #352]	; (6b8c <_vfiprintf_r+0x200>)
    6a2c:	2206      	movs	r2, #6
    6a2e:	9303      	str	r3, [sp, #12]
    6a30:	7629      	strb	r1, [r5, #24]
    6a32:	f7ff fa13 	bl	5e5c <memchr>
    6a36:	2800      	cmp	r0, #0
    6a38:	d100      	bne.n	6a3c <_vfiprintf_r+0xb0>
    6a3a:	e08a      	b.n	6b52 <_vfiprintf_r+0x1c6>
    6a3c:	4b54      	ldr	r3, [pc, #336]	; (6b90 <_vfiprintf_r+0x204>)
    6a3e:	2b00      	cmp	r3, #0
    6a40:	d17e      	bne.n	6b40 <_vfiprintf_r+0x1b4>
    6a42:	9b05      	ldr	r3, [sp, #20]
    6a44:	2207      	movs	r2, #7
    6a46:	3307      	adds	r3, #7
    6a48:	4393      	bics	r3, r2
    6a4a:	3308      	adds	r3, #8
    6a4c:	9305      	str	r3, [sp, #20]
    6a4e:	696a      	ldr	r2, [r5, #20]
    6a50:	9904      	ldr	r1, [sp, #16]
    6a52:	1853      	adds	r3, r2, r1
    6a54:	616b      	str	r3, [r5, #20]
    6a56:	9c03      	ldr	r4, [sp, #12]
    6a58:	7823      	ldrb	r3, [r4, #0]
    6a5a:	2b00      	cmp	r3, #0
    6a5c:	d104      	bne.n	6a68 <_vfiprintf_r+0xdc>
    6a5e:	9903      	ldr	r1, [sp, #12]
    6a60:	1a61      	subs	r1, r4, r1
    6a62:	9102      	str	r1, [sp, #8]
    6a64:	d010      	beq.n	6a88 <_vfiprintf_r+0xfc>
    6a66:	e003      	b.n	6a70 <_vfiprintf_r+0xe4>
    6a68:	2b25      	cmp	r3, #37	; 0x25
    6a6a:	d0f8      	beq.n	6a5e <_vfiprintf_r+0xd2>
    6a6c:	3401      	adds	r4, #1
    6a6e:	e7f3      	b.n	6a58 <_vfiprintf_r+0xcc>
    6a70:	1c30      	adds	r0, r6, #0
    6a72:	1c39      	adds	r1, r7, #0
    6a74:	9a03      	ldr	r2, [sp, #12]
    6a76:	9b02      	ldr	r3, [sp, #8]
    6a78:	f7ff ff75 	bl	6966 <__sfputs_r>
    6a7c:	3001      	adds	r0, #1
    6a7e:	d075      	beq.n	6b6c <_vfiprintf_r+0x1e0>
    6a80:	696a      	ldr	r2, [r5, #20]
    6a82:	9902      	ldr	r1, [sp, #8]
    6a84:	1853      	adds	r3, r2, r1
    6a86:	616b      	str	r3, [r5, #20]
    6a88:	7823      	ldrb	r3, [r4, #0]
    6a8a:	2b00      	cmp	r3, #0
    6a8c:	d06e      	beq.n	6b6c <_vfiprintf_r+0x1e0>
    6a8e:	2201      	movs	r2, #1
    6a90:	4252      	negs	r2, r2
    6a92:	606a      	str	r2, [r5, #4]
    6a94:	466a      	mov	r2, sp
    6a96:	2300      	movs	r3, #0
    6a98:	325b      	adds	r2, #91	; 0x5b
    6a9a:	3401      	adds	r4, #1
    6a9c:	602b      	str	r3, [r5, #0]
    6a9e:	60eb      	str	r3, [r5, #12]
    6aa0:	60ab      	str	r3, [r5, #8]
    6aa2:	7013      	strb	r3, [r2, #0]
    6aa4:	65ab      	str	r3, [r5, #88]	; 0x58
    6aa6:	7821      	ldrb	r1, [r4, #0]
    6aa8:	483a      	ldr	r0, [pc, #232]	; (6b94 <_vfiprintf_r+0x208>)
    6aaa:	2205      	movs	r2, #5
    6aac:	f7ff f9d6 	bl	5e5c <memchr>
    6ab0:	2800      	cmp	r0, #0
    6ab2:	d008      	beq.n	6ac6 <_vfiprintf_r+0x13a>
    6ab4:	4a37      	ldr	r2, [pc, #220]	; (6b94 <_vfiprintf_r+0x208>)
    6ab6:	3401      	adds	r4, #1
    6ab8:	1a83      	subs	r3, r0, r2
    6aba:	2001      	movs	r0, #1
    6abc:	4098      	lsls	r0, r3
    6abe:	682b      	ldr	r3, [r5, #0]
    6ac0:	4318      	orrs	r0, r3
    6ac2:	6028      	str	r0, [r5, #0]
    6ac4:	e7ef      	b.n	6aa6 <_vfiprintf_r+0x11a>
    6ac6:	682b      	ldr	r3, [r5, #0]
    6ac8:	06d9      	lsls	r1, r3, #27
    6aca:	d503      	bpl.n	6ad4 <_vfiprintf_r+0x148>
    6acc:	466a      	mov	r2, sp
    6ace:	2120      	movs	r1, #32
    6ad0:	325b      	adds	r2, #91	; 0x5b
    6ad2:	7011      	strb	r1, [r2, #0]
    6ad4:	071a      	lsls	r2, r3, #28
    6ad6:	d503      	bpl.n	6ae0 <_vfiprintf_r+0x154>
    6ad8:	466a      	mov	r2, sp
    6ada:	212b      	movs	r1, #43	; 0x2b
    6adc:	325b      	adds	r2, #91	; 0x5b
    6ade:	7011      	strb	r1, [r2, #0]
    6ae0:	7822      	ldrb	r2, [r4, #0]
    6ae2:	2a2a      	cmp	r2, #42	; 0x2a
    6ae4:	d084      	beq.n	69f0 <_vfiprintf_r+0x64>
    6ae6:	9b09      	ldr	r3, [sp, #36]	; 0x24
    6ae8:	e005      	b.n	6af6 <_vfiprintf_r+0x16a>
    6aea:	4252      	negs	r2, r2
    6aec:	60ea      	str	r2, [r5, #12]
    6aee:	2202      	movs	r2, #2
    6af0:	4313      	orrs	r3, r2
    6af2:	602b      	str	r3, [r5, #0]
    6af4:	e783      	b.n	69fe <_vfiprintf_r+0x72>
    6af6:	7822      	ldrb	r2, [r4, #0]
    6af8:	3a30      	subs	r2, #48	; 0x30
    6afa:	2a09      	cmp	r2, #9
    6afc:	d804      	bhi.n	6b08 <_vfiprintf_r+0x17c>
    6afe:	210a      	movs	r1, #10
    6b00:	434b      	muls	r3, r1
    6b02:	3401      	adds	r4, #1
    6b04:	189b      	adds	r3, r3, r2
    6b06:	e7f6      	b.n	6af6 <_vfiprintf_r+0x16a>
    6b08:	9309      	str	r3, [sp, #36]	; 0x24
    6b0a:	e779      	b.n	6a00 <_vfiprintf_r+0x74>
    6b0c:	7863      	ldrb	r3, [r4, #1]
    6b0e:	2b2a      	cmp	r3, #42	; 0x2a
    6b10:	d109      	bne.n	6b26 <_vfiprintf_r+0x19a>
    6b12:	9b05      	ldr	r3, [sp, #20]
    6b14:	3402      	adds	r4, #2
    6b16:	1d1a      	adds	r2, r3, #4
    6b18:	681b      	ldr	r3, [r3, #0]
    6b1a:	9205      	str	r2, [sp, #20]
    6b1c:	2b00      	cmp	r3, #0
    6b1e:	da0d      	bge.n	6b3c <_vfiprintf_r+0x1b0>
    6b20:	2301      	movs	r3, #1
    6b22:	425b      	negs	r3, r3
    6b24:	e00a      	b.n	6b3c <_vfiprintf_r+0x1b0>
    6b26:	3401      	adds	r4, #1
    6b28:	2300      	movs	r3, #0
    6b2a:	7822      	ldrb	r2, [r4, #0]
    6b2c:	3a30      	subs	r2, #48	; 0x30
    6b2e:	2a09      	cmp	r2, #9
    6b30:	d804      	bhi.n	6b3c <_vfiprintf_r+0x1b0>
    6b32:	210a      	movs	r1, #10
    6b34:	434b      	muls	r3, r1
    6b36:	3401      	adds	r4, #1
    6b38:	189b      	adds	r3, r3, r2
    6b3a:	e7f6      	b.n	6b2a <_vfiprintf_r+0x19e>
    6b3c:	9307      	str	r3, [sp, #28]
    6b3e:	e763      	b.n	6a08 <_vfiprintf_r+0x7c>
    6b40:	ab05      	add	r3, sp, #20
    6b42:	9300      	str	r3, [sp, #0]
    6b44:	1c30      	adds	r0, r6, #0
    6b46:	1c29      	adds	r1, r5, #0
    6b48:	1c3a      	adds	r2, r7, #0
    6b4a:	4b13      	ldr	r3, [pc, #76]	; (6b98 <_vfiprintf_r+0x20c>)
    6b4c:	e000      	b.n	6b50 <_vfiprintf_r+0x1c4>
    6b4e:	bf00      	nop
    6b50:	e007      	b.n	6b62 <_vfiprintf_r+0x1d6>
    6b52:	ab05      	add	r3, sp, #20
    6b54:	9300      	str	r3, [sp, #0]
    6b56:	1c30      	adds	r0, r6, #0
    6b58:	1c29      	adds	r1, r5, #0
    6b5a:	1c3a      	adds	r2, r7, #0
    6b5c:	4b0e      	ldr	r3, [pc, #56]	; (6b98 <_vfiprintf_r+0x20c>)
    6b5e:	f000 f89f 	bl	6ca0 <_printf_i>
    6b62:	9004      	str	r0, [sp, #16]
    6b64:	9904      	ldr	r1, [sp, #16]
    6b66:	3101      	adds	r1, #1
    6b68:	d000      	beq.n	6b6c <_vfiprintf_r+0x1e0>
    6b6a:	e770      	b.n	6a4e <_vfiprintf_r+0xc2>
    6b6c:	89bb      	ldrh	r3, [r7, #12]
    6b6e:	065a      	lsls	r2, r3, #25
    6b70:	d500      	bpl.n	6b74 <_vfiprintf_r+0x1e8>
    6b72:	e73a      	b.n	69ea <_vfiprintf_r+0x5e>
    6b74:	980b      	ldr	r0, [sp, #44]	; 0x2c
    6b76:	b01f      	add	sp, #124	; 0x7c
    6b78:	bdf0      	pop	{r4, r5, r6, r7, pc}
    6b7a:	46c0      	nop			; (mov r8, r8)
    6b7c:	00007bd0 	.word	0x00007bd0
    6b80:	00007bf0 	.word	0x00007bf0
    6b84:	00007c10 	.word	0x00007c10
    6b88:	00007c3e 	.word	0x00007c3e
    6b8c:	00007c42 	.word	0x00007c42
    6b90:	00000000 	.word	0x00000000
    6b94:	00007c38 	.word	0x00007c38
    6b98:	00006967 	.word	0x00006967

00006b9c <vfiprintf>:
    6b9c:	b538      	push	{r3, r4, r5, lr}
    6b9e:	1c13      	adds	r3, r2, #0
    6ba0:	4a04      	ldr	r2, [pc, #16]	; (6bb4 <vfiprintf+0x18>)
    6ba2:	1c05      	adds	r5, r0, #0
    6ba4:	1c0c      	adds	r4, r1, #0
    6ba6:	6810      	ldr	r0, [r2, #0]
    6ba8:	1c29      	adds	r1, r5, #0
    6baa:	1c22      	adds	r2, r4, #0
    6bac:	f7ff feee 	bl	698c <_vfiprintf_r>
    6bb0:	bd38      	pop	{r3, r4, r5, pc}
    6bb2:	46c0      	nop			; (mov r8, r8)
    6bb4:	10000130 	.word	0x10000130

00006bb8 <_printf_common>:
    6bb8:	b5f7      	push	{r0, r1, r2, r4, r5, r6, r7, lr}
    6bba:	1c15      	adds	r5, r2, #0
    6bbc:	9301      	str	r3, [sp, #4]
    6bbe:	690a      	ldr	r2, [r1, #16]
    6bc0:	688b      	ldr	r3, [r1, #8]
    6bc2:	1c06      	adds	r6, r0, #0
    6bc4:	1c0c      	adds	r4, r1, #0
    6bc6:	4293      	cmp	r3, r2
    6bc8:	da00      	bge.n	6bcc <_printf_common+0x14>
    6bca:	1c13      	adds	r3, r2, #0
    6bcc:	1c22      	adds	r2, r4, #0
    6bce:	602b      	str	r3, [r5, #0]
    6bd0:	3243      	adds	r2, #67	; 0x43
    6bd2:	7812      	ldrb	r2, [r2, #0]
    6bd4:	2a00      	cmp	r2, #0
    6bd6:	d001      	beq.n	6bdc <_printf_common+0x24>
    6bd8:	3301      	adds	r3, #1
    6bda:	602b      	str	r3, [r5, #0]
    6bdc:	6820      	ldr	r0, [r4, #0]
    6bde:	0680      	lsls	r0, r0, #26
    6be0:	d502      	bpl.n	6be8 <_printf_common+0x30>
    6be2:	682b      	ldr	r3, [r5, #0]
    6be4:	3302      	adds	r3, #2
    6be6:	602b      	str	r3, [r5, #0]
    6be8:	6821      	ldr	r1, [r4, #0]
    6bea:	2706      	movs	r7, #6
    6bec:	400f      	ands	r7, r1
    6bee:	d01f      	beq.n	6c30 <_printf_common+0x78>
    6bf0:	1c23      	adds	r3, r4, #0
    6bf2:	3343      	adds	r3, #67	; 0x43
    6bf4:	781b      	ldrb	r3, [r3, #0]
    6bf6:	1e5a      	subs	r2, r3, #1
    6bf8:	4193      	sbcs	r3, r2
    6bfa:	6822      	ldr	r2, [r4, #0]
    6bfc:	0692      	lsls	r2, r2, #26
    6bfe:	d51f      	bpl.n	6c40 <_printf_common+0x88>
    6c00:	18e1      	adds	r1, r4, r3
    6c02:	3140      	adds	r1, #64	; 0x40
    6c04:	2030      	movs	r0, #48	; 0x30
    6c06:	70c8      	strb	r0, [r1, #3]
    6c08:	1c21      	adds	r1, r4, #0
    6c0a:	1c5a      	adds	r2, r3, #1
    6c0c:	3145      	adds	r1, #69	; 0x45
    6c0e:	7809      	ldrb	r1, [r1, #0]
    6c10:	18a2      	adds	r2, r4, r2
    6c12:	3240      	adds	r2, #64	; 0x40
    6c14:	3302      	adds	r3, #2
    6c16:	70d1      	strb	r1, [r2, #3]
    6c18:	e012      	b.n	6c40 <_printf_common+0x88>
    6c1a:	1c22      	adds	r2, r4, #0
    6c1c:	1c30      	adds	r0, r6, #0
    6c1e:	9901      	ldr	r1, [sp, #4]
    6c20:	3219      	adds	r2, #25
    6c22:	2301      	movs	r3, #1
    6c24:	9f08      	ldr	r7, [sp, #32]
    6c26:	47b8      	blx	r7
    6c28:	3001      	adds	r0, #1
    6c2a:	d011      	beq.n	6c50 <_printf_common+0x98>
    6c2c:	9f00      	ldr	r7, [sp, #0]
    6c2e:	3701      	adds	r7, #1
    6c30:	9700      	str	r7, [sp, #0]
    6c32:	68e0      	ldr	r0, [r4, #12]
    6c34:	6829      	ldr	r1, [r5, #0]
    6c36:	9f00      	ldr	r7, [sp, #0]
    6c38:	1a43      	subs	r3, r0, r1
    6c3a:	429f      	cmp	r7, r3
    6c3c:	dbed      	blt.n	6c1a <_printf_common+0x62>
    6c3e:	e7d7      	b.n	6bf0 <_printf_common+0x38>
    6c40:	1c22      	adds	r2, r4, #0
    6c42:	1c30      	adds	r0, r6, #0
    6c44:	9901      	ldr	r1, [sp, #4]
    6c46:	3243      	adds	r2, #67	; 0x43
    6c48:	9f08      	ldr	r7, [sp, #32]
    6c4a:	47b8      	blx	r7
    6c4c:	3001      	adds	r0, #1
    6c4e:	d102      	bne.n	6c56 <_printf_common+0x9e>
    6c50:	2001      	movs	r0, #1
    6c52:	4240      	negs	r0, r0
    6c54:	e023      	b.n	6c9e <_printf_common+0xe6>
    6c56:	6820      	ldr	r0, [r4, #0]
    6c58:	2106      	movs	r1, #6
    6c5a:	682b      	ldr	r3, [r5, #0]
    6c5c:	68e2      	ldr	r2, [r4, #12]
    6c5e:	4001      	ands	r1, r0
    6c60:	2500      	movs	r5, #0
    6c62:	2904      	cmp	r1, #4
    6c64:	d103      	bne.n	6c6e <_printf_common+0xb6>
    6c66:	1ad5      	subs	r5, r2, r3
    6c68:	43eb      	mvns	r3, r5
    6c6a:	17db      	asrs	r3, r3, #31
    6c6c:	401d      	ands	r5, r3
    6c6e:	68a2      	ldr	r2, [r4, #8]
    6c70:	6923      	ldr	r3, [r4, #16]
    6c72:	429a      	cmp	r2, r3
    6c74:	dd01      	ble.n	6c7a <_printf_common+0xc2>
    6c76:	1ad3      	subs	r3, r2, r3
    6c78:	18ed      	adds	r5, r5, r3
    6c7a:	2700      	movs	r7, #0
    6c7c:	9700      	str	r7, [sp, #0]
    6c7e:	9f00      	ldr	r7, [sp, #0]
    6c80:	42af      	cmp	r7, r5
    6c82:	da0b      	bge.n	6c9c <_printf_common+0xe4>
    6c84:	1c22      	adds	r2, r4, #0
    6c86:	1c30      	adds	r0, r6, #0
    6c88:	9901      	ldr	r1, [sp, #4]
    6c8a:	321a      	adds	r2, #26
    6c8c:	2301      	movs	r3, #1
    6c8e:	9f08      	ldr	r7, [sp, #32]
    6c90:	47b8      	blx	r7
    6c92:	3001      	adds	r0, #1
    6c94:	d0dc      	beq.n	6c50 <_printf_common+0x98>
    6c96:	9f00      	ldr	r7, [sp, #0]
    6c98:	3701      	adds	r7, #1
    6c9a:	e7ef      	b.n	6c7c <_printf_common+0xc4>
    6c9c:	2000      	movs	r0, #0
    6c9e:	bdfe      	pop	{r1, r2, r3, r4, r5, r6, r7, pc}

00006ca0 <_printf_i>:
    6ca0:	b5f0      	push	{r4, r5, r6, r7, lr}
    6ca2:	1c0d      	adds	r5, r1, #0
    6ca4:	b08b      	sub	sp, #44	; 0x2c
    6ca6:	3543      	adds	r5, #67	; 0x43
    6ca8:	9206      	str	r2, [sp, #24]
    6caa:	9005      	str	r0, [sp, #20]
    6cac:	9307      	str	r3, [sp, #28]
    6cae:	9504      	str	r5, [sp, #16]
    6cb0:	7e0b      	ldrb	r3, [r1, #24]
    6cb2:	1c0c      	adds	r4, r1, #0
    6cb4:	9a10      	ldr	r2, [sp, #64]	; 0x40
    6cb6:	2b6e      	cmp	r3, #110	; 0x6e
    6cb8:	d100      	bne.n	6cbc <_printf_i+0x1c>
    6cba:	e0a7      	b.n	6e0c <_printf_i+0x16c>
    6cbc:	d811      	bhi.n	6ce2 <_printf_i+0x42>
    6cbe:	2b63      	cmp	r3, #99	; 0x63
    6cc0:	d022      	beq.n	6d08 <_printf_i+0x68>
    6cc2:	d809      	bhi.n	6cd8 <_printf_i+0x38>
    6cc4:	2b00      	cmp	r3, #0
    6cc6:	d100      	bne.n	6cca <_printf_i+0x2a>
    6cc8:	e0b0      	b.n	6e2c <_printf_i+0x18c>
    6cca:	2b58      	cmp	r3, #88	; 0x58
    6ccc:	d000      	beq.n	6cd0 <_printf_i+0x30>
    6cce:	e0c0      	b.n	6e52 <_printf_i+0x1b2>
    6cd0:	3145      	adds	r1, #69	; 0x45
    6cd2:	700b      	strb	r3, [r1, #0]
    6cd4:	4d7b      	ldr	r5, [pc, #492]	; (6ec4 <_printf_i+0x224>)
    6cd6:	e04e      	b.n	6d76 <_printf_i+0xd6>
    6cd8:	2b64      	cmp	r3, #100	; 0x64
    6cda:	d01c      	beq.n	6d16 <_printf_i+0x76>
    6cdc:	2b69      	cmp	r3, #105	; 0x69
    6cde:	d01a      	beq.n	6d16 <_printf_i+0x76>
    6ce0:	e0b7      	b.n	6e52 <_printf_i+0x1b2>
    6ce2:	2b73      	cmp	r3, #115	; 0x73
    6ce4:	d100      	bne.n	6ce8 <_printf_i+0x48>
    6ce6:	e0a5      	b.n	6e34 <_printf_i+0x194>
    6ce8:	d809      	bhi.n	6cfe <_printf_i+0x5e>
    6cea:	2b6f      	cmp	r3, #111	; 0x6f
    6cec:	d029      	beq.n	6d42 <_printf_i+0xa2>
    6cee:	2b70      	cmp	r3, #112	; 0x70
    6cf0:	d000      	beq.n	6cf4 <_printf_i+0x54>
    6cf2:	e0ae      	b.n	6e52 <_printf_i+0x1b2>
    6cf4:	680e      	ldr	r6, [r1, #0]
    6cf6:	2320      	movs	r3, #32
    6cf8:	4333      	orrs	r3, r6
    6cfa:	600b      	str	r3, [r1, #0]
    6cfc:	e036      	b.n	6d6c <_printf_i+0xcc>
    6cfe:	2b75      	cmp	r3, #117	; 0x75
    6d00:	d01f      	beq.n	6d42 <_printf_i+0xa2>
    6d02:	2b78      	cmp	r3, #120	; 0x78
    6d04:	d032      	beq.n	6d6c <_printf_i+0xcc>
    6d06:	e0a4      	b.n	6e52 <_printf_i+0x1b2>
    6d08:	6813      	ldr	r3, [r2, #0]
    6d0a:	1c0d      	adds	r5, r1, #0
    6d0c:	1d19      	adds	r1, r3, #4
    6d0e:	3542      	adds	r5, #66	; 0x42
    6d10:	6011      	str	r1, [r2, #0]
    6d12:	681b      	ldr	r3, [r3, #0]
    6d14:	e09f      	b.n	6e56 <_printf_i+0x1b6>
    6d16:	6821      	ldr	r1, [r4, #0]
    6d18:	6813      	ldr	r3, [r2, #0]
    6d1a:	060e      	lsls	r6, r1, #24
    6d1c:	d503      	bpl.n	6d26 <_printf_i+0x86>
    6d1e:	1d19      	adds	r1, r3, #4
    6d20:	6011      	str	r1, [r2, #0]
    6d22:	681e      	ldr	r6, [r3, #0]
    6d24:	e005      	b.n	6d32 <_printf_i+0x92>
    6d26:	0648      	lsls	r0, r1, #25
    6d28:	d5f9      	bpl.n	6d1e <_printf_i+0x7e>
    6d2a:	1d19      	adds	r1, r3, #4
    6d2c:	6011      	str	r1, [r2, #0]
    6d2e:	2100      	movs	r1, #0
    6d30:	5e5e      	ldrsh	r6, [r3, r1]
    6d32:	4b64      	ldr	r3, [pc, #400]	; (6ec4 <_printf_i+0x224>)
    6d34:	2e00      	cmp	r6, #0
    6d36:	da3b      	bge.n	6db0 <_printf_i+0x110>
    6d38:	9d04      	ldr	r5, [sp, #16]
    6d3a:	222d      	movs	r2, #45	; 0x2d
    6d3c:	4276      	negs	r6, r6
    6d3e:	702a      	strb	r2, [r5, #0]
    6d40:	e036      	b.n	6db0 <_printf_i+0x110>
    6d42:	6821      	ldr	r1, [r4, #0]
    6d44:	6813      	ldr	r3, [r2, #0]
    6d46:	060e      	lsls	r6, r1, #24
    6d48:	d503      	bpl.n	6d52 <_printf_i+0xb2>
    6d4a:	1d19      	adds	r1, r3, #4
    6d4c:	6011      	str	r1, [r2, #0]
    6d4e:	681e      	ldr	r6, [r3, #0]
    6d50:	e004      	b.n	6d5c <_printf_i+0xbc>
    6d52:	0648      	lsls	r0, r1, #25
    6d54:	d5f9      	bpl.n	6d4a <_printf_i+0xaa>
    6d56:	1d19      	adds	r1, r3, #4
    6d58:	881e      	ldrh	r6, [r3, #0]
    6d5a:	6011      	str	r1, [r2, #0]
    6d5c:	4b59      	ldr	r3, [pc, #356]	; (6ec4 <_printf_i+0x224>)
    6d5e:	7e22      	ldrb	r2, [r4, #24]
    6d60:	9303      	str	r3, [sp, #12]
    6d62:	2708      	movs	r7, #8
    6d64:	2a6f      	cmp	r2, #111	; 0x6f
    6d66:	d01e      	beq.n	6da6 <_printf_i+0x106>
    6d68:	270a      	movs	r7, #10
    6d6a:	e01c      	b.n	6da6 <_printf_i+0x106>
    6d6c:	1c23      	adds	r3, r4, #0
    6d6e:	2178      	movs	r1, #120	; 0x78
    6d70:	3345      	adds	r3, #69	; 0x45
    6d72:	4d55      	ldr	r5, [pc, #340]	; (6ec8 <_printf_i+0x228>)
    6d74:	7019      	strb	r1, [r3, #0]
    6d76:	6811      	ldr	r1, [r2, #0]
    6d78:	6823      	ldr	r3, [r4, #0]
    6d7a:	1d08      	adds	r0, r1, #4
    6d7c:	9503      	str	r5, [sp, #12]
    6d7e:	6010      	str	r0, [r2, #0]
    6d80:	061e      	lsls	r6, r3, #24
    6d82:	d501      	bpl.n	6d88 <_printf_i+0xe8>
    6d84:	680e      	ldr	r6, [r1, #0]
    6d86:	e002      	b.n	6d8e <_printf_i+0xee>
    6d88:	0658      	lsls	r0, r3, #25
    6d8a:	d5fb      	bpl.n	6d84 <_printf_i+0xe4>
    6d8c:	880e      	ldrh	r6, [r1, #0]
    6d8e:	07d9      	lsls	r1, r3, #31
    6d90:	d502      	bpl.n	6d98 <_printf_i+0xf8>
    6d92:	2220      	movs	r2, #32
    6d94:	4313      	orrs	r3, r2
    6d96:	6023      	str	r3, [r4, #0]
    6d98:	2710      	movs	r7, #16
    6d9a:	2e00      	cmp	r6, #0
    6d9c:	d103      	bne.n	6da6 <_printf_i+0x106>
    6d9e:	6822      	ldr	r2, [r4, #0]
    6da0:	2320      	movs	r3, #32
    6da2:	439a      	bics	r2, r3
    6da4:	6022      	str	r2, [r4, #0]
    6da6:	1c23      	adds	r3, r4, #0
    6da8:	2200      	movs	r2, #0
    6daa:	3343      	adds	r3, #67	; 0x43
    6dac:	701a      	strb	r2, [r3, #0]
    6dae:	e001      	b.n	6db4 <_printf_i+0x114>
    6db0:	9303      	str	r3, [sp, #12]
    6db2:	270a      	movs	r7, #10
    6db4:	6863      	ldr	r3, [r4, #4]
    6db6:	60a3      	str	r3, [r4, #8]
    6db8:	2b00      	cmp	r3, #0
    6dba:	db03      	blt.n	6dc4 <_printf_i+0x124>
    6dbc:	6825      	ldr	r5, [r4, #0]
    6dbe:	2204      	movs	r2, #4
    6dc0:	4395      	bics	r5, r2
    6dc2:	6025      	str	r5, [r4, #0]
    6dc4:	2e00      	cmp	r6, #0
    6dc6:	d102      	bne.n	6dce <_printf_i+0x12e>
    6dc8:	9d04      	ldr	r5, [sp, #16]
    6dca:	2b00      	cmp	r3, #0
    6dcc:	d00e      	beq.n	6dec <_printf_i+0x14c>
    6dce:	9d04      	ldr	r5, [sp, #16]
    6dd0:	1c30      	adds	r0, r6, #0
    6dd2:	1c39      	adds	r1, r7, #0
    6dd4:	f7fb ff0c 	bl	2bf0 <__aeabi_uidivmod>
    6dd8:	9803      	ldr	r0, [sp, #12]
    6dda:	3d01      	subs	r5, #1
    6ddc:	5c43      	ldrb	r3, [r0, r1]
    6dde:	1c30      	adds	r0, r6, #0
    6de0:	702b      	strb	r3, [r5, #0]
    6de2:	1c39      	adds	r1, r7, #0
    6de4:	f7fb fec0 	bl	2b68 <__aeabi_uidiv>
    6de8:	1e06      	subs	r6, r0, #0
    6dea:	d1f1      	bne.n	6dd0 <_printf_i+0x130>
    6dec:	2f08      	cmp	r7, #8
    6dee:	d109      	bne.n	6e04 <_printf_i+0x164>
    6df0:	6821      	ldr	r1, [r4, #0]
    6df2:	07c9      	lsls	r1, r1, #31
    6df4:	d506      	bpl.n	6e04 <_printf_i+0x164>
    6df6:	6862      	ldr	r2, [r4, #4]
    6df8:	6923      	ldr	r3, [r4, #16]
    6dfa:	429a      	cmp	r2, r3
    6dfc:	dc02      	bgt.n	6e04 <_printf_i+0x164>
    6dfe:	3d01      	subs	r5, #1
    6e00:	2330      	movs	r3, #48	; 0x30
    6e02:	702b      	strb	r3, [r5, #0]
    6e04:	9e04      	ldr	r6, [sp, #16]
    6e06:	1b73      	subs	r3, r6, r5
    6e08:	6123      	str	r3, [r4, #16]
    6e0a:	e02a      	b.n	6e62 <_printf_i+0x1c2>
    6e0c:	6808      	ldr	r0, [r1, #0]
    6e0e:	6813      	ldr	r3, [r2, #0]
    6e10:	6949      	ldr	r1, [r1, #20]
    6e12:	0605      	lsls	r5, r0, #24
    6e14:	d504      	bpl.n	6e20 <_printf_i+0x180>
    6e16:	1d18      	adds	r0, r3, #4
    6e18:	6010      	str	r0, [r2, #0]
    6e1a:	681b      	ldr	r3, [r3, #0]
    6e1c:	6019      	str	r1, [r3, #0]
    6e1e:	e005      	b.n	6e2c <_printf_i+0x18c>
    6e20:	0646      	lsls	r6, r0, #25
    6e22:	d5f8      	bpl.n	6e16 <_printf_i+0x176>
    6e24:	1d18      	adds	r0, r3, #4
    6e26:	6010      	str	r0, [r2, #0]
    6e28:	681b      	ldr	r3, [r3, #0]
    6e2a:	8019      	strh	r1, [r3, #0]
    6e2c:	2300      	movs	r3, #0
    6e2e:	6123      	str	r3, [r4, #16]
    6e30:	9d04      	ldr	r5, [sp, #16]
    6e32:	e016      	b.n	6e62 <_printf_i+0x1c2>
    6e34:	6813      	ldr	r3, [r2, #0]
    6e36:	1d19      	adds	r1, r3, #4
    6e38:	6011      	str	r1, [r2, #0]
    6e3a:	681d      	ldr	r5, [r3, #0]
    6e3c:	1c28      	adds	r0, r5, #0
    6e3e:	f7ff fa1d 	bl	627c <strlen>
    6e42:	6863      	ldr	r3, [r4, #4]
    6e44:	6120      	str	r0, [r4, #16]
    6e46:	4298      	cmp	r0, r3
    6e48:	d900      	bls.n	6e4c <_printf_i+0x1ac>
    6e4a:	6123      	str	r3, [r4, #16]
    6e4c:	6920      	ldr	r0, [r4, #16]
    6e4e:	6060      	str	r0, [r4, #4]
    6e50:	e004      	b.n	6e5c <_printf_i+0x1bc>
    6e52:	1c25      	adds	r5, r4, #0
    6e54:	3542      	adds	r5, #66	; 0x42
    6e56:	702b      	strb	r3, [r5, #0]
    6e58:	2301      	movs	r3, #1
    6e5a:	6123      	str	r3, [r4, #16]
    6e5c:	9e04      	ldr	r6, [sp, #16]
    6e5e:	2300      	movs	r3, #0
    6e60:	7033      	strb	r3, [r6, #0]
    6e62:	9e07      	ldr	r6, [sp, #28]
    6e64:	9805      	ldr	r0, [sp, #20]
    6e66:	9600      	str	r6, [sp, #0]
    6e68:	1c21      	adds	r1, r4, #0
    6e6a:	aa09      	add	r2, sp, #36	; 0x24
    6e6c:	9b06      	ldr	r3, [sp, #24]
    6e6e:	f7ff fea3 	bl	6bb8 <_printf_common>
    6e72:	3001      	adds	r0, #1
    6e74:	d102      	bne.n	6e7c <_printf_i+0x1dc>
    6e76:	2001      	movs	r0, #1
    6e78:	4240      	negs	r0, r0
    6e7a:	e021      	b.n	6ec0 <_printf_i+0x220>
    6e7c:	1c2a      	adds	r2, r5, #0
    6e7e:	9805      	ldr	r0, [sp, #20]
    6e80:	9906      	ldr	r1, [sp, #24]
    6e82:	6923      	ldr	r3, [r4, #16]
    6e84:	9d07      	ldr	r5, [sp, #28]
    6e86:	47a8      	blx	r5
    6e88:	3001      	adds	r0, #1
    6e8a:	d0f4      	beq.n	6e76 <_printf_i+0x1d6>
    6e8c:	6826      	ldr	r6, [r4, #0]
    6e8e:	07b6      	lsls	r6, r6, #30
    6e90:	d405      	bmi.n	6e9e <_printf_i+0x1fe>
    6e92:	9b09      	ldr	r3, [sp, #36]	; 0x24
    6e94:	68e0      	ldr	r0, [r4, #12]
    6e96:	4298      	cmp	r0, r3
    6e98:	da12      	bge.n	6ec0 <_printf_i+0x220>
    6e9a:	1c18      	adds	r0, r3, #0
    6e9c:	e010      	b.n	6ec0 <_printf_i+0x220>
    6e9e:	2500      	movs	r5, #0
    6ea0:	68e0      	ldr	r0, [r4, #12]
    6ea2:	9909      	ldr	r1, [sp, #36]	; 0x24
    6ea4:	1a43      	subs	r3, r0, r1
    6ea6:	429d      	cmp	r5, r3
    6ea8:	daf3      	bge.n	6e92 <_printf_i+0x1f2>
    6eaa:	1c22      	adds	r2, r4, #0
    6eac:	9805      	ldr	r0, [sp, #20]
    6eae:	9906      	ldr	r1, [sp, #24]
    6eb0:	3219      	adds	r2, #25
    6eb2:	2301      	movs	r3, #1
    6eb4:	9e07      	ldr	r6, [sp, #28]
    6eb6:	47b0      	blx	r6
    6eb8:	3001      	adds	r0, #1
    6eba:	d0dc      	beq.n	6e76 <_printf_i+0x1d6>
    6ebc:	3501      	adds	r5, #1
    6ebe:	e7ef      	b.n	6ea0 <_printf_i+0x200>
    6ec0:	b00b      	add	sp, #44	; 0x2c
    6ec2:	bdf0      	pop	{r4, r5, r6, r7, pc}
    6ec4:	00007c49 	.word	0x00007c49
    6ec8:	00007c5a 	.word	0x00007c5a

00006ecc <_scanf_chars>:
    6ecc:	b5f7      	push	{r0, r1, r2, r4, r5, r6, r7, lr}
    6ece:	1c15      	adds	r5, r2, #0
    6ed0:	688a      	ldr	r2, [r1, #8]
    6ed2:	9001      	str	r0, [sp, #4]
    6ed4:	1c0c      	adds	r4, r1, #0
    6ed6:	2a00      	cmp	r2, #0
    6ed8:	d106      	bne.n	6ee8 <_scanf_chars+0x1c>
    6eda:	698a      	ldr	r2, [r1, #24]
    6edc:	1e51      	subs	r1, r2, #1
    6ede:	418a      	sbcs	r2, r1
    6ee0:	4252      	negs	r2, r2
    6ee2:	2101      	movs	r1, #1
    6ee4:	430a      	orrs	r2, r1
    6ee6:	60a2      	str	r2, [r4, #8]
    6ee8:	6822      	ldr	r2, [r4, #0]
    6eea:	06d2      	lsls	r2, r2, #27
    6eec:	d403      	bmi.n	6ef6 <_scanf_chars+0x2a>
    6eee:	681a      	ldr	r2, [r3, #0]
    6ef0:	1d11      	adds	r1, r2, #4
    6ef2:	6019      	str	r1, [r3, #0]
    6ef4:	6817      	ldr	r7, [r2, #0]
    6ef6:	2600      	movs	r6, #0
    6ef8:	69a0      	ldr	r0, [r4, #24]
    6efa:	2800      	cmp	r0, #0
    6efc:	d11d      	bne.n	6f3a <_scanf_chars+0x6e>
    6efe:	6823      	ldr	r3, [r4, #0]
    6f00:	3601      	adds	r6, #1
    6f02:	06db      	lsls	r3, r3, #27
    6f04:	d403      	bmi.n	6f0e <_scanf_chars+0x42>
    6f06:	682a      	ldr	r2, [r5, #0]
    6f08:	7813      	ldrb	r3, [r2, #0]
    6f0a:	703b      	strb	r3, [r7, #0]
    6f0c:	3701      	adds	r7, #1
    6f0e:	682a      	ldr	r2, [r5, #0]
    6f10:	686b      	ldr	r3, [r5, #4]
    6f12:	3201      	adds	r2, #1
    6f14:	602a      	str	r2, [r5, #0]
    6f16:	68a2      	ldr	r2, [r4, #8]
    6f18:	3b01      	subs	r3, #1
    6f1a:	3a01      	subs	r2, #1
    6f1c:	606b      	str	r3, [r5, #4]
    6f1e:	60a2      	str	r2, [r4, #8]
    6f20:	2a00      	cmp	r2, #0
    6f22:	d025      	beq.n	6f70 <_scanf_chars+0xa4>
    6f24:	2b00      	cmp	r3, #0
    6f26:	dce7      	bgt.n	6ef8 <_scanf_chars+0x2c>
    6f28:	23c0      	movs	r3, #192	; 0xc0
    6f2a:	005b      	lsls	r3, r3, #1
    6f2c:	58e3      	ldr	r3, [r4, r3]
    6f2e:	9801      	ldr	r0, [sp, #4]
    6f30:	1c29      	adds	r1, r5, #0
    6f32:	4798      	blx	r3
    6f34:	2800      	cmp	r0, #0
    6f36:	d0df      	beq.n	6ef8 <_scanf_chars+0x2c>
    6f38:	e01a      	b.n	6f70 <_scanf_chars+0xa4>
    6f3a:	2801      	cmp	r0, #1
    6f3c:	d108      	bne.n	6f50 <_scanf_chars+0x84>
    6f3e:	682a      	ldr	r2, [r5, #0]
    6f40:	7813      	ldrb	r3, [r2, #0]
    6f42:	6962      	ldr	r2, [r4, #20]
    6f44:	5cd3      	ldrb	r3, [r2, r3]
    6f46:	2b00      	cmp	r3, #0
    6f48:	d1d9      	bne.n	6efe <_scanf_chars+0x32>
    6f4a:	2e00      	cmp	r6, #0
    6f4c:	d01f      	beq.n	6f8e <_scanf_chars+0xc2>
    6f4e:	e00f      	b.n	6f70 <_scanf_chars+0xa4>
    6f50:	2802      	cmp	r0, #2
    6f52:	d002      	beq.n	6f5a <_scanf_chars+0x8e>
    6f54:	2e00      	cmp	r6, #0
    6f56:	d009      	beq.n	6f6c <_scanf_chars+0xa0>
    6f58:	e00a      	b.n	6f70 <_scanf_chars+0xa4>
    6f5a:	682a      	ldr	r2, [r5, #0]
    6f5c:	7813      	ldrb	r3, [r2, #0]
    6f5e:	4a0c      	ldr	r2, [pc, #48]	; (6f90 <_scanf_chars+0xc4>)
    6f60:	6812      	ldr	r2, [r2, #0]
    6f62:	18d3      	adds	r3, r2, r3
    6f64:	785b      	ldrb	r3, [r3, #1]
    6f66:	071a      	lsls	r2, r3, #28
    6f68:	d5c9      	bpl.n	6efe <_scanf_chars+0x32>
    6f6a:	e7f3      	b.n	6f54 <_scanf_chars+0x88>
    6f6c:	2801      	cmp	r0, #1
    6f6e:	d00e      	beq.n	6f8e <_scanf_chars+0xc2>
    6f70:	6822      	ldr	r2, [r4, #0]
    6f72:	2310      	movs	r3, #16
    6f74:	4013      	ands	r3, r2
    6f76:	d106      	bne.n	6f86 <_scanf_chars+0xba>
    6f78:	68e2      	ldr	r2, [r4, #12]
    6f7a:	3201      	adds	r2, #1
    6f7c:	60e2      	str	r2, [r4, #12]
    6f7e:	69a2      	ldr	r2, [r4, #24]
    6f80:	2a00      	cmp	r2, #0
    6f82:	d000      	beq.n	6f86 <_scanf_chars+0xba>
    6f84:	703b      	strb	r3, [r7, #0]
    6f86:	6923      	ldr	r3, [r4, #16]
    6f88:	2000      	movs	r0, #0
    6f8a:	199e      	adds	r6, r3, r6
    6f8c:	6126      	str	r6, [r4, #16]
    6f8e:	bdfe      	pop	{r1, r2, r3, r4, r5, r6, r7, pc}
    6f90:	10000134 	.word	0x10000134

00006f94 <_scanf_i>:
    6f94:	b5f0      	push	{r4, r5, r6, r7, lr}
    6f96:	1c15      	adds	r5, r2, #0
    6f98:	b08b      	sub	sp, #44	; 0x2c
    6f9a:	4a77      	ldr	r2, [pc, #476]	; (7178 <_scanf_i+0x1e4>)
    6f9c:	9004      	str	r0, [sp, #16]
    6f9e:	9302      	str	r3, [sp, #8]
    6fa0:	ab07      	add	r3, sp, #28
    6fa2:	cac1      	ldmia	r2!, {r0, r6, r7}
    6fa4:	c3c1      	stmia	r3!, {r0, r6, r7}
    6fa6:	6988      	ldr	r0, [r1, #24]
    6fa8:	1c0c      	adds	r4, r1, #0
    6faa:	2803      	cmp	r0, #3
    6fac:	d102      	bne.n	6fb4 <_scanf_i+0x20>
    6fae:	4e73      	ldr	r6, [pc, #460]	; (717c <_scanf_i+0x1e8>)
    6fb0:	9605      	str	r6, [sp, #20]
    6fb2:	e001      	b.n	6fb8 <_scanf_i+0x24>
    6fb4:	4f72      	ldr	r7, [pc, #456]	; (7180 <_scanf_i+0x1ec>)
    6fb6:	9705      	str	r7, [sp, #20]
    6fb8:	68a3      	ldr	r3, [r4, #8]
    6fba:	2600      	movs	r6, #0
    6fbc:	22ae      	movs	r2, #174	; 0xae
    6fbe:	1e59      	subs	r1, r3, #1
    6fc0:	9603      	str	r6, [sp, #12]
    6fc2:	0052      	lsls	r2, r2, #1
    6fc4:	4291      	cmp	r1, r2
    6fc6:	d905      	bls.n	6fd4 <_scanf_i+0x40>
    6fc8:	3b5e      	subs	r3, #94	; 0x5e
    6fca:	3bff      	subs	r3, #255	; 0xff
    6fcc:	9303      	str	r3, [sp, #12]
    6fce:	235e      	movs	r3, #94	; 0x5e
    6fd0:	33ff      	adds	r3, #255	; 0xff
    6fd2:	60a3      	str	r3, [r4, #8]
    6fd4:	6820      	ldr	r0, [r4, #0]
    6fd6:	23d0      	movs	r3, #208	; 0xd0
    6fd8:	1c27      	adds	r7, r4, #0
    6fda:	011b      	lsls	r3, r3, #4
    6fdc:	371c      	adds	r7, #28
    6fde:	4303      	orrs	r3, r0
    6fe0:	9701      	str	r7, [sp, #4]
    6fe2:	9700      	str	r7, [sp, #0]
    6fe4:	6023      	str	r3, [r4, #0]
    6fe6:	2700      	movs	r7, #0
    6fe8:	aa07      	add	r2, sp, #28
    6fea:	00bb      	lsls	r3, r7, #2
    6fec:	5898      	ldr	r0, [r3, r2]
    6fee:	682a      	ldr	r2, [r5, #0]
    6ff0:	7811      	ldrb	r1, [r2, #0]
    6ff2:	2202      	movs	r2, #2
    6ff4:	f7fe ff32 	bl	5e5c <memchr>
    6ff8:	2800      	cmp	r0, #0
    6ffa:	d03a      	beq.n	7072 <_scanf_i+0xde>
    6ffc:	2f01      	cmp	r7, #1
    6ffe:	d10d      	bne.n	701c <_scanf_i+0x88>
    7000:	6863      	ldr	r3, [r4, #4]
    7002:	2b00      	cmp	r3, #0
    7004:	d106      	bne.n	7014 <_scanf_i+0x80>
    7006:	2308      	movs	r3, #8
    7008:	6826      	ldr	r6, [r4, #0]
    700a:	6063      	str	r3, [r4, #4]
    700c:	2380      	movs	r3, #128	; 0x80
    700e:	009b      	lsls	r3, r3, #2
    7010:	4333      	orrs	r3, r6
    7012:	6023      	str	r3, [r4, #0]
    7014:	4b5b      	ldr	r3, [pc, #364]	; (7184 <_scanf_i+0x1f0>)
    7016:	6820      	ldr	r0, [r4, #0]
    7018:	4003      	ands	r3, r0
    701a:	e00e      	b.n	703a <_scanf_i+0xa6>
    701c:	2f02      	cmp	r7, #2
    701e:	d10d      	bne.n	703c <_scanf_i+0xa8>
    7020:	6823      	ldr	r3, [r4, #0]
    7022:	21c0      	movs	r1, #192	; 0xc0
    7024:	00c9      	lsls	r1, r1, #3
    7026:	2280      	movs	r2, #128	; 0x80
    7028:	4019      	ands	r1, r3
    702a:	0092      	lsls	r2, r2, #2
    702c:	4291      	cmp	r1, r2
    702e:	d123      	bne.n	7078 <_scanf_i+0xe4>
    7030:	2210      	movs	r2, #16
    7032:	6062      	str	r2, [r4, #4]
    7034:	2280      	movs	r2, #128	; 0x80
    7036:	0052      	lsls	r2, r2, #1
    7038:	4313      	orrs	r3, r2
    703a:	6023      	str	r3, [r4, #0]
    703c:	68a3      	ldr	r3, [r4, #8]
    703e:	1e5a      	subs	r2, r3, #1
    7040:	60a2      	str	r2, [r4, #8]
    7042:	2b00      	cmp	r3, #0
    7044:	d015      	beq.n	7072 <_scanf_i+0xde>
    7046:	682b      	ldr	r3, [r5, #0]
    7048:	9900      	ldr	r1, [sp, #0]
    704a:	1c5a      	adds	r2, r3, #1
    704c:	602a      	str	r2, [r5, #0]
    704e:	781b      	ldrb	r3, [r3, #0]
    7050:	9e00      	ldr	r6, [sp, #0]
    7052:	700b      	strb	r3, [r1, #0]
    7054:	686b      	ldr	r3, [r5, #4]
    7056:	3601      	adds	r6, #1
    7058:	3b01      	subs	r3, #1
    705a:	606b      	str	r3, [r5, #4]
    705c:	9600      	str	r6, [sp, #0]
    705e:	2b00      	cmp	r3, #0
    7060:	dc07      	bgt.n	7072 <_scanf_i+0xde>
    7062:	23c0      	movs	r3, #192	; 0xc0
    7064:	005b      	lsls	r3, r3, #1
    7066:	58e3      	ldr	r3, [r4, r3]
    7068:	9804      	ldr	r0, [sp, #16]
    706a:	1c29      	adds	r1, r5, #0
    706c:	4798      	blx	r3
    706e:	2800      	cmp	r0, #0
    7070:	d143      	bne.n	70fa <_scanf_i+0x166>
    7072:	3701      	adds	r7, #1
    7074:	2f03      	cmp	r7, #3
    7076:	d1b7      	bne.n	6fe8 <_scanf_i+0x54>
    7078:	6862      	ldr	r2, [r4, #4]
    707a:	2a00      	cmp	r2, #0
    707c:	d101      	bne.n	7082 <_scanf_i+0xee>
    707e:	230a      	movs	r3, #10
    7080:	6063      	str	r3, [r4, #4]
    7082:	6863      	ldr	r3, [r4, #4]
    7084:	2110      	movs	r1, #16
    7086:	1ac9      	subs	r1, r1, r3
    7088:	4b3f      	ldr	r3, [pc, #252]	; (7188 <_scanf_i+0x1f4>)
    708a:	6960      	ldr	r0, [r4, #20]
    708c:	18c9      	adds	r1, r1, r3
    708e:	f000 fa33 	bl	74f8 <__sccl>
    7092:	9e00      	ldr	r6, [sp, #0]
    7094:	2700      	movs	r7, #0
    7096:	68a3      	ldr	r3, [r4, #8]
    7098:	2b00      	cmp	r3, #0
    709a:	d02f      	beq.n	70fc <_scanf_i+0x168>
    709c:	682a      	ldr	r2, [r5, #0]
    709e:	6961      	ldr	r1, [r4, #20]
    70a0:	7810      	ldrb	r0, [r2, #0]
    70a2:	5c09      	ldrb	r1, [r1, r0]
    70a4:	2900      	cmp	r1, #0
    70a6:	d029      	beq.n	70fc <_scanf_i+0x168>
    70a8:	6821      	ldr	r1, [r4, #0]
    70aa:	2830      	cmp	r0, #48	; 0x30
    70ac:	d10a      	bne.n	70c4 <_scanf_i+0x130>
    70ae:	0508      	lsls	r0, r1, #20
    70b0:	d508      	bpl.n	70c4 <_scanf_i+0x130>
    70b2:	9903      	ldr	r1, [sp, #12]
    70b4:	3701      	adds	r7, #1
    70b6:	2900      	cmp	r1, #0
    70b8:	d00a      	beq.n	70d0 <_scanf_i+0x13c>
    70ba:	3901      	subs	r1, #1
    70bc:	3301      	adds	r3, #1
    70be:	9103      	str	r1, [sp, #12]
    70c0:	60a3      	str	r3, [r4, #8]
    70c2:	e005      	b.n	70d0 <_scanf_i+0x13c>
    70c4:	4b31      	ldr	r3, [pc, #196]	; (718c <_scanf_i+0x1f8>)
    70c6:	4019      	ands	r1, r3
    70c8:	6021      	str	r1, [r4, #0]
    70ca:	7813      	ldrb	r3, [r2, #0]
    70cc:	7033      	strb	r3, [r6, #0]
    70ce:	3601      	adds	r6, #1
    70d0:	686b      	ldr	r3, [r5, #4]
    70d2:	3b01      	subs	r3, #1
    70d4:	606b      	str	r3, [r5, #4]
    70d6:	2b00      	cmp	r3, #0
    70d8:	dd03      	ble.n	70e2 <_scanf_i+0x14e>
    70da:	682b      	ldr	r3, [r5, #0]
    70dc:	3301      	adds	r3, #1
    70de:	602b      	str	r3, [r5, #0]
    70e0:	e007      	b.n	70f2 <_scanf_i+0x15e>
    70e2:	23c0      	movs	r3, #192	; 0xc0
    70e4:	005b      	lsls	r3, r3, #1
    70e6:	58e3      	ldr	r3, [r4, r3]
    70e8:	9804      	ldr	r0, [sp, #16]
    70ea:	1c29      	adds	r1, r5, #0
    70ec:	4798      	blx	r3
    70ee:	2800      	cmp	r0, #0
    70f0:	d104      	bne.n	70fc <_scanf_i+0x168>
    70f2:	68a3      	ldr	r3, [r4, #8]
    70f4:	3b01      	subs	r3, #1
    70f6:	60a3      	str	r3, [r4, #8]
    70f8:	e7cd      	b.n	7096 <_scanf_i+0x102>
    70fa:	2700      	movs	r7, #0
    70fc:	6822      	ldr	r2, [r4, #0]
    70fe:	05d2      	lsls	r2, r2, #23
    7100:	d50d      	bpl.n	711e <_scanf_i+0x18a>
    7102:	9b01      	ldr	r3, [sp, #4]
    7104:	429e      	cmp	r6, r3
    7106:	d907      	bls.n	7118 <_scanf_i+0x184>
    7108:	23be      	movs	r3, #190	; 0xbe
    710a:	3e01      	subs	r6, #1
    710c:	005b      	lsls	r3, r3, #1
    710e:	7831      	ldrb	r1, [r6, #0]
    7110:	58e3      	ldr	r3, [r4, r3]
    7112:	9804      	ldr	r0, [sp, #16]
    7114:	1c2a      	adds	r2, r5, #0
    7116:	4798      	blx	r3
    7118:	9d01      	ldr	r5, [sp, #4]
    711a:	42ae      	cmp	r6, r5
    711c:	d028      	beq.n	7170 <_scanf_i+0x1dc>
    711e:	6820      	ldr	r0, [r4, #0]
    7120:	2210      	movs	r2, #16
    7122:	4002      	ands	r2, r0
    7124:	d11c      	bne.n	7160 <_scanf_i+0x1cc>
    7126:	7032      	strb	r2, [r6, #0]
    7128:	6863      	ldr	r3, [r4, #4]
    712a:	9d05      	ldr	r5, [sp, #20]
    712c:	9804      	ldr	r0, [sp, #16]
    712e:	9901      	ldr	r1, [sp, #4]
    7130:	47a8      	blx	r5
    7132:	9d02      	ldr	r5, [sp, #8]
    7134:	6822      	ldr	r2, [r4, #0]
    7136:	682b      	ldr	r3, [r5, #0]
    7138:	0691      	lsls	r1, r2, #26
    713a:	d501      	bpl.n	7140 <_scanf_i+0x1ac>
    713c:	1d1a      	adds	r2, r3, #4
    713e:	e009      	b.n	7154 <_scanf_i+0x1c0>
    7140:	07d5      	lsls	r5, r2, #31
    7142:	d505      	bpl.n	7150 <_scanf_i+0x1bc>
    7144:	9d02      	ldr	r5, [sp, #8]
    7146:	1d1a      	adds	r2, r3, #4
    7148:	602a      	str	r2, [r5, #0]
    714a:	681b      	ldr	r3, [r3, #0]
    714c:	8018      	strh	r0, [r3, #0]
    714e:	e004      	b.n	715a <_scanf_i+0x1c6>
    7150:	9d02      	ldr	r5, [sp, #8]
    7152:	1d1a      	adds	r2, r3, #4
    7154:	602a      	str	r2, [r5, #0]
    7156:	681b      	ldr	r3, [r3, #0]
    7158:	6018      	str	r0, [r3, #0]
    715a:	68e3      	ldr	r3, [r4, #12]
    715c:	3301      	adds	r3, #1
    715e:	60e3      	str	r3, [r4, #12]
    7160:	9d01      	ldr	r5, [sp, #4]
    7162:	2000      	movs	r0, #0
    7164:	1b76      	subs	r6, r6, r5
    7166:	19f7      	adds	r7, r6, r7
    7168:	6926      	ldr	r6, [r4, #16]
    716a:	19f7      	adds	r7, r6, r7
    716c:	6127      	str	r7, [r4, #16]
    716e:	e000      	b.n	7172 <_scanf_i+0x1de>
    7170:	2001      	movs	r0, #1
    7172:	b00b      	add	sp, #44	; 0x2c
    7174:	bdf0      	pop	{r4, r5, r6, r7, pc}
    7176:	46c0      	nop			; (mov r8, r8)
    7178:	00007c6c 	.word	0x00007c6c
    717c:	00007561 	.word	0x00007561
    7180:	00007675 	.word	0x00007675
    7184:	fffffaff 	.word	0xfffffaff
    7188:	00007c78 	.word	0x00007c78
    718c:	fffff6ff 	.word	0xfffff6ff

00007190 <__swbuf_r>:
    7190:	b570      	push	{r4, r5, r6, lr}
    7192:	1c05      	adds	r5, r0, #0
    7194:	1c0e      	adds	r6, r1, #0
    7196:	1c14      	adds	r4, r2, #0
    7198:	2800      	cmp	r0, #0
    719a:	d004      	beq.n	71a6 <__swbuf_r+0x16>
    719c:	6982      	ldr	r2, [r0, #24]
    719e:	2a00      	cmp	r2, #0
    71a0:	d101      	bne.n	71a6 <__swbuf_r+0x16>
    71a2:	f7fe fc57 	bl	5a54 <__sinit>
    71a6:	4b23      	ldr	r3, [pc, #140]	; (7234 <__swbuf_r+0xa4>)
    71a8:	429c      	cmp	r4, r3
    71aa:	d101      	bne.n	71b0 <__swbuf_r+0x20>
    71ac:	686c      	ldr	r4, [r5, #4]
    71ae:	e008      	b.n	71c2 <__swbuf_r+0x32>
    71b0:	4b21      	ldr	r3, [pc, #132]	; (7238 <__swbuf_r+0xa8>)
    71b2:	429c      	cmp	r4, r3
    71b4:	d101      	bne.n	71ba <__swbuf_r+0x2a>
    71b6:	68ac      	ldr	r4, [r5, #8]
    71b8:	e003      	b.n	71c2 <__swbuf_r+0x32>
    71ba:	4b20      	ldr	r3, [pc, #128]	; (723c <__swbuf_r+0xac>)
    71bc:	429c      	cmp	r4, r3
    71be:	d100      	bne.n	71c2 <__swbuf_r+0x32>
    71c0:	68ec      	ldr	r4, [r5, #12]
    71c2:	69a3      	ldr	r3, [r4, #24]
    71c4:	60a3      	str	r3, [r4, #8]
    71c6:	89a3      	ldrh	r3, [r4, #12]
    71c8:	071a      	lsls	r2, r3, #28
    71ca:	d50a      	bpl.n	71e2 <__swbuf_r+0x52>
    71cc:	6923      	ldr	r3, [r4, #16]
    71ce:	2b00      	cmp	r3, #0
    71d0:	d007      	beq.n	71e2 <__swbuf_r+0x52>
    71d2:	6822      	ldr	r2, [r4, #0]
    71d4:	6923      	ldr	r3, [r4, #16]
    71d6:	b2f6      	uxtb	r6, r6
    71d8:	1ad0      	subs	r0, r2, r3
    71da:	6962      	ldr	r2, [r4, #20]
    71dc:	4290      	cmp	r0, r2
    71de:	db0f      	blt.n	7200 <__swbuf_r+0x70>
    71e0:	e008      	b.n	71f4 <__swbuf_r+0x64>
    71e2:	1c28      	adds	r0, r5, #0
    71e4:	1c21      	adds	r1, r4, #0
    71e6:	f000 f83f 	bl	7268 <__swsetup_r>
    71ea:	2800      	cmp	r0, #0
    71ec:	d0f1      	beq.n	71d2 <__swbuf_r+0x42>
    71ee:	2001      	movs	r0, #1
    71f0:	4240      	negs	r0, r0
    71f2:	e01d      	b.n	7230 <__swbuf_r+0xa0>
    71f4:	1c28      	adds	r0, r5, #0
    71f6:	1c21      	adds	r1, r4, #0
    71f8:	f7fe fb98 	bl	592c <_fflush_r>
    71fc:	2800      	cmp	r0, #0
    71fe:	d1f6      	bne.n	71ee <__swbuf_r+0x5e>
    7200:	68a3      	ldr	r3, [r4, #8]
    7202:	3001      	adds	r0, #1
    7204:	3b01      	subs	r3, #1
    7206:	60a3      	str	r3, [r4, #8]
    7208:	6823      	ldr	r3, [r4, #0]
    720a:	1c5a      	adds	r2, r3, #1
    720c:	6022      	str	r2, [r4, #0]
    720e:	701e      	strb	r6, [r3, #0]
    7210:	6963      	ldr	r3, [r4, #20]
    7212:	4298      	cmp	r0, r3
    7214:	d005      	beq.n	7222 <__swbuf_r+0x92>
    7216:	89a3      	ldrh	r3, [r4, #12]
    7218:	1c30      	adds	r0, r6, #0
    721a:	07da      	lsls	r2, r3, #31
    721c:	d508      	bpl.n	7230 <__swbuf_r+0xa0>
    721e:	2e0a      	cmp	r6, #10
    7220:	d106      	bne.n	7230 <__swbuf_r+0xa0>
    7222:	1c28      	adds	r0, r5, #0
    7224:	1c21      	adds	r1, r4, #0
    7226:	f7fe fb81 	bl	592c <_fflush_r>
    722a:	2800      	cmp	r0, #0
    722c:	d1df      	bne.n	71ee <__swbuf_r+0x5e>
    722e:	1c30      	adds	r0, r6, #0
    7230:	bd70      	pop	{r4, r5, r6, pc}
    7232:	46c0      	nop			; (mov r8, r8)
    7234:	00007bd0 	.word	0x00007bd0
    7238:	00007bf0 	.word	0x00007bf0
    723c:	00007c10 	.word	0x00007c10

00007240 <_write_r>:
    7240:	b538      	push	{r3, r4, r5, lr}
    7242:	4c08      	ldr	r4, [pc, #32]	; (7264 <_write_r+0x24>)
    7244:	1c05      	adds	r5, r0, #0
    7246:	2000      	movs	r0, #0
    7248:	6020      	str	r0, [r4, #0]
    724a:	1c08      	adds	r0, r1, #0
    724c:	1c11      	adds	r1, r2, #0
    724e:	1c1a      	adds	r2, r3, #0
    7250:	f7fa feb6 	bl	1fc0 <_write>
    7254:	1c43      	adds	r3, r0, #1
    7256:	d103      	bne.n	7260 <_write_r+0x20>
    7258:	6823      	ldr	r3, [r4, #0]
    725a:	2b00      	cmp	r3, #0
    725c:	d000      	beq.n	7260 <_write_r+0x20>
    725e:	602b      	str	r3, [r5, #0]
    7260:	bd38      	pop	{r3, r4, r5, pc}
    7262:	46c0      	nop			; (mov r8, r8)
    7264:	10000424 	.word	0x10000424

00007268 <__swsetup_r>:
    7268:	4b34      	ldr	r3, [pc, #208]	; (733c <__swsetup_r+0xd4>)
    726a:	b570      	push	{r4, r5, r6, lr}
    726c:	681d      	ldr	r5, [r3, #0]
    726e:	1c06      	adds	r6, r0, #0
    7270:	1c0c      	adds	r4, r1, #0
    7272:	2d00      	cmp	r5, #0
    7274:	d005      	beq.n	7282 <__swsetup_r+0x1a>
    7276:	69a9      	ldr	r1, [r5, #24]
    7278:	2900      	cmp	r1, #0
    727a:	d102      	bne.n	7282 <__swsetup_r+0x1a>
    727c:	1c28      	adds	r0, r5, #0
    727e:	f7fe fbe9 	bl	5a54 <__sinit>
    7282:	4b2f      	ldr	r3, [pc, #188]	; (7340 <__swsetup_r+0xd8>)
    7284:	429c      	cmp	r4, r3
    7286:	d101      	bne.n	728c <__swsetup_r+0x24>
    7288:	686c      	ldr	r4, [r5, #4]
    728a:	e008      	b.n	729e <__swsetup_r+0x36>
    728c:	4b2d      	ldr	r3, [pc, #180]	; (7344 <__swsetup_r+0xdc>)
    728e:	429c      	cmp	r4, r3
    7290:	d101      	bne.n	7296 <__swsetup_r+0x2e>
    7292:	68ac      	ldr	r4, [r5, #8]
    7294:	e003      	b.n	729e <__swsetup_r+0x36>
    7296:	4b2c      	ldr	r3, [pc, #176]	; (7348 <__swsetup_r+0xe0>)
    7298:	429c      	cmp	r4, r3
    729a:	d100      	bne.n	729e <__swsetup_r+0x36>
    729c:	68ec      	ldr	r4, [r5, #12]
    729e:	89a2      	ldrh	r2, [r4, #12]
    72a0:	b293      	uxth	r3, r2
    72a2:	0719      	lsls	r1, r3, #28
    72a4:	d421      	bmi.n	72ea <__swsetup_r+0x82>
    72a6:	06d9      	lsls	r1, r3, #27
    72a8:	d405      	bmi.n	72b6 <__swsetup_r+0x4e>
    72aa:	2309      	movs	r3, #9
    72ac:	6033      	str	r3, [r6, #0]
    72ae:	2340      	movs	r3, #64	; 0x40
    72b0:	431a      	orrs	r2, r3
    72b2:	81a2      	strh	r2, [r4, #12]
    72b4:	e03f      	b.n	7336 <__swsetup_r+0xce>
    72b6:	075a      	lsls	r2, r3, #29
    72b8:	d513      	bpl.n	72e2 <__swsetup_r+0x7a>
    72ba:	6b61      	ldr	r1, [r4, #52]	; 0x34
    72bc:	2900      	cmp	r1, #0
    72be:	d008      	beq.n	72d2 <__swsetup_r+0x6a>
    72c0:	1c23      	adds	r3, r4, #0
    72c2:	3344      	adds	r3, #68	; 0x44
    72c4:	4299      	cmp	r1, r3
    72c6:	d002      	beq.n	72ce <__swsetup_r+0x66>
    72c8:	1c30      	adds	r0, r6, #0
    72ca:	f7fe fde3 	bl	5e94 <_free_r>
    72ce:	2300      	movs	r3, #0
    72d0:	6363      	str	r3, [r4, #52]	; 0x34
    72d2:	89a3      	ldrh	r3, [r4, #12]
    72d4:	2224      	movs	r2, #36	; 0x24
    72d6:	4393      	bics	r3, r2
    72d8:	81a3      	strh	r3, [r4, #12]
    72da:	2300      	movs	r3, #0
    72dc:	6063      	str	r3, [r4, #4]
    72de:	6923      	ldr	r3, [r4, #16]
    72e0:	6023      	str	r3, [r4, #0]
    72e2:	89a3      	ldrh	r3, [r4, #12]
    72e4:	2208      	movs	r2, #8
    72e6:	4313      	orrs	r3, r2
    72e8:	81a3      	strh	r3, [r4, #12]
    72ea:	6921      	ldr	r1, [r4, #16]
    72ec:	2900      	cmp	r1, #0
    72ee:	d10b      	bne.n	7308 <__swsetup_r+0xa0>
    72f0:	89a3      	ldrh	r3, [r4, #12]
    72f2:	22a0      	movs	r2, #160	; 0xa0
    72f4:	0092      	lsls	r2, r2, #2
    72f6:	401a      	ands	r2, r3
    72f8:	2380      	movs	r3, #128	; 0x80
    72fa:	009b      	lsls	r3, r3, #2
    72fc:	429a      	cmp	r2, r3
    72fe:	d003      	beq.n	7308 <__swsetup_r+0xa0>
    7300:	1c30      	adds	r0, r6, #0
    7302:	1c21      	adds	r1, r4, #0
    7304:	f7fe fd46 	bl	5d94 <__smakebuf_r>
    7308:	89a3      	ldrh	r3, [r4, #12]
    730a:	2201      	movs	r2, #1
    730c:	401a      	ands	r2, r3
    730e:	d005      	beq.n	731c <__swsetup_r+0xb4>
    7310:	6961      	ldr	r1, [r4, #20]
    7312:	2200      	movs	r2, #0
    7314:	60a2      	str	r2, [r4, #8]
    7316:	424a      	negs	r2, r1
    7318:	61a2      	str	r2, [r4, #24]
    731a:	e003      	b.n	7324 <__swsetup_r+0xbc>
    731c:	0799      	lsls	r1, r3, #30
    731e:	d400      	bmi.n	7322 <__swsetup_r+0xba>
    7320:	6962      	ldr	r2, [r4, #20]
    7322:	60a2      	str	r2, [r4, #8]
    7324:	6922      	ldr	r2, [r4, #16]
    7326:	2000      	movs	r0, #0
    7328:	4282      	cmp	r2, r0
    732a:	d106      	bne.n	733a <__swsetup_r+0xd2>
    732c:	0619      	lsls	r1, r3, #24
    732e:	d504      	bpl.n	733a <__swsetup_r+0xd2>
    7330:	2240      	movs	r2, #64	; 0x40
    7332:	4313      	orrs	r3, r2
    7334:	81a3      	strh	r3, [r4, #12]
    7336:	2001      	movs	r0, #1
    7338:	4240      	negs	r0, r0
    733a:	bd70      	pop	{r4, r5, r6, pc}
    733c:	10000130 	.word	0x10000130
    7340:	00007bd0 	.word	0x00007bd0
    7344:	00007bf0 	.word	0x00007bf0
    7348:	00007c10 	.word	0x00007c10

0000734c <_close_r>:
    734c:	b538      	push	{r3, r4, r5, lr}
    734e:	4c07      	ldr	r4, [pc, #28]	; (736c <_close_r+0x20>)
    7350:	2300      	movs	r3, #0
    7352:	1c05      	adds	r5, r0, #0
    7354:	1c08      	adds	r0, r1, #0
    7356:	6023      	str	r3, [r4, #0]
    7358:	f7fa fe1c 	bl	1f94 <_close>
    735c:	1c43      	adds	r3, r0, #1
    735e:	d103      	bne.n	7368 <_close_r+0x1c>
    7360:	6823      	ldr	r3, [r4, #0]
    7362:	2b00      	cmp	r3, #0
    7364:	d000      	beq.n	7368 <_close_r+0x1c>
    7366:	602b      	str	r3, [r5, #0]
    7368:	bd38      	pop	{r3, r4, r5, pc}
    736a:	46c0      	nop			; (mov r8, r8)
    736c:	10000424 	.word	0x10000424

00007370 <__sflags>:
    7370:	780b      	ldrb	r3, [r1, #0]
    7372:	b530      	push	{r4, r5, lr}
    7374:	2b72      	cmp	r3, #114	; 0x72
    7376:	d009      	beq.n	738c <__sflags+0x1c>
    7378:	2b77      	cmp	r3, #119	; 0x77
    737a:	d00b      	beq.n	7394 <__sflags+0x24>
    737c:	2b61      	cmp	r3, #97	; 0x61
    737e:	d10e      	bne.n	739e <__sflags+0x2e>
    7380:	2482      	movs	r4, #130	; 0x82
    7382:	2301      	movs	r3, #1
    7384:	2084      	movs	r0, #132	; 0x84
    7386:	00a4      	lsls	r4, r4, #2
    7388:	4098      	lsls	r0, r3
    738a:	e01b      	b.n	73c4 <__sflags+0x54>
    738c:	2400      	movs	r4, #0
    738e:	1c23      	adds	r3, r4, #0
    7390:	2004      	movs	r0, #4
    7392:	e017      	b.n	73c4 <__sflags+0x54>
    7394:	24c0      	movs	r4, #192	; 0xc0
    7396:	00e4      	lsls	r4, r4, #3
    7398:	2301      	movs	r3, #1
    739a:	2008      	movs	r0, #8
    739c:	e012      	b.n	73c4 <__sflags+0x54>
    739e:	2316      	movs	r3, #22
    73a0:	6003      	str	r3, [r0, #0]
    73a2:	2000      	movs	r0, #0
    73a4:	e01a      	b.n	73dc <__sflags+0x6c>
    73a6:	2d62      	cmp	r5, #98	; 0x62
    73a8:	d010      	beq.n	73cc <__sflags+0x5c>
    73aa:	2d78      	cmp	r5, #120	; 0x78
    73ac:	d011      	beq.n	73d2 <__sflags+0x62>
    73ae:	2d2b      	cmp	r5, #43	; 0x2b
    73b0:	d107      	bne.n	73c2 <__sflags+0x52>
    73b2:	251c      	movs	r5, #28
    73b4:	43a8      	bics	r0, r5
    73b6:	2510      	movs	r5, #16
    73b8:	4328      	orrs	r0, r5
    73ba:	2503      	movs	r5, #3
    73bc:	43ab      	bics	r3, r5
    73be:	2502      	movs	r5, #2
    73c0:	432b      	orrs	r3, r5
    73c2:	3101      	adds	r1, #1
    73c4:	784d      	ldrb	r5, [r1, #1]
    73c6:	2d00      	cmp	r5, #0
    73c8:	d1ed      	bne.n	73a6 <__sflags+0x36>
    73ca:	e005      	b.n	73d8 <__sflags+0x68>
    73cc:	2580      	movs	r5, #128	; 0x80
    73ce:	026d      	lsls	r5, r5, #9
    73d0:	e7f6      	b.n	73c0 <__sflags+0x50>
    73d2:	2580      	movs	r5, #128	; 0x80
    73d4:	012d      	lsls	r5, r5, #4
    73d6:	e7f3      	b.n	73c0 <__sflags+0x50>
    73d8:	4323      	orrs	r3, r4
    73da:	6013      	str	r3, [r2, #0]
    73dc:	bd30      	pop	{r4, r5, pc}
	...

000073e0 <_fstat_r>:
    73e0:	b538      	push	{r3, r4, r5, lr}
    73e2:	4c07      	ldr	r4, [pc, #28]	; (7400 <_fstat_r+0x20>)
    73e4:	2300      	movs	r3, #0
    73e6:	1c05      	adds	r5, r0, #0
    73e8:	1c08      	adds	r0, r1, #0
    73ea:	1c11      	adds	r1, r2, #0
    73ec:	6023      	str	r3, [r4, #0]
    73ee:	f7fa fe5f 	bl	20b0 <_fstat>
    73f2:	1c43      	adds	r3, r0, #1
    73f4:	d103      	bne.n	73fe <_fstat_r+0x1e>
    73f6:	6823      	ldr	r3, [r4, #0]
    73f8:	2b00      	cmp	r3, #0
    73fa:	d000      	beq.n	73fe <_fstat_r+0x1e>
    73fc:	602b      	str	r3, [r5, #0]
    73fe:	bd38      	pop	{r3, r4, r5, pc}
    7400:	10000424 	.word	0x10000424

00007404 <_isatty_r>:
    7404:	b538      	push	{r3, r4, r5, lr}
    7406:	4c07      	ldr	r4, [pc, #28]	; (7424 <_isatty_r+0x20>)
    7408:	2300      	movs	r3, #0
    740a:	1c05      	adds	r5, r0, #0
    740c:	1c08      	adds	r0, r1, #0
    740e:	6023      	str	r3, [r4, #0]
    7410:	f7fa fa36 	bl	1880 <__wrap__isatty>
    7414:	1c43      	adds	r3, r0, #1
    7416:	d103      	bne.n	7420 <_isatty_r+0x1c>
    7418:	6823      	ldr	r3, [r4, #0]
    741a:	2b00      	cmp	r3, #0
    741c:	d000      	beq.n	7420 <_isatty_r+0x1c>
    741e:	602b      	str	r3, [r5, #0]
    7420:	bd38      	pop	{r3, r4, r5, pc}
    7422:	46c0      	nop			; (mov r8, r8)
    7424:	10000424 	.word	0x10000424

00007428 <_lseek_r>:
    7428:	b538      	push	{r3, r4, r5, lr}
    742a:	4c08      	ldr	r4, [pc, #32]	; (744c <_lseek_r+0x24>)
    742c:	1c05      	adds	r5, r0, #0
    742e:	2000      	movs	r0, #0
    7430:	6020      	str	r0, [r4, #0]
    7432:	1c08      	adds	r0, r1, #0
    7434:	1c11      	adds	r1, r2, #0
    7436:	1c1a      	adds	r2, r3, #0
    7438:	f7fa fe26 	bl	2088 <_lseek>
    743c:	1c43      	adds	r3, r0, #1
    743e:	d103      	bne.n	7448 <_lseek_r+0x20>
    7440:	6823      	ldr	r3, [r4, #0]
    7442:	2b00      	cmp	r3, #0
    7444:	d000      	beq.n	7448 <_lseek_r+0x20>
    7446:	602b      	str	r3, [r5, #0]
    7448:	bd38      	pop	{r3, r4, r5, pc}
    744a:	46c0      	nop			; (mov r8, r8)
    744c:	10000424 	.word	0x10000424

00007450 <memmove>:
    7450:	b570      	push	{r4, r5, r6, lr}
    7452:	4281      	cmp	r1, r0
    7454:	d301      	bcc.n	745a <memmove+0xa>
    7456:	2300      	movs	r3, #0
    7458:	e00c      	b.n	7474 <memmove+0x24>
    745a:	188c      	adds	r4, r1, r2
    745c:	42a0      	cmp	r0, r4
    745e:	d2fa      	bcs.n	7456 <memmove+0x6>
    7460:	1885      	adds	r5, r0, r2
    7462:	1c13      	adds	r3, r2, #0
    7464:	3b01      	subs	r3, #1
    7466:	d30b      	bcc.n	7480 <memmove+0x30>
    7468:	4251      	negs	r1, r2
    746a:	1866      	adds	r6, r4, r1
    746c:	5cf6      	ldrb	r6, [r6, r3]
    746e:	1869      	adds	r1, r5, r1
    7470:	54ce      	strb	r6, [r1, r3]
    7472:	e7f7      	b.n	7464 <memmove+0x14>
    7474:	4293      	cmp	r3, r2
    7476:	d003      	beq.n	7480 <memmove+0x30>
    7478:	5ccc      	ldrb	r4, [r1, r3]
    747a:	54c4      	strb	r4, [r0, r3]
    747c:	3301      	adds	r3, #1
    747e:	e7f9      	b.n	7474 <memmove+0x24>
    7480:	bd70      	pop	{r4, r5, r6, pc}

00007482 <_realloc_r>:
    7482:	b5f8      	push	{r3, r4, r5, r6, r7, lr}
    7484:	1c06      	adds	r6, r0, #0
    7486:	1c0c      	adds	r4, r1, #0
    7488:	1c15      	adds	r5, r2, #0
    748a:	2900      	cmp	r1, #0
    748c:	d104      	bne.n	7498 <_realloc_r+0x16>
    748e:	1c11      	adds	r1, r2, #0
    7490:	f7fe fd48 	bl	5f24 <_malloc_r>
    7494:	1c04      	adds	r4, r0, #0
    7496:	e018      	b.n	74ca <_realloc_r+0x48>
    7498:	2a00      	cmp	r2, #0
    749a:	d103      	bne.n	74a4 <_realloc_r+0x22>
    749c:	f7fe fcfa 	bl	5e94 <_free_r>
    74a0:	1c2c      	adds	r4, r5, #0
    74a2:	e012      	b.n	74ca <_realloc_r+0x48>
    74a4:	f000 f962 	bl	776c <_malloc_usable_size_r>
    74a8:	42a8      	cmp	r0, r5
    74aa:	d20e      	bcs.n	74ca <_realloc_r+0x48>
    74ac:	1c30      	adds	r0, r6, #0
    74ae:	1c29      	adds	r1, r5, #0
    74b0:	f7fe fd38 	bl	5f24 <_malloc_r>
    74b4:	1e07      	subs	r7, r0, #0
    74b6:	d007      	beq.n	74c8 <_realloc_r+0x46>
    74b8:	1c21      	adds	r1, r4, #0
    74ba:	1c2a      	adds	r2, r5, #0
    74bc:	f7fe fcd9 	bl	5e72 <memcpy>
    74c0:	1c30      	adds	r0, r6, #0
    74c2:	1c21      	adds	r1, r4, #0
    74c4:	f7fe fce6 	bl	5e94 <_free_r>
    74c8:	1c3c      	adds	r4, r7, #0
    74ca:	1c20      	adds	r0, r4, #0
    74cc:	bdf8      	pop	{r3, r4, r5, r6, r7, pc}
	...

000074d0 <_read_r>:
    74d0:	b538      	push	{r3, r4, r5, lr}
    74d2:	4c08      	ldr	r4, [pc, #32]	; (74f4 <_read_r+0x24>)
    74d4:	1c05      	adds	r5, r0, #0
    74d6:	2000      	movs	r0, #0
    74d8:	6020      	str	r0, [r4, #0]
    74da:	1c08      	adds	r0, r1, #0
    74dc:	1c11      	adds	r1, r2, #0
    74de:	1c1a      	adds	r2, r3, #0
    74e0:	f7fa fd9a 	bl	2018 <_read>
    74e4:	1c43      	adds	r3, r0, #1
    74e6:	d103      	bne.n	74f0 <_read_r+0x20>
    74e8:	6823      	ldr	r3, [r4, #0]
    74ea:	2b00      	cmp	r3, #0
    74ec:	d000      	beq.n	74f0 <_read_r+0x20>
    74ee:	602b      	str	r3, [r5, #0]
    74f0:	bd38      	pop	{r3, r4, r5, pc}
    74f2:	46c0      	nop			; (mov r8, r8)
    74f4:	10000424 	.word	0x10000424

000074f8 <__sccl>:
    74f8:	b5f0      	push	{r4, r5, r6, r7, lr}
    74fa:	780b      	ldrb	r3, [r1, #0]
    74fc:	2b5e      	cmp	r3, #94	; 0x5e
    74fe:	d002      	beq.n	7506 <__sccl+0xe>
    7500:	1c4c      	adds	r4, r1, #1
    7502:	2100      	movs	r1, #0
    7504:	e002      	b.n	750c <__sccl+0x14>
    7506:	1c8c      	adds	r4, r1, #2
    7508:	784b      	ldrb	r3, [r1, #1]
    750a:	2101      	movs	r1, #1
    750c:	2200      	movs	r2, #0
    750e:	5481      	strb	r1, [r0, r2]
    7510:	2580      	movs	r5, #128	; 0x80
    7512:	3201      	adds	r2, #1
    7514:	006d      	lsls	r5, r5, #1
    7516:	42aa      	cmp	r2, r5
    7518:	d1f9      	bne.n	750e <__sccl+0x16>
    751a:	2b00      	cmp	r3, #0
    751c:	d101      	bne.n	7522 <__sccl+0x2a>
    751e:	1e60      	subs	r0, r4, #1
    7520:	e01c      	b.n	755c <__sccl+0x64>
    7522:	2701      	movs	r7, #1
    7524:	1a7f      	subs	r7, r7, r1
    7526:	b2fe      	uxtb	r6, r7
    7528:	54c6      	strb	r6, [r0, r3]
    752a:	1c22      	adds	r2, r4, #0
    752c:	7811      	ldrb	r1, [r2, #0]
    752e:	1c54      	adds	r4, r2, #1
    7530:	292d      	cmp	r1, #45	; 0x2d
    7532:	d005      	beq.n	7540 <__sccl+0x48>
    7534:	295d      	cmp	r1, #93	; 0x5d
    7536:	d00e      	beq.n	7556 <__sccl+0x5e>
    7538:	2900      	cmp	r1, #0
    753a:	d00e      	beq.n	755a <__sccl+0x62>
    753c:	1c0b      	adds	r3, r1, #0
    753e:	e7f2      	b.n	7526 <__sccl+0x2e>
    7540:	7855      	ldrb	r5, [r2, #1]
    7542:	2d5d      	cmp	r5, #93	; 0x5d
    7544:	d0fa      	beq.n	753c <__sccl+0x44>
    7546:	429d      	cmp	r5, r3
    7548:	dbf8      	blt.n	753c <__sccl+0x44>
    754a:	3202      	adds	r2, #2
    754c:	3301      	adds	r3, #1
    754e:	54c6      	strb	r6, [r0, r3]
    7550:	42ab      	cmp	r3, r5
    7552:	dbfb      	blt.n	754c <__sccl+0x54>
    7554:	e7ea      	b.n	752c <__sccl+0x34>
    7556:	1c20      	adds	r0, r4, #0
    7558:	e000      	b.n	755c <__sccl+0x64>
    755a:	1c10      	adds	r0, r2, #0
    755c:	bdf0      	pop	{r4, r5, r6, r7, pc}
	...

00007560 <_strtol_r>:
    7560:	b5f0      	push	{r4, r5, r6, r7, lr}
    7562:	1c1d      	adds	r5, r3, #0
    7564:	4b42      	ldr	r3, [pc, #264]	; (7670 <_strtol_r+0x110>)
    7566:	b087      	sub	sp, #28
    7568:	681b      	ldr	r3, [r3, #0]
    756a:	9005      	str	r0, [sp, #20]
    756c:	9302      	str	r3, [sp, #8]
    756e:	9103      	str	r1, [sp, #12]
    7570:	9201      	str	r2, [sp, #4]
    7572:	1c0b      	adds	r3, r1, #0
    7574:	781c      	ldrb	r4, [r3, #0]
    7576:	9f02      	ldr	r7, [sp, #8]
    7578:	1c5e      	adds	r6, r3, #1
    757a:	193a      	adds	r2, r7, r4
    757c:	7851      	ldrb	r1, [r2, #1]
    757e:	2208      	movs	r2, #8
    7580:	400a      	ands	r2, r1
    7582:	d001      	beq.n	7588 <_strtol_r+0x28>
    7584:	1c33      	adds	r3, r6, #0
    7586:	e7f5      	b.n	7574 <_strtol_r+0x14>
    7588:	2c2d      	cmp	r4, #45	; 0x2d
    758a:	d104      	bne.n	7596 <_strtol_r+0x36>
    758c:	2701      	movs	r7, #1
    758e:	1c9e      	adds	r6, r3, #2
    7590:	785c      	ldrb	r4, [r3, #1]
    7592:	9700      	str	r7, [sp, #0]
    7594:	e004      	b.n	75a0 <_strtol_r+0x40>
    7596:	9200      	str	r2, [sp, #0]
    7598:	2c2b      	cmp	r4, #43	; 0x2b
    759a:	d101      	bne.n	75a0 <_strtol_r+0x40>
    759c:	785c      	ldrb	r4, [r3, #1]
    759e:	1c9e      	adds	r6, r3, #2
    75a0:	2310      	movs	r3, #16
    75a2:	1c2a      	adds	r2, r5, #0
    75a4:	439a      	bics	r2, r3
    75a6:	d111      	bne.n	75cc <_strtol_r+0x6c>
    75a8:	2c30      	cmp	r4, #48	; 0x30
    75aa:	d108      	bne.n	75be <_strtol_r+0x5e>
    75ac:	7832      	ldrb	r2, [r6, #0]
    75ae:	2120      	movs	r1, #32
    75b0:	438a      	bics	r2, r1
    75b2:	2a58      	cmp	r2, #88	; 0x58
    75b4:	d107      	bne.n	75c6 <_strtol_r+0x66>
    75b6:	7874      	ldrb	r4, [r6, #1]
    75b8:	1c1d      	adds	r5, r3, #0
    75ba:	3602      	adds	r6, #2
    75bc:	e006      	b.n	75cc <_strtol_r+0x6c>
    75be:	2d00      	cmp	r5, #0
    75c0:	d104      	bne.n	75cc <_strtol_r+0x6c>
    75c2:	250a      	movs	r5, #10
    75c4:	e002      	b.n	75cc <_strtol_r+0x6c>
    75c6:	2d00      	cmp	r5, #0
    75c8:	d100      	bne.n	75cc <_strtol_r+0x6c>
    75ca:	2508      	movs	r5, #8
    75cc:	9f00      	ldr	r7, [sp, #0]
    75ce:	1c29      	adds	r1, r5, #0
    75d0:	427b      	negs	r3, r7
    75d2:	417b      	adcs	r3, r7
    75d4:	2780      	movs	r7, #128	; 0x80
    75d6:	063f      	lsls	r7, r7, #24
    75d8:	1aff      	subs	r7, r7, r3
    75da:	1c38      	adds	r0, r7, #0
    75dc:	f7fb fb08 	bl	2bf0 <__aeabi_uidivmod>
    75e0:	1c38      	adds	r0, r7, #0
    75e2:	9104      	str	r1, [sp, #16]
    75e4:	1c29      	adds	r1, r5, #0
    75e6:	f7fb fabf 	bl	2b68 <__aeabi_uidiv>
    75ea:	2300      	movs	r3, #0
    75ec:	1c02      	adds	r2, r0, #0
    75ee:	1c18      	adds	r0, r3, #0
    75f0:	9f02      	ldr	r7, [sp, #8]
    75f2:	1939      	adds	r1, r7, r4
    75f4:	7849      	ldrb	r1, [r1, #1]
    75f6:	074f      	lsls	r7, r1, #29
    75f8:	d501      	bpl.n	75fe <_strtol_r+0x9e>
    75fa:	3c30      	subs	r4, #48	; 0x30
    75fc:	e007      	b.n	760e <_strtol_r+0xae>
    75fe:	2703      	movs	r7, #3
    7600:	400f      	ands	r7, r1
    7602:	d017      	beq.n	7634 <_strtol_r+0xd4>
    7604:	2157      	movs	r1, #87	; 0x57
    7606:	2f01      	cmp	r7, #1
    7608:	d100      	bne.n	760c <_strtol_r+0xac>
    760a:	2137      	movs	r1, #55	; 0x37
    760c:	1a64      	subs	r4, r4, r1
    760e:	42ac      	cmp	r4, r5
    7610:	da10      	bge.n	7634 <_strtol_r+0xd4>
    7612:	1c59      	adds	r1, r3, #1
    7614:	d00b      	beq.n	762e <_strtol_r+0xce>
    7616:	4290      	cmp	r0, r2
    7618:	d807      	bhi.n	762a <_strtol_r+0xca>
    761a:	d102      	bne.n	7622 <_strtol_r+0xc2>
    761c:	9f04      	ldr	r7, [sp, #16]
    761e:	42bc      	cmp	r4, r7
    7620:	dc03      	bgt.n	762a <_strtol_r+0xca>
    7622:	4368      	muls	r0, r5
    7624:	2301      	movs	r3, #1
    7626:	1820      	adds	r0, r4, r0
    7628:	e001      	b.n	762e <_strtol_r+0xce>
    762a:	2301      	movs	r3, #1
    762c:	425b      	negs	r3, r3
    762e:	7834      	ldrb	r4, [r6, #0]
    7630:	3601      	adds	r6, #1
    7632:	e7dd      	b.n	75f0 <_strtol_r+0x90>
    7634:	9f00      	ldr	r7, [sp, #0]
    7636:	1c59      	adds	r1, r3, #1
    7638:	d10b      	bne.n	7652 <_strtol_r+0xf2>
    763a:	2080      	movs	r0, #128	; 0x80
    763c:	427b      	negs	r3, r7
    763e:	417b      	adcs	r3, r7
    7640:	0600      	lsls	r0, r0, #24
    7642:	9f05      	ldr	r7, [sp, #20]
    7644:	1ac0      	subs	r0, r0, r3
    7646:	2322      	movs	r3, #34	; 0x22
    7648:	603b      	str	r3, [r7, #0]
    764a:	9f01      	ldr	r7, [sp, #4]
    764c:	2f00      	cmp	r7, #0
    764e:	d109      	bne.n	7664 <_strtol_r+0x104>
    7650:	e00b      	b.n	766a <_strtol_r+0x10a>
    7652:	2f00      	cmp	r7, #0
    7654:	d000      	beq.n	7658 <_strtol_r+0xf8>
    7656:	4240      	negs	r0, r0
    7658:	9f01      	ldr	r7, [sp, #4]
    765a:	2f00      	cmp	r7, #0
    765c:	d005      	beq.n	766a <_strtol_r+0x10a>
    765e:	9a03      	ldr	r2, [sp, #12]
    7660:	2b00      	cmp	r3, #0
    7662:	d000      	beq.n	7666 <_strtol_r+0x106>
    7664:	1e72      	subs	r2, r6, #1
    7666:	9f01      	ldr	r7, [sp, #4]
    7668:	603a      	str	r2, [r7, #0]
    766a:	b007      	add	sp, #28
    766c:	bdf0      	pop	{r4, r5, r6, r7, pc}
    766e:	46c0      	nop			; (mov r8, r8)
    7670:	10000134 	.word	0x10000134

00007674 <_strtoul_r>:
    7674:	b5f0      	push	{r4, r5, r6, r7, lr}
    7676:	1c1d      	adds	r5, r3, #0
    7678:	4b3b      	ldr	r3, [pc, #236]	; (7768 <_strtoul_r+0xf4>)
    767a:	b087      	sub	sp, #28
    767c:	681b      	ldr	r3, [r3, #0]
    767e:	9005      	str	r0, [sp, #20]
    7680:	9302      	str	r3, [sp, #8]
    7682:	9104      	str	r1, [sp, #16]
    7684:	1c17      	adds	r7, r2, #0
    7686:	1c0b      	adds	r3, r1, #0
    7688:	9902      	ldr	r1, [sp, #8]
    768a:	781c      	ldrb	r4, [r3, #0]
    768c:	1c5e      	adds	r6, r3, #1
    768e:	190a      	adds	r2, r1, r4
    7690:	7851      	ldrb	r1, [r2, #1]
    7692:	2208      	movs	r2, #8
    7694:	400a      	ands	r2, r1
    7696:	d001      	beq.n	769c <_strtoul_r+0x28>
    7698:	1c33      	adds	r3, r6, #0
    769a:	e7f5      	b.n	7688 <_strtoul_r+0x14>
    769c:	2c2d      	cmp	r4, #45	; 0x2d
    769e:	d104      	bne.n	76aa <_strtoul_r+0x36>
    76a0:	2201      	movs	r2, #1
    76a2:	1c9e      	adds	r6, r3, #2
    76a4:	785c      	ldrb	r4, [r3, #1]
    76a6:	9201      	str	r2, [sp, #4]
    76a8:	e004      	b.n	76b4 <_strtoul_r+0x40>
    76aa:	9201      	str	r2, [sp, #4]
    76ac:	2c2b      	cmp	r4, #43	; 0x2b
    76ae:	d101      	bne.n	76b4 <_strtoul_r+0x40>
    76b0:	785c      	ldrb	r4, [r3, #1]
    76b2:	1c9e      	adds	r6, r3, #2
    76b4:	2310      	movs	r3, #16
    76b6:	1c2a      	adds	r2, r5, #0
    76b8:	439a      	bics	r2, r3
    76ba:	d111      	bne.n	76e0 <_strtoul_r+0x6c>
    76bc:	2c30      	cmp	r4, #48	; 0x30
    76be:	d108      	bne.n	76d2 <_strtoul_r+0x5e>
    76c0:	7832      	ldrb	r2, [r6, #0]
    76c2:	2120      	movs	r1, #32
    76c4:	438a      	bics	r2, r1
    76c6:	2a58      	cmp	r2, #88	; 0x58
    76c8:	d107      	bne.n	76da <_strtoul_r+0x66>
    76ca:	7874      	ldrb	r4, [r6, #1]
    76cc:	1c1d      	adds	r5, r3, #0
    76ce:	3602      	adds	r6, #2
    76d0:	e006      	b.n	76e0 <_strtoul_r+0x6c>
    76d2:	2d00      	cmp	r5, #0
    76d4:	d104      	bne.n	76e0 <_strtoul_r+0x6c>
    76d6:	250a      	movs	r5, #10
    76d8:	e002      	b.n	76e0 <_strtoul_r+0x6c>
    76da:	2d00      	cmp	r5, #0
    76dc:	d100      	bne.n	76e0 <_strtoul_r+0x6c>
    76de:	2508      	movs	r5, #8
    76e0:	2001      	movs	r0, #1
    76e2:	1c29      	adds	r1, r5, #0
    76e4:	4240      	negs	r0, r0
    76e6:	f7fb fa3f 	bl	2b68 <__aeabi_uidiv>
    76ea:	9003      	str	r0, [sp, #12]
    76ec:	2001      	movs	r0, #1
    76ee:	4240      	negs	r0, r0
    76f0:	1c29      	adds	r1, r5, #0
    76f2:	f7fb fa7d 	bl	2bf0 <__aeabi_uidivmod>
    76f6:	2300      	movs	r3, #0
    76f8:	468c      	mov	r12, r1
    76fa:	1c18      	adds	r0, r3, #0
    76fc:	9902      	ldr	r1, [sp, #8]
    76fe:	190a      	adds	r2, r1, r4
    7700:	7852      	ldrb	r2, [r2, #1]
    7702:	0751      	lsls	r1, r2, #29
    7704:	d501      	bpl.n	770a <_strtoul_r+0x96>
    7706:	3c30      	subs	r4, #48	; 0x30
    7708:	e007      	b.n	771a <_strtoul_r+0xa6>
    770a:	2103      	movs	r1, #3
    770c:	4011      	ands	r1, r2
    770e:	d017      	beq.n	7740 <_strtoul_r+0xcc>
    7710:	2257      	movs	r2, #87	; 0x57
    7712:	2901      	cmp	r1, #1
    7714:	d100      	bne.n	7718 <_strtoul_r+0xa4>
    7716:	2237      	movs	r2, #55	; 0x37
    7718:	1aa4      	subs	r4, r4, r2
    771a:	42ac      	cmp	r4, r5
    771c:	da10      	bge.n	7740 <_strtoul_r+0xcc>
    771e:	2b00      	cmp	r3, #0
    7720:	db09      	blt.n	7736 <_strtoul_r+0xc2>
    7722:	9a03      	ldr	r2, [sp, #12]
    7724:	4290      	cmp	r0, r2
    7726:	d806      	bhi.n	7736 <_strtoul_r+0xc2>
    7728:	d101      	bne.n	772e <_strtoul_r+0xba>
    772a:	4564      	cmp	r4, r12
    772c:	dc03      	bgt.n	7736 <_strtoul_r+0xc2>
    772e:	4368      	muls	r0, r5
    7730:	2301      	movs	r3, #1
    7732:	1820      	adds	r0, r4, r0
    7734:	e001      	b.n	773a <_strtoul_r+0xc6>
    7736:	2301      	movs	r3, #1
    7738:	425b      	negs	r3, r3
    773a:	7834      	ldrb	r4, [r6, #0]
    773c:	3601      	adds	r6, #1
    773e:	e7dd      	b.n	76fc <_strtoul_r+0x88>
    7740:	2b00      	cmp	r3, #0
    7742:	da04      	bge.n	774e <_strtoul_r+0xda>
    7744:	9905      	ldr	r1, [sp, #20]
    7746:	2222      	movs	r2, #34	; 0x22
    7748:	600a      	str	r2, [r1, #0]
    774a:	2001      	movs	r0, #1
    774c:	e002      	b.n	7754 <_strtoul_r+0xe0>
    774e:	9a01      	ldr	r2, [sp, #4]
    7750:	2a00      	cmp	r2, #0
    7752:	d000      	beq.n	7756 <_strtoul_r+0xe2>
    7754:	4240      	negs	r0, r0
    7756:	2f00      	cmp	r7, #0
    7758:	d004      	beq.n	7764 <_strtoul_r+0xf0>
    775a:	9a04      	ldr	r2, [sp, #16]
    775c:	2b00      	cmp	r3, #0
    775e:	d000      	beq.n	7762 <_strtoul_r+0xee>
    7760:	1e72      	subs	r2, r6, #1
    7762:	603a      	str	r2, [r7, #0]
    7764:	b007      	add	sp, #28
    7766:	bdf0      	pop	{r4, r5, r6, r7, pc}
    7768:	10000134 	.word	0x10000134

0000776c <_malloc_usable_size_r>:
    776c:	3904      	subs	r1, #4
    776e:	680b      	ldr	r3, [r1, #0]
    7770:	1f18      	subs	r0, r3, #4
    7772:	2b00      	cmp	r3, #0
    7774:	da02      	bge.n	777c <_malloc_usable_size_r+0x10>
    7776:	58c8      	ldr	r0, [r1, r3]
    7778:	181b      	adds	r3, r3, r0
    777a:	1f18      	subs	r0, r3, #4
    777c:	4770      	bx	lr
	...

00007780 <_init>:
    7780:	b5f8      	push	{r3, r4, r5, r6, r7, lr}
    7782:	46c0      	nop			; (mov r8, r8)
    7784:	bcf8      	pop	{r3, r4, r5, r6, r7}
    7786:	bc08      	pop	{r3}
    7788:	469e      	mov	lr, r3
    778a:	4770      	bx	lr

0000778c <_fini>:
    778c:	b5f8      	push	{r3, r4, r5, r6, r7, lr}
    778e:	46c0      	nop			; (mov r8, r8)
    7790:	bcf8      	pop	{r3, r4, r5, r6, r7}
    7792:	bc08      	pop	{r3}
    7794:	469e      	mov	lr, r3
    7796:	4770      	bx	lr

00007798 <vtable for mbed::SerialBase>:
	...
    77a0:	0215 0000 0221 0000 7473 7461 3d65 0d31     ....!...state=1.
    77b0:	000a 0000 7473 7461 3d65 0d32 000a 0000     ....state=2.....
    77c0:	7473 7461 3d65 0d33 000a 0000 7473 7461     state=3.....stat
    77d0:	3d65 0d34 000a 0000 7473 7461 3d65 0d35     e=4.....state=5.
    77e0:	000a 0000 7473 7461 3d65 0d36 000a 0000     ....state=6.....
    77f0:	7473 7461 3d65 0d37 000a 0000 7473 7461     state=7.....stat
    7800:	3d65 0d38 000a 0000 7473 7461 3d65 0d39     e=8.....state=9.
    7810:	000a 0000 7473 7461 3d65 3031 0a0d 0000     ....state=10....
    7820:	7473 7461 3d65 3131 0a0d 0000               state=11....

0000782c <PinMap_ADC>:
    782c:	073c 0000 0000 0000 0000 0000 0640 0000     <...........@...
    783c:	0001 0000 0000 0000 0e48 0000 0002 0000     ........H.......
    784c:	0000 0000 1764 0000 0003 0000 0000 0000     ....d...........
    785c:	1668 0000 0004 0000 0000 0000 156c 0000     h...........l...
    786c:	0005 0000 0000 0000 1470 0000 0006 0000     ........p.......
    787c:	0000 0000 1374 0000 0007 0000 0000 0000     ....t...........
    788c:	1278 0000 0008 0000 0000 0000 1100 0000     x...............
    789c:	0009 0000 0000 0000 0d04 0000 000a 0000     ................
    78ac:	0000 0000 0410 0000 000b 0000 0000 0000     ................
    78bc:	6f4e 6120 6176 6c69 6261 656c 5320 5443     No available SCT
    78cc:	0000 0000 6f63 6c75 2064 6f6e 2074 6970     ....could not pi
    78dc:	6f6e 7475 0000 0000 6970 6d6e 7061 6d20     nout....pinmap m
    78ec:	7369 6d2d 7461 6863 0000 0000 6970 6d6e     is-match....pinm
    78fc:	7061 6e20 746f 6620 756f 646e 6620 726f     ap not found for
    790c:	7020 7265 7069 6568 6172 006c 6970 6d6e      peripheral.pinm
    791c:	7061 6e20 746f 6620 756f 646e 6620 726f     ap not found for
    792c:	6620 6e75 7463 6f69 006e 0000                function...

00007938 <__stdin_name>:
    7938:	732f 6474 6e69 0000                         /stdin..

00007940 <__stderr_name>:
    7940:	732f 6474 7265 0072                         /stderr.

00007948 <__stdout_name>:
    7948:	732f 6474 756f 0074                         /stdout.

00007950 <vtable for mbed::FileHandle>:
	...
    7958:	18c5 0000 18c5 0000 18c5 0000 18c5 0000     ................
    7968:	18c5 0000 18c5 0000 1de5 0000 1e19 0000     ................
    7978:	1e49 0000 0000 0000 253a 0070 7845 6563     I.......:%p.Exce
    7988:	7470 6f69 006e 0000                         ption...

00007990 <vtable for mbed::Serial>:
	...
    7998:	0235 0000 027d 0000 2115 0000 212d 0000     5...}....!..-!..
    79a8:	ffc0 ffff 0000 0000 21fd 0000 21f9 0000     .........!...!..
    79b8:	2231 0000 2269 0000 2265 0000 226d 0000     1"..i"..e"..m"..
    79c8:	2271 0000 026d 0000 02bd 0000 2135 0000     q"..m.......5!..
    79d8:	211d 0000 ffbc ffff 0000 0000 025d 0000     .!..........]...
    79e8:	02ad 0000 0000 0000                         ........

000079f0 <vtable for mbed::Stream>:
	...
    79f8:	21fd 0000 21f9 0000 2231 0000 2269 0000     .!...!..1"..i"..
    7a08:	2265 0000 226d 0000 2271 0000 2275 0000     e"..m"..q"..u"..
    7a18:	22a9 0000 18c5 0000 18c5 0000 fffc ffff     ."..............
    7a28:	0000 0000 2299 0000 22bd 0000 0000 0000     ....."..."......
    7a38:	2b77 0000                                   w+..

00007a3c <SWM_UART_RX>:
    7a3c:	0800 1001 1802 0000                         ........

00007a44 <SWM_UART_TX>:
    7a44:	0000 0801 1002 0000 6f4e 6120 6176 6c69     ........No avail
    7a54:	6261 656c 5520 5241 0054 0000               able UART...

00007a60 <us_interface>:
    7a60:	2731 0000 27b5 0000 281d 0000 282d 0000     1'...'...(..-(..
    7a70:	27f1 0000                                   .'..

00007a74 <us_data>:
    7a74:	7a60 0000 0400 1000 0000 0000               `z..........

00007a80 <vtable for mbed::FileLike>:
	...
    7a88:	18c5 0000 18c5 0000 18c5 0000 18c5 0000     ................
    7a98:	18c5 0000 18c5 0000 1de5 0000 28d1 0000     .............(..
    7aa8:	2905 0000 fffc ffff 0000 0000 28f5 0000     .)...........(..
    7ab8:	2931 0000 0000 0000                         1)......

00007ac0 <vtable for mbed::FileBase>:
	...
    7ac8:	2a71 0000 2aa5 0000 313c 0000 30ee 0000     q*...*..<1...0..
    7ad8:	311c 0000 3076 0000 311c 0000 3112 0000     .1..v0...1...1..
    7ae8:	311c 0000 3076 0000 30ee 0000 30ee 0000     .1..v0...0...0..
    7af8:	3112 0000 3076 0000 306e 0000 306e 0000     .1..v0..n0..n0..
    7b08:	306e 0000 3122 0000 34e0 0000 34da 0000     n0.."1...4...4..
    7b18:	34da 0000 34d0 0000 3430 0000 3430 0000     .4...4..04..04..
    7b28:	34c6 0000 34d0 0000 3430 0000 34c6 0000     .4...4..04...4..
    7b38:	3430 0000 34d0 0000 342e 0000 342e 0000     04...4...4...4..
    7b48:	342e 0000 3568 0000 42a4 0000 4240 0000     .4..h5...B..@B..
    7b58:	4288 0000 416e 0000 4288 0000 427c 0000     .B..nA...B..|B..
    7b68:	4288 0000 416e 0000 4240 0000 4240 0000     .B..nA..@B..@B..
    7b78:	427c 0000 416e 0000 4164 0000 4164 0000     |B..nA..dA..dA..
    7b88:	4164 0000 44c8 0000 4b74 0000 4d62 0000     dA...D..tK..bM..
    7b98:	4d62 0000 4b54 0000 4a3e 0000 4a3e 0000     bM..TK..>J..>J..
    7ba8:	4b46 0000 4b54 0000 4a3e 0000 4b46 0000     FK..TK..>J..FK..
    7bb8:	4a3e 0000 4b54 0000 4a3c 0000 4a3c 0000     >J..TK..<J..<J..
    7bc8:	4a3c 0000 4d6a 0000                         <J..jM..

00007bd0 <__sf_fake_stdin>:
	...

00007bf0 <__sf_fake_stdout>:
	...

00007c10 <__sf_fake_stderr>:
	...
    7c30:	0043 0000                                   C...

00007c34 <_global_impure_ptr>:
    7c34:	00d0 1000 2d23 2b30 0020 6c68 004c 6665     ....#-0+ .hlL.ef
    7c44:	4567 4746 3000 3231 3433 3635 3837 4139     gEFG.0123456789A
    7c54:	4342 4544 0046 3130 3332 3534 3736 3938     BCDEF.0123456789
    7c64:	6261 6463 6665 0000 7c8a 0000 7c8d 0000     abcdef...|...|..
    7c74:	7c90 0000 2d41 6146 662d 3938 3130 3332     .|..A-Fa-f890123
    7c84:	3534 3736 005d 2d2b 3000 0030 5878 0000          4567].+-.00.xX.

00007c93 <_ctype_>:
    7c93:	2000 2020 2020 2020 2020 2828 2828 2028     .         ((((( 
    7ca3:	2020 2020 2020 2020 2020 2020 2020 2020                     
    7cb3:	8820 1010 1010 1010 1010 1010 1010 1010      ...............
    7cc3:	0410 0404 0404 0404 0404 1004 1010 1010     ................
    7cd3:	1010 4141 4141 4141 0101 0101 0101 0101     ..AAAAAA........
    7ce3:	0101 0101 0101 0101 0101 0101 1010 1010     ................
    7cf3:	1010 4242 4242 4242 0202 0202 0202 0202     ..BBBBBB........
    7d03:	0202 0202 0202 0202 0202 0202 1010 1010     ................
    7d13:	0020 0000 0000 0000 0000 0000 0000 0000      ...............
	...

00007d94 <__EH_FRAME_BEGIN__>:
    7d94:	0000 0000                                   ....
