
SSCI824/mbedApp.elf:     file format elf32-littlearm
architecture: arm, flags 0x00000112:
EXEC_P, HAS_SYMS, D_PAGED
start address 0x000000c1


Disassembly of section .text:

00000000 <__isr_vector>:
       0:	10002000 	.word	0x10002000
       4:	000000c1 	.word	0x000000c1
       8:	00002339 	.word	0x00002339
       c:	0000233b 	.word	0x0000233b
	...
      2c:	0000233d 	.word	0x0000233d
	...
      38:	0000233f 	.word	0x0000233f
      3c:	00002341 	.word	0x00002341
      40:	00002343 	.word	0x00002343
      44:	00002343 	.word	0x00002343
      48:	00000000 	.word	0x00000000
      4c:	00002343 	.word	0x00002343
      50:	00002343 	.word	0x00002343
      54:	00002343 	.word	0x00002343
      58:	00000000 	.word	0x00000000
      5c:	00002343 	.word	0x00002343
      60:	00002343 	.word	0x00002343
      64:	00002343 	.word	0x00002343
      68:	00002343 	.word	0x00002343
      6c:	00002343 	.word	0x00002343
      70:	00002343 	.word	0x00002343
      74:	00002343 	.word	0x00002343
      78:	00002343 	.word	0x00002343
      7c:	00002343 	.word	0x00002343
      80:	00002343 	.word	0x00002343
      84:	00002343 	.word	0x00002343
      88:	00002343 	.word	0x00002343
      8c:	00002343 	.word	0x00002343
      90:	00002343 	.word	0x00002343
      94:	00002343 	.word	0x00002343
      98:	00002343 	.word	0x00002343
      9c:	00000000 	.word	0x00000000
      a0:	00002343 	.word	0x00002343
      a4:	00002343 	.word	0x00002343
      a8:	00002343 	.word	0x00002343
      ac:	00002343 	.word	0x00002343
      b0:	00002343 	.word	0x00002343
      b4:	00002343 	.word	0x00002343
      b8:	00002343 	.word	0x00002343
      bc:	00002343 	.word	0x00002343

000000c0 <Reset_Handler>:
      c0:	4907      	ldr	r1, [pc, #28]	; (e0 <Reset_Handler+0x20>)
      c2:	4a08      	ldr	r2, [pc, #32]	; (e4 <Reset_Handler+0x24>)
      c4:	4b08      	ldr	r3, [pc, #32]	; (e8 <Reset_Handler+0x28>)
      c6:	1a9b      	subs	r3, r3, r2
      c8:	dd05      	ble.n	d6 <Reset_Handler+0x16>
      ca:	2400      	movs	r4, #0
      cc:	5908      	ldr	r0, [r1, r4]
      ce:	5110      	str	r0, [r2, r4]
      d0:	3404      	adds	r4, #4
      d2:	429c      	cmp	r4, r3
      d4:	dbfa      	blt.n	cc <Reset_Handler+0xc>
      d6:	4805      	ldr	r0, [pc, #20]	; (ec <Reset_Handler+0x2c>)
      d8:	4780      	blx	r0
      da:	4805      	ldr	r0, [pc, #20]	; (f0 <Reset_Handler+0x30>)
      dc:	4700      	bx	r0
      de:	0000      	.short	0x0000
      e0:	00007d98 	.word	0x00007d98
      e4:	100000c0 	.word	0x100000c0
      e8:	10000144 	.word	0x10000144
      ec:	000000f5 	.word	0x000000f5
      f0:	00001859 	.word	0x00001859

000000f4 <SystemInit>:
      f4:	4b2b      	ldr	r3, [pc, #172]	; (1a4 <SystemInit+0xb0>)
      f6:	2280      	movs	r2, #128	; 0x80
      f8:	5899      	ldr	r1, [r3, r2]
      fa:	482b      	ldr	r0, [pc, #172]	; (1a8 <SystemInit+0xb4>)
      fc:	b510      	push	{r4, lr}
      fe:	4301      	orrs	r1, r0
     100:	5099      	str	r1, [r3, r2]
     102:	4a2a      	ldr	r2, [pc, #168]	; (1ac <SystemInit+0xb8>)
     104:	2118      	movs	r1, #24
     106:	6b90      	ldr	r0, [r2, #56]	; 0x38
     108:	24c0      	movs	r4, #192	; 0xc0
     10a:	4388      	bics	r0, r1
     10c:	6390      	str	r0, [r2, #56]	; 0x38
     10e:	6b50      	ldr	r0, [r2, #52]	; 0x34
     110:	b082      	sub	sp, #8
     112:	4388      	bics	r0, r1
     114:	6350      	str	r0, [r2, #52]	; 0x34
     116:	4926      	ldr	r1, [pc, #152]	; (1b0 <SystemInit+0xbc>)
     118:	22e0      	movs	r2, #224	; 0xe0
     11a:	0052      	lsls	r2, r2, #1
     11c:	5888      	ldr	r0, [r1, r2]
     11e:	43a0      	bics	r0, r4
     120:	5088      	str	r0, [r1, r2]
     122:	228e      	movs	r2, #142	; 0x8e
     124:	0092      	lsls	r2, r2, #2
     126:	5899      	ldr	r1, [r3, r2]
     128:	2020      	movs	r0, #32
     12a:	4381      	bics	r1, r0
     12c:	5099      	str	r1, [r3, r2]
     12e:	2300      	movs	r3, #0
     130:	9301      	str	r3, [sp, #4]
     132:	9b01      	ldr	r3, [sp, #4]
     134:	2bc7      	cmp	r3, #199	; 0xc7
     136:	d806      	bhi.n	146 <SystemInit+0x52>
     138:	46c0      	nop			; (mov r8, r8)
     13a:	9b01      	ldr	r3, [sp, #4]
     13c:	3301      	adds	r3, #1
     13e:	9301      	str	r3, [sp, #4]
     140:	9b01      	ldr	r3, [sp, #4]
     142:	2bc7      	cmp	r3, #199	; 0xc7
     144:	d9f8      	bls.n	138 <SystemInit+0x44>
     146:	4817      	ldr	r0, [pc, #92]	; (1a4 <SystemInit+0xb0>)
     148:	2200      	movs	r2, #0
     14a:	238e      	movs	r3, #142	; 0x8e
     14c:	6202      	str	r2, [r0, #32]
     14e:	009b      	lsls	r3, r3, #2
     150:	58c1      	ldr	r1, [r0, r3]
     152:	2480      	movs	r4, #128	; 0x80
     154:	43a1      	bics	r1, r4
     156:	50c1      	str	r1, [r0, r3]
     158:	2301      	movs	r3, #1
     15a:	6403      	str	r3, [r0, #64]	; 0x40
     15c:	2101      	movs	r1, #1
     15e:	6442      	str	r2, [r0, #68]	; 0x44
     160:	6443      	str	r3, [r0, #68]	; 0x44
     162:	6c43      	ldr	r3, [r0, #68]	; 0x44
     164:	4a0f      	ldr	r2, [pc, #60]	; (1a4 <SystemInit+0xb0>)
     166:	4219      	tst	r1, r3
     168:	d0fb      	beq.n	162 <SystemInit+0x6e>
     16a:	2324      	movs	r3, #36	; 0x24
     16c:	6093      	str	r3, [r2, #8]
     16e:	238e      	movs	r3, #142	; 0x8e
     170:	009b      	lsls	r3, r3, #2
     172:	58d1      	ldr	r1, [r2, r3]
     174:	2080      	movs	r0, #128	; 0x80
     176:	4381      	bics	r1, r0
     178:	50d1      	str	r1, [r2, r3]
     17a:	1c10      	adds	r0, r2, #0
     17c:	2101      	movs	r1, #1
     17e:	68c3      	ldr	r3, [r0, #12]
     180:	4a08      	ldr	r2, [pc, #32]	; (1a4 <SystemInit+0xb0>)
     182:	4219      	tst	r1, r3
     184:	d0fb      	beq.n	17e <SystemInit+0x8a>
     186:	2303      	movs	r3, #3
     188:	6713      	str	r3, [r2, #112]	; 0x70
     18a:	2300      	movs	r3, #0
     18c:	6753      	str	r3, [r2, #116]	; 0x74
     18e:	2301      	movs	r3, #1
     190:	6753      	str	r3, [r2, #116]	; 0x74
     192:	2101      	movs	r1, #1
     194:	6f53      	ldr	r3, [r2, #116]	; 0x74
     196:	4219      	tst	r1, r3
     198:	d0fc      	beq.n	194 <SystemInit+0xa0>
     19a:	4b02      	ldr	r3, [pc, #8]	; (1a4 <SystemInit+0xb0>)
     19c:	2202      	movs	r2, #2
     19e:	679a      	str	r2, [r3, #120]	; 0x78
     1a0:	b002      	add	sp, #8
     1a2:	bd10      	pop	{r4, pc}
     1a4:	40048000 	.word	0x40048000
     1a8:	00040080 	.word	0x00040080
     1ac:	40044000 	.word	0x40044000
     1b0:	4000c000 	.word	0x4000c000

000001b4 <__do_global_dtors_aux>:
     1b4:	b510      	push	{r4, lr}
     1b6:	4c06      	ldr	r4, [pc, #24]	; (1d0 <__do_global_dtors_aux+0x1c>)
     1b8:	7823      	ldrb	r3, [r4, #0]
     1ba:	2b00      	cmp	r3, #0
     1bc:	d107      	bne.n	1ce <__do_global_dtors_aux+0x1a>
     1be:	4b05      	ldr	r3, [pc, #20]	; (1d4 <__do_global_dtors_aux+0x20>)
     1c0:	2b00      	cmp	r3, #0
     1c2:	d002      	beq.n	1ca <__do_global_dtors_aux+0x16>
     1c4:	4804      	ldr	r0, [pc, #16]	; (1d8 <__do_global_dtors_aux+0x24>)
     1c6:	e000      	b.n	1ca <__do_global_dtors_aux+0x16>
     1c8:	bf00      	nop
     1ca:	2301      	movs	r3, #1
     1cc:	7023      	strb	r3, [r4, #0]
     1ce:	bd10      	pop	{r4, pc}
     1d0:	10000144 	.word	0x10000144
     1d4:	00000000 	.word	0x00000000
     1d8:	00007d94 	.word	0x00007d94

000001dc <frame_dummy>:
     1dc:	b508      	push	{r3, lr}
     1de:	4b08      	ldr	r3, [pc, #32]	; (200 <frame_dummy+0x24>)
     1e0:	2b00      	cmp	r3, #0
     1e2:	d003      	beq.n	1ec <frame_dummy+0x10>
     1e4:	4807      	ldr	r0, [pc, #28]	; (204 <frame_dummy+0x28>)
     1e6:	4908      	ldr	r1, [pc, #32]	; (208 <frame_dummy+0x2c>)
     1e8:	e000      	b.n	1ec <frame_dummy+0x10>
     1ea:	bf00      	nop
     1ec:	4807      	ldr	r0, [pc, #28]	; (20c <frame_dummy+0x30>)
     1ee:	6803      	ldr	r3, [r0, #0]
     1f0:	2b00      	cmp	r3, #0
     1f2:	d003      	beq.n	1fc <frame_dummy+0x20>
     1f4:	4b06      	ldr	r3, [pc, #24]	; (210 <frame_dummy+0x34>)
     1f6:	2b00      	cmp	r3, #0
     1f8:	d000      	beq.n	1fc <frame_dummy+0x20>
     1fa:	4798      	blx	r3
     1fc:	bd08      	pop	{r3, pc}
     1fe:	46c0      	nop			; (mov r8, r8)
     200:	00000000 	.word	0x00000000
     204:	00007d94 	.word	0x00007d94
     208:	10000148 	.word	0x10000148
     20c:	10000144 	.word	0x10000144
     210:	00000000 	.word	0x00000000

00000214 <mbed::SerialBase::~SerialBase()>:
     214:	4b01      	ldr	r3, [pc, #4]	; (21c <mbed::SerialBase::~SerialBase()+0x8>)
     216:	6003      	str	r3, [r0, #0]
     218:	4770      	bx	lr
     21a:	46c0      	nop			; (mov r8, r8)
     21c:	000077a0 	.word	0x000077a0

00000220 <mbed::SerialBase::~SerialBase()>:
     220:	b510      	push	{r4, lr}
     222:	4b03      	ldr	r3, [pc, #12]	; (230 <mbed::SerialBase::~SerialBase()+0x10>)
     224:	1c04      	adds	r4, r0, #0
     226:	6003      	str	r3, [r0, #0]
     228:	f002 fc90 	bl	2b4c <operator delete(void*)>
     22c:	1c20      	adds	r0, r4, #0
     22e:	bd10      	pop	{r4, pc}
     230:	000077a0 	.word	0x000077a0

00000234 <mbed::Serial::~Serial()>:
     234:	4b07      	ldr	r3, [pc, #28]	; (254 <mbed::Serial::~Serial()+0x20>)
     236:	b510      	push	{r4, lr}
     238:	1c1a      	adds	r2, r3, #0
     23a:	6003      	str	r3, [r0, #0]
     23c:	3218      	adds	r2, #24
     23e:	334c      	adds	r3, #76	; 0x4c
     240:	1c04      	adds	r4, r0, #0
     242:	6402      	str	r2, [r0, #64]	; 0x40
     244:	6443      	str	r3, [r0, #68]	; 0x44
     246:	3040      	adds	r0, #64	; 0x40
     248:	f002 f814 	bl	2274 <mbed::Stream::~Stream()>
     24c:	4b02      	ldr	r3, [pc, #8]	; (258 <mbed::Serial::~Serial()+0x24>)
     24e:	1c20      	adds	r0, r4, #0
     250:	6023      	str	r3, [r4, #0]
     252:	bd10      	pop	{r4, pc}
     254:	00007998 	.word	0x00007998
     258:	000077a0 	.word	0x000077a0

0000025c <non-virtual thunk to mbed::Serial::~Serial()>:
     25c:	b408      	push	{r3}
     25e:	4b02      	ldr	r3, [pc, #8]	; (268 <non-virtual thunk to mbed::Serial::~Serial()+0xc>)
     260:	469c      	mov	r12, r3
     262:	3844      	subs	r0, #68	; 0x44
     264:	bc08      	pop	{r3}
     266:	4760      	bx	r12
     268:	00000235 	.word	0x00000235

0000026c <non-virtual thunk to mbed::Serial::~Serial()>:
     26c:	b408      	push	{r3}
     26e:	4b02      	ldr	r3, [pc, #8]	; (278 <non-virtual thunk to mbed::Serial::~Serial()+0xc>)
     270:	469c      	mov	r12, r3
     272:	3840      	subs	r0, #64	; 0x40
     274:	bc08      	pop	{r3}
     276:	4760      	bx	r12
     278:	00000235 	.word	0x00000235

0000027c <mbed::Serial::~Serial()>:
     27c:	4b09      	ldr	r3, [pc, #36]	; (2a4 <mbed::Serial::~Serial()+0x28>)
     27e:	b510      	push	{r4, lr}
     280:	1c1a      	adds	r2, r3, #0
     282:	3218      	adds	r2, #24
     284:	6003      	str	r3, [r0, #0]
     286:	334c      	adds	r3, #76	; 0x4c
     288:	1c04      	adds	r4, r0, #0
     28a:	6402      	str	r2, [r0, #64]	; 0x40
     28c:	6443      	str	r3, [r0, #68]	; 0x44
     28e:	3040      	adds	r0, #64	; 0x40
     290:	f001 fff0 	bl	2274 <mbed::Stream::~Stream()>
     294:	4b04      	ldr	r3, [pc, #16]	; (2a8 <mbed::Serial::~Serial()+0x2c>)
     296:	1c20      	adds	r0, r4, #0
     298:	6023      	str	r3, [r4, #0]
     29a:	f002 fc57 	bl	2b4c <operator delete(void*)>
     29e:	1c20      	adds	r0, r4, #0
     2a0:	bd10      	pop	{r4, pc}
     2a2:	46c0      	nop			; (mov r8, r8)
     2a4:	00007998 	.word	0x00007998
     2a8:	000077a0 	.word	0x000077a0

000002ac <non-virtual thunk to mbed::Serial::~Serial()>:
     2ac:	b408      	push	{r3}
     2ae:	4b02      	ldr	r3, [pc, #8]	; (2b8 <non-virtual thunk to mbed::Serial::~Serial()+0xc>)
     2b0:	469c      	mov	r12, r3
     2b2:	3844      	subs	r0, #68	; 0x44
     2b4:	bc08      	pop	{r3}
     2b6:	4760      	bx	r12
     2b8:	0000027d 	.word	0x0000027d

000002bc <non-virtual thunk to mbed::Serial::~Serial()>:
     2bc:	b408      	push	{r3}
     2be:	4b02      	ldr	r3, [pc, #8]	; (2c8 <non-virtual thunk to mbed::Serial::~Serial()+0xc>)
     2c0:	469c      	mov	r12, r3
     2c2:	3840      	subs	r0, #64	; 0x40
     2c4:	bc08      	pop	{r3}
     2c6:	4760      	bx	r12
     2c8:	0000027d 	.word	0x0000027d
     2cc:	00000000 	.word	0x00000000

000002d0 <main>:
     2d0:	b5f0      	push	{r4, r5, r6, r7, lr}
     2d2:	465f      	mov	r7, r11
     2d4:	4656      	mov	r6, r10
     2d6:	464d      	mov	r5, r9
     2d8:	4644      	mov	r4, r8
     2da:	b4f0      	push	{r4, r5, r6, r7}
     2dc:	48ae      	ldr	r0, [pc, #696]	; (598 <main+0x2c8>)
     2de:	b089      	sub	sp, #36	; 0x24
     2e0:	2114      	movs	r1, #20
     2e2:	f001 fce9 	bl	1cb8 <pwmout_period_ms>
     2e6:	48ad      	ldr	r0, [pc, #692]	; (59c <main+0x2cc>)
     2e8:	2114      	movs	r1, #20
     2ea:	f001 fce5 	bl	1cb8 <pwmout_period_ms>
     2ee:	2114      	movs	r1, #20
     2f0:	48ab      	ldr	r0, [pc, #684]	; (5a0 <main+0x2d0>)
     2f2:	f001 fce1 	bl	1cb8 <pwmout_period_ms>
     2f6:	2100      	movs	r1, #0
     2f8:	4aaa      	ldr	r2, [pc, #680]	; (5a4 <main+0x2d4>)
     2fa:	9103      	str	r1, [sp, #12]
     2fc:	9106      	str	r1, [sp, #24]
     2fe:	49aa      	ldr	r1, [pc, #680]	; (5a8 <main+0x2d8>)
     300:	4693      	mov	r11, r2
     302:	468a      	mov	r10, r1
     304:	4aa9      	ldr	r2, [pc, #676]	; (5ac <main+0x2dc>)
     306:	49aa      	ldr	r1, [pc, #680]	; (5b0 <main+0x2e0>)
     308:	2300      	movs	r3, #0
     30a:	4691      	mov	r9, r2
     30c:	4688      	mov	r8, r1
     30e:	49a9      	ldr	r1, [pc, #676]	; (5b4 <main+0x2e4>)
     310:	694a      	ldr	r2, [r1, #20]
     312:	6849      	ldr	r1, [r1, #4]
     314:	6812      	ldr	r2, [r2, #0]
     316:	4211      	tst	r1, r2
     318:	d100      	bne.n	31c <main+0x4c>
     31a:	e112      	b.n	542 <main+0x272>
     31c:	2b01      	cmp	r3, #1
     31e:	d101      	bne.n	324 <main+0x54>
     320:	f000 fce9 	bl	cf6 <main+0xa26>
     324:	2b02      	cmp	r3, #2
     326:	d100      	bne.n	32a <main+0x5a>
     328:	e3cf      	b.n	aca <main+0x7fa>
     32a:	2b03      	cmp	r3, #3
     32c:	d049      	beq.n	3c2 <main+0xf2>
     32e:	2b04      	cmp	r3, #4
     330:	d101      	bne.n	336 <main+0x66>
     332:	f000 fdf7 	bl	f24 <main+0xc54>
     336:	2b05      	cmp	r3, #5
     338:	d101      	bne.n	33e <main+0x6e>
     33a:	f000 ff3f 	bl	11bc <main+0xeec>
     33e:	2b06      	cmp	r3, #6
     340:	d101      	bne.n	346 <main+0x76>
     342:	f001 f86c 	bl	141e <main+0x114e>
     346:	2b07      	cmp	r3, #7
     348:	d100      	bne.n	34c <main+0x7c>
     34a:	e1e9      	b.n	720 <main+0x450>
     34c:	2b08      	cmp	r3, #8
     34e:	d100      	bne.n	352 <main+0x82>
     350:	e1a2      	b.n	698 <main+0x3c8>
     352:	2b09      	cmp	r3, #9
     354:	d101      	bne.n	35a <main+0x8a>
     356:	f001 f968 	bl	162a <main+0x135a>
     35a:	2b0a      	cmp	r3, #10
     35c:	d100      	bne.n	360 <main+0x90>
     35e:	e28b      	b.n	878 <main+0x5a8>
     360:	2b0b      	cmp	r3, #11
     362:	d1d4      	bne.n	30e <main+0x3e>
     364:	4c94      	ldr	r4, [pc, #592]	; (5b8 <main+0x2e8>)
     366:	2196      	movs	r1, #150	; 0x96
     368:	488d      	ldr	r0, [pc, #564]	; (5a0 <main+0x2d0>)
     36a:	0109      	lsls	r1, r1, #4
     36c:	f001 fcce 	bl	1d0c <pwmout_pulsewidth_us>
     370:	4659      	mov	r1, r11
     372:	68cb      	ldr	r3, [r1, #12]
     374:	684a      	ldr	r2, [r1, #4]
     376:	4651      	mov	r1, r10
     378:	601a      	str	r2, [r3, #0]
     37a:	684a      	ldr	r2, [r1, #4]
     37c:	68cb      	ldr	r3, [r1, #12]
     37e:	21fe      	movs	r1, #254	; 0xfe
     380:	601a      	str	r2, [r3, #0]
     382:	4885      	ldr	r0, [pc, #532]	; (598 <main+0x2c8>)
     384:	0589      	lsls	r1, r1, #22
     386:	f001 fc71 	bl	1c6c <pwmout_write>
     38a:	4649      	mov	r1, r9
     38c:	68cb      	ldr	r3, [r1, #12]
     38e:	684a      	ldr	r2, [r1, #4]
     390:	4641      	mov	r1, r8
     392:	601a      	str	r2, [r3, #0]
     394:	684a      	ldr	r2, [r1, #4]
     396:	68cb      	ldr	r3, [r1, #12]
     398:	21fe      	movs	r1, #254	; 0xfe
     39a:	601a      	str	r2, [r3, #0]
     39c:	0589      	lsls	r1, r1, #22
     39e:	487f      	ldr	r0, [pc, #508]	; (59c <main+0x2cc>)
     3a0:	f001 fc64 	bl	1c6c <pwmout_write>
     3a4:	4885      	ldr	r0, [pc, #532]	; (5bc <main+0x2ec>)
     3a6:	f001 fd09 	bl	1dbc <wait>
     3aa:	4885      	ldr	r0, [pc, #532]	; (5c0 <main+0x2f0>)
     3ac:	1c21      	adds	r1, r4, #0
     3ae:	3040      	adds	r0, #64	; 0x40
     3b0:	f001 ffae 	bl	2310 <mbed::Stream::printf(char const*, ...)>
     3b4:	e7d7      	b.n	366 <main+0x96>
     3b6:	4882      	ldr	r0, [pc, #520]	; (5c0 <main+0x2f0>)
     3b8:	4982      	ldr	r1, [pc, #520]	; (5c4 <main+0x2f4>)
     3ba:	3040      	adds	r0, #64	; 0x40
     3bc:	f001 ffa8 	bl	2310 <mbed::Stream::printf(char const*, ...)>
     3c0:	9706      	str	r7, [sp, #24]
     3c2:	4881      	ldr	r0, [pc, #516]	; (5c8 <main+0x2f8>)
     3c4:	f001 fad8 	bl	1978 <analogin_read>
     3c8:	1c06      	adds	r6, r0, #0
     3ca:	4880      	ldr	r0, [pc, #512]	; (5cc <main+0x2fc>)
     3cc:	f001 fad4 	bl	1978 <analogin_read>
     3d0:	9007      	str	r0, [sp, #28]
     3d2:	487f      	ldr	r0, [pc, #508]	; (5d0 <main+0x300>)
     3d4:	f001 fad0 	bl	1978 <analogin_read>
     3d8:	9004      	str	r0, [sp, #16]
     3da:	9904      	ldr	r1, [sp, #16]
     3dc:	1c30      	adds	r0, r6, #0
     3de:	f003 f915 	bl	360c <__aeabi_fsub>
     3e2:	f005 f88f 	bl	5504 <__aeabi_f2d>
     3e6:	4b5b      	ldr	r3, [pc, #364]	; (554 <main+0x284>)
     3e8:	4a59      	ldr	r2, [pc, #356]	; (550 <main+0x280>)
     3ea:	f003 fb4b 	bl	3a84 <__aeabi_dadd>
     3ee:	f005 f8db 	bl	55a8 <__aeabi_d2f>
     3f2:	1c07      	adds	r7, r0, #0
     3f4:	9803      	ldr	r0, [sp, #12]
     3f6:	f005 f885 	bl	5504 <__aeabi_f2d>
     3fa:	1c04      	adds	r4, r0, #0
     3fc:	1c0d      	adds	r5, r1, #0
     3fe:	1c38      	adds	r0, r7, #0
     400:	9906      	ldr	r1, [sp, #24]
     402:	f002 fc91 	bl	2d28 <__aeabi_fadd>
     406:	f005 f87d 	bl	5504 <__aeabi_f2d>
     40a:	4a53      	ldr	r2, [pc, #332]	; (558 <main+0x288>)
     40c:	4b53      	ldr	r3, [pc, #332]	; (55c <main+0x28c>)
     40e:	f004 fabf 	bl	4990 <__aeabi_dmul>
     412:	1c02      	adds	r2, r0, #0
     414:	1c0b      	adds	r3, r1, #0
     416:	1c20      	adds	r0, r4, #0
     418:	1c29      	adds	r1, r5, #0
     41a:	f003 fb33 	bl	3a84 <__aeabi_dadd>
     41e:	f005 f8c3 	bl	55a8 <__aeabi_d2f>
     422:	9003      	str	r0, [sp, #12]
     424:	1c38      	adds	r0, r7, #0
     426:	f005 f86d 	bl	5504 <__aeabi_f2d>
     42a:	4a4d      	ldr	r2, [pc, #308]	; (560 <main+0x290>)
     42c:	4b4d      	ldr	r3, [pc, #308]	; (564 <main+0x294>)
     42e:	9000      	str	r0, [sp, #0]
     430:	9101      	str	r1, [sp, #4]
     432:	f004 faad 	bl	4990 <__aeabi_dmul>
     436:	1c04      	adds	r4, r0, #0
     438:	9803      	ldr	r0, [sp, #12]
     43a:	1c0d      	adds	r5, r1, #0
     43c:	f005 f862 	bl	5504 <__aeabi_f2d>
     440:	4a49      	ldr	r2, [pc, #292]	; (568 <main+0x298>)
     442:	4b4a      	ldr	r3, [pc, #296]	; (56c <main+0x29c>)
     444:	f004 faa4 	bl	4990 <__aeabi_dmul>
     448:	1c02      	adds	r2, r0, #0
     44a:	1c0b      	adds	r3, r1, #0
     44c:	1c20      	adds	r0, r4, #0
     44e:	1c29      	adds	r1, r5, #0
     450:	f003 fb18 	bl	3a84 <__aeabi_dadd>
     454:	1c04      	adds	r4, r0, #0
     456:	1c0d      	adds	r5, r1, #0
     458:	1c38      	adds	r0, r7, #0
     45a:	9906      	ldr	r1, [sp, #24]
     45c:	f003 f8d6 	bl	360c <__aeabi_fsub>
     460:	f005 f850 	bl	5504 <__aeabi_f2d>
     464:	4a42      	ldr	r2, [pc, #264]	; (570 <main+0x2a0>)
     466:	4b43      	ldr	r3, [pc, #268]	; (574 <main+0x2a4>)
     468:	f003 fe28 	bl	40bc <__aeabi_ddiv>
     46c:	f005 f89c 	bl	55a8 <__aeabi_d2f>
     470:	0040      	lsls	r0, r0, #1
     472:	0840      	lsrs	r0, r0, #1
     474:	f005 f846 	bl	5504 <__aeabi_f2d>
     478:	4a3f      	ldr	r2, [pc, #252]	; (578 <main+0x2a8>)
     47a:	4b40      	ldr	r3, [pc, #256]	; (57c <main+0x2ac>)
     47c:	f004 fa88 	bl	4990 <__aeabi_dmul>
     480:	1c02      	adds	r2, r0, #0
     482:	1c0b      	adds	r3, r1, #0
     484:	1c20      	adds	r0, r4, #0
     486:	1c29      	adds	r1, r5, #0
     488:	f003 fafc 	bl	3a84 <__aeabi_dadd>
     48c:	f005 f88c 	bl	55a8 <__aeabi_d2f>
     490:	4a3b      	ldr	r2, [pc, #236]	; (580 <main+0x2b0>)
     492:	4b3c      	ldr	r3, [pc, #240]	; (584 <main+0x2b4>)
     494:	1c04      	adds	r4, r0, #0
     496:	9800      	ldr	r0, [sp, #0]
     498:	9901      	ldr	r1, [sp, #4]
     49a:	f002 fbdf 	bl	2c5c <__aeabi_dcmpgt>
     49e:	2800      	cmp	r0, #0
     4a0:	d000      	beq.n	4a4 <main+0x1d4>
     4a2:	e26f      	b.n	984 <main+0x6b4>
     4a4:	9800      	ldr	r0, [sp, #0]
     4a6:	9901      	ldr	r1, [sp, #4]
     4a8:	4a37      	ldr	r2, [pc, #220]	; (588 <main+0x2b8>)
     4aa:	4b38      	ldr	r3, [pc, #224]	; (58c <main+0x2bc>)
     4ac:	f002 fbc2 	bl	2c34 <__aeabi_dcmplt>
     4b0:	465a      	mov	r2, r11
     4b2:	68d3      	ldr	r3, [r2, #12]
     4b4:	6851      	ldr	r1, [r2, #4]
     4b6:	4652      	mov	r2, r10
     4b8:	6019      	str	r1, [r3, #0]
     4ba:	6851      	ldr	r1, [r2, #4]
     4bc:	6913      	ldr	r3, [r2, #16]
     4be:	6019      	str	r1, [r3, #0]
     4c0:	2800      	cmp	r0, #0
     4c2:	d100      	bne.n	4c6 <main+0x1f6>
     4c4:	e205      	b.n	8d2 <main+0x602>
     4c6:	21fe      	movs	r1, #254	; 0xfe
     4c8:	4833      	ldr	r0, [pc, #204]	; (598 <main+0x2c8>)
     4ca:	0589      	lsls	r1, r1, #22
     4cc:	f001 fbce 	bl	1c6c <pwmout_write>
     4d0:	464a      	mov	r2, r9
     4d2:	68d3      	ldr	r3, [r2, #12]
     4d4:	6851      	ldr	r1, [r2, #4]
     4d6:	4642      	mov	r2, r8
     4d8:	6019      	str	r1, [r3, #0]
     4da:	6851      	ldr	r1, [r2, #4]
     4dc:	6913      	ldr	r3, [r2, #16]
     4de:	1c20      	adds	r0, r4, #0
     4e0:	6019      	str	r1, [r3, #0]
     4e2:	21fe      	movs	r1, #254	; 0xfe
     4e4:	0589      	lsls	r1, r1, #22
     4e6:	f002 fc1f 	bl	2d28 <__aeabi_fadd>
     4ea:	1c01      	adds	r1, r0, #0
     4ec:	482b      	ldr	r0, [pc, #172]	; (59c <main+0x2cc>)
     4ee:	f001 fbbd 	bl	1c6c <pwmout_write>
     4f2:	1c30      	adds	r0, r6, #0
     4f4:	f005 f806 	bl	5504 <__aeabi_f2d>
     4f8:	4a25      	ldr	r2, [pc, #148]	; (590 <main+0x2c0>)
     4fa:	4b26      	ldr	r3, [pc, #152]	; (594 <main+0x2c4>)
     4fc:	f002 fb9a 	bl	2c34 <__aeabi_dcmplt>
     500:	2800      	cmp	r0, #0
     502:	d100      	bne.n	506 <main+0x236>
     504:	e757      	b.n	3b6 <main+0xe6>
     506:	21fc      	movs	r1, #252	; 0xfc
     508:	9807      	ldr	r0, [sp, #28]
     50a:	0589      	lsls	r1, r1, #22
     50c:	f002 fbcc 	bl	2ca8 <__aeabi_fcmplt>
     510:	2800      	cmp	r0, #0
     512:	d100      	bne.n	516 <main+0x246>
     514:	e74f      	b.n	3b6 <main+0xe6>
     516:	9804      	ldr	r0, [sp, #16]
     518:	f004 fff4 	bl	5504 <__aeabi_f2d>
     51c:	4a1c      	ldr	r2, [pc, #112]	; (590 <main+0x2c0>)
     51e:	4b1d      	ldr	r3, [pc, #116]	; (594 <main+0x2c4>)
     520:	f002 fb88 	bl	2c34 <__aeabi_dcmplt>
     524:	2800      	cmp	r0, #0
     526:	d100      	bne.n	52a <main+0x25a>
     528:	e745      	b.n	3b6 <main+0xe6>
     52a:	482a      	ldr	r0, [pc, #168]	; (5d4 <main+0x304>)
     52c:	9706      	str	r7, [sp, #24]
     52e:	f001 fc45 	bl	1dbc <wait>
     532:	4920      	ldr	r1, [pc, #128]	; (5b4 <main+0x2e4>)
     534:	2304      	movs	r3, #4
     536:	694a      	ldr	r2, [r1, #20]
     538:	6849      	ldr	r1, [r1, #4]
     53a:	6812      	ldr	r2, [r2, #0]
     53c:	4211      	tst	r1, r2
     53e:	d000      	beq.n	542 <main+0x272>
     540:	e6ec      	b.n	31c <main+0x4c>
     542:	4817      	ldr	r0, [pc, #92]	; (5a0 <main+0x2d0>)
     544:	4924      	ldr	r1, [pc, #144]	; (5d8 <main+0x308>)
     546:	f001 fbe1 	bl	1d0c <pwmout_pulsewidth_us>
     54a:	2301      	movs	r3, #1
     54c:	e6df      	b.n	30e <main+0x3e>
     54e:	46c0      	nop			; (mov r8, r8)
     550:	d2f1a9fc 	.word	0xd2f1a9fc
     554:	3f70624d 	.word	0x3f70624d
     558:	47ae147b 	.word	0x47ae147b
     55c:	3f847ae1 	.word	0x3f847ae1
     560:	1eb851ec 	.word	0x1eb851ec
     564:	3fe9eb85 	.word	0x3fe9eb85
     568:	d2f1a9fc 	.word	0xd2f1a9fc
     56c:	3f60624d 	.word	0x3f60624d
     570:	47ae147b 	.word	0x47ae147b
     574:	3f947ae1 	.word	0x3f947ae1
     578:	020c49ba 	.word	0x020c49ba
     57c:	3f96872b 	.word	0x3f96872b
     580:	9999999a 	.word	0x9999999a
     584:	3fa99999 	.word	0x3fa99999
     588:	9999999a 	.word	0x9999999a
     58c:	bfa99999 	.word	0xbfa99999
     590:	cccccccd 	.word	0xcccccccd
     594:	3fdccccc 	.word	0x3fdccccc
     598:	10000264 	.word	0x10000264
     59c:	1000026c 	.word	0x1000026c
     5a0:	10000198 	.word	0x10000198
     5a4:	10000200 	.word	0x10000200
     5a8:	10000218 	.word	0x10000218
     5ac:	10000274 	.word	0x10000274
     5b0:	10000230 	.word	0x10000230
     5b4:	10000248 	.word	0x10000248
     5b8:	00007820 	.word	0x00007820
     5bc:	41200000 	.word	0x41200000
     5c0:	100001a0 	.word	0x100001a0
     5c4:	000077c0 	.word	0x000077c0
     5c8:	100001fc 	.word	0x100001fc
     5cc:	10000194 	.word	0x10000194
     5d0:	10000260 	.word	0x10000260
     5d4:	3d4ccccd 	.word	0x3d4ccccd
     5d8:	000008fc 	.word	0x000008fc
     5dc:	1c20      	adds	r0, r4, #0
     5de:	1c29      	adds	r1, r5, #0
     5e0:	4bd2      	ldr	r3, [pc, #840]	; (92c <main+0x65c>)
     5e2:	4ad1      	ldr	r2, [pc, #836]	; (928 <main+0x658>)
     5e4:	f002 fb3a 	bl	2c5c <__aeabi_dcmpgt>
     5e8:	2800      	cmp	r0, #0
     5ea:	d100      	bne.n	5ee <main+0x31e>
     5ec:	e1e9      	b.n	9c2 <main+0x6f2>
     5ee:	21fc      	movs	r1, #252	; 0xfc
     5f0:	1c30      	adds	r0, r6, #0
     5f2:	0589      	lsls	r1, r1, #22
     5f4:	f002 fb6c 	bl	2cd0 <__aeabi_fcmpgt>
     5f8:	2800      	cmp	r0, #0
     5fa:	d100      	bne.n	5fe <main+0x32e>
     5fc:	e1e1      	b.n	9c2 <main+0x6f2>
     5fe:	1c38      	adds	r0, r7, #0
     600:	f004 ff80 	bl	5504 <__aeabi_f2d>
     604:	4bc9      	ldr	r3, [pc, #804]	; (92c <main+0x65c>)
     606:	4ac8      	ldr	r2, [pc, #800]	; (928 <main+0x658>)
     608:	9000      	str	r0, [sp, #0]
     60a:	9101      	str	r1, [sp, #4]
     60c:	f002 fb26 	bl	2c5c <__aeabi_dcmpgt>
     610:	2800      	cmp	r0, #0
     612:	d000      	beq.n	616 <main+0x346>
     614:	e1f6      	b.n	a04 <main+0x734>
     616:	1c20      	adds	r0, r4, #0
     618:	1c29      	adds	r1, r5, #0
     61a:	4bc4      	ldr	r3, [pc, #784]	; (92c <main+0x65c>)
     61c:	4ac2      	ldr	r2, [pc, #776]	; (928 <main+0x658>)
     61e:	f002 fb09 	bl	2c34 <__aeabi_dcmplt>
     622:	2800      	cmp	r0, #0
     624:	d011      	beq.n	64a <main+0x37a>
     626:	9800      	ldr	r0, [sp, #0]
     628:	9901      	ldr	r1, [sp, #4]
     62a:	4bc0      	ldr	r3, [pc, #768]	; (92c <main+0x65c>)
     62c:	4abe      	ldr	r2, [pc, #760]	; (928 <main+0x658>)
     62e:	f002 fb15 	bl	2c5c <__aeabi_dcmpgt>
     632:	2800      	cmp	r0, #0
     634:	d000      	beq.n	638 <main+0x368>
     636:	e1ee      	b.n	a16 <main+0x746>
     638:	1c20      	adds	r0, r4, #0
     63a:	1c29      	adds	r1, r5, #0
     63c:	4bbb      	ldr	r3, [pc, #748]	; (92c <main+0x65c>)
     63e:	4aba      	ldr	r2, [pc, #744]	; (928 <main+0x658>)
     640:	f002 fb0c 	bl	2c5c <__aeabi_dcmpgt>
     644:	2800      	cmp	r0, #0
     646:	d100      	bne.n	64a <main+0x37a>
     648:	e1d2      	b.n	9f0 <main+0x720>
     64a:	21fc      	movs	r1, #252	; 0xfc
     64c:	1c30      	adds	r0, r6, #0
     64e:	0589      	lsls	r1, r1, #22
     650:	f002 fb2a 	bl	2ca8 <__aeabi_fcmplt>
     654:	2800      	cmp	r0, #0
     656:	d009      	beq.n	66c <main+0x39c>
     658:	1c38      	adds	r0, r7, #0
     65a:	f004 ff53 	bl	5504 <__aeabi_f2d>
     65e:	4bb3      	ldr	r3, [pc, #716]	; (92c <main+0x65c>)
     660:	4ab1      	ldr	r2, [pc, #708]	; (928 <main+0x658>)
     662:	f002 fafb 	bl	2c5c <__aeabi_dcmpgt>
     666:	2800      	cmp	r0, #0
     668:	d000      	beq.n	66c <main+0x39c>
     66a:	e1f2      	b.n	a52 <main+0x782>
     66c:	21fc      	movs	r1, #252	; 0xfc
     66e:	1c30      	adds	r0, r6, #0
     670:	0589      	lsls	r1, r1, #22
     672:	f002 fb2d 	bl	2cd0 <__aeabi_fcmpgt>
     676:	2800      	cmp	r0, #0
     678:	d009      	beq.n	68e <main+0x3be>
     67a:	1c38      	adds	r0, r7, #0
     67c:	f004 ff42 	bl	5504 <__aeabi_f2d>
     680:	4baa      	ldr	r3, [pc, #680]	; (92c <main+0x65c>)
     682:	4aa9      	ldr	r2, [pc, #676]	; (928 <main+0x658>)
     684:	f002 fad6 	bl	2c34 <__aeabi_dcmplt>
     688:	2800      	cmp	r0, #0
     68a:	d000      	beq.n	68e <main+0x3be>
     68c:	e1ff      	b.n	a8e <main+0x7be>
     68e:	48b0      	ldr	r0, [pc, #704]	; (950 <main+0x680>)
     690:	49b0      	ldr	r1, [pc, #704]	; (954 <main+0x684>)
     692:	3040      	adds	r0, #64	; 0x40
     694:	f001 fe3c 	bl	2310 <mbed::Stream::printf(char const*, ...)>
     698:	48af      	ldr	r0, [pc, #700]	; (958 <main+0x688>)
     69a:	f001 f96d 	bl	1978 <analogin_read>
     69e:	1c04      	adds	r4, r0, #0
     6a0:	48ae      	ldr	r0, [pc, #696]	; (95c <main+0x68c>)
     6a2:	f001 f969 	bl	1978 <analogin_read>
     6a6:	1c06      	adds	r6, r0, #0
     6a8:	48ad      	ldr	r0, [pc, #692]	; (960 <main+0x690>)
     6aa:	f001 f965 	bl	1978 <analogin_read>
     6ae:	1c07      	adds	r7, r0, #0
     6b0:	1c20      	adds	r0, r4, #0
     6b2:	f004 ff27 	bl	5504 <__aeabi_f2d>
     6b6:	4b9d      	ldr	r3, [pc, #628]	; (92c <main+0x65c>)
     6b8:	4a9b      	ldr	r2, [pc, #620]	; (928 <main+0x658>)
     6ba:	1c04      	adds	r4, r0, #0
     6bc:	1c0d      	adds	r5, r1, #0
     6be:	f002 fab9 	bl	2c34 <__aeabi_dcmplt>
     6c2:	2800      	cmp	r0, #0
     6c4:	d08a      	beq.n	5dc <main+0x30c>
     6c6:	21fc      	movs	r1, #252	; 0xfc
     6c8:	1c30      	adds	r0, r6, #0
     6ca:	0589      	lsls	r1, r1, #22
     6cc:	f002 faec 	bl	2ca8 <__aeabi_fcmplt>
     6d0:	2800      	cmp	r0, #0
     6d2:	d100      	bne.n	6d6 <main+0x406>
     6d4:	e782      	b.n	5dc <main+0x30c>
     6d6:	1c38      	adds	r0, r7, #0
     6d8:	f004 ff14 	bl	5504 <__aeabi_f2d>
     6dc:	4b93      	ldr	r3, [pc, #588]	; (92c <main+0x65c>)
     6de:	4a92      	ldr	r2, [pc, #584]	; (928 <main+0x658>)
     6e0:	f002 faa8 	bl	2c34 <__aeabi_dcmplt>
     6e4:	2800      	cmp	r0, #0
     6e6:	d100      	bne.n	6ea <main+0x41a>
     6e8:	e778      	b.n	5dc <main+0x30c>
     6ea:	489e      	ldr	r0, [pc, #632]	; (964 <main+0x694>)
     6ec:	f001 fb66 	bl	1dbc <wait>
     6f0:	2309      	movs	r3, #9
     6f2:	e60c      	b.n	30e <main+0x3e>
     6f4:	1c30      	adds	r0, r6, #0
     6f6:	f004 ff05 	bl	5504 <__aeabi_f2d>
     6fa:	4a8d      	ldr	r2, [pc, #564]	; (930 <main+0x660>)
     6fc:	4b8d      	ldr	r3, [pc, #564]	; (934 <main+0x664>)
     6fe:	f002 fa99 	bl	2c34 <__aeabi_dcmplt>
     702:	2800      	cmp	r0, #0
     704:	d155      	bne.n	7b2 <main+0x4e2>
     706:	1c38      	adds	r0, r7, #0
     708:	f004 fefc 	bl	5504 <__aeabi_f2d>
     70c:	4a88      	ldr	r2, [pc, #544]	; (930 <main+0x660>)
     70e:	4b89      	ldr	r3, [pc, #548]	; (934 <main+0x664>)
     710:	f002 fa90 	bl	2c34 <__aeabi_dcmplt>
     714:	2800      	cmp	r0, #0
     716:	d14c      	bne.n	7b2 <main+0x4e2>
     718:	4893      	ldr	r0, [pc, #588]	; (968 <main+0x698>)
     71a:	4994      	ldr	r1, [pc, #592]	; (96c <main+0x69c>)
     71c:	f001 fdf8 	bl	2310 <mbed::Stream::printf(char const*, ...)>
     720:	488d      	ldr	r0, [pc, #564]	; (958 <main+0x688>)
     722:	f001 f929 	bl	1978 <analogin_read>
     726:	1c04      	adds	r4, r0, #0
     728:	488c      	ldr	r0, [pc, #560]	; (95c <main+0x68c>)
     72a:	f001 f925 	bl	1978 <analogin_read>
     72e:	1c06      	adds	r6, r0, #0
     730:	488b      	ldr	r0, [pc, #556]	; (960 <main+0x690>)
     732:	f001 f921 	bl	1978 <analogin_read>
     736:	4659      	mov	r1, r11
     738:	68cb      	ldr	r3, [r1, #12]
     73a:	684a      	ldr	r2, [r1, #4]
     73c:	4651      	mov	r1, r10
     73e:	601a      	str	r2, [r3, #0]
     740:	684a      	ldr	r2, [r1, #4]
     742:	690b      	ldr	r3, [r1, #16]
     744:	1c07      	adds	r7, r0, #0
     746:	601a      	str	r2, [r3, #0]
     748:	4889      	ldr	r0, [pc, #548]	; (970 <main+0x6a0>)
     74a:	498a      	ldr	r1, [pc, #552]	; (974 <main+0x6a4>)
     74c:	f001 fa8e 	bl	1c6c <pwmout_write>
     750:	4649      	mov	r1, r9
     752:	68cb      	ldr	r3, [r1, #12]
     754:	684a      	ldr	r2, [r1, #4]
     756:	4641      	mov	r1, r8
     758:	601a      	str	r2, [r3, #0]
     75a:	684a      	ldr	r2, [r1, #4]
     75c:	690b      	ldr	r3, [r1, #16]
     75e:	4886      	ldr	r0, [pc, #536]	; (978 <main+0x6a8>)
     760:	601a      	str	r2, [r3, #0]
     762:	4986      	ldr	r1, [pc, #536]	; (97c <main+0x6ac>)
     764:	f001 fa82 	bl	1c6c <pwmout_write>
     768:	1c20      	adds	r0, r4, #0
     76a:	f004 fecb 	bl	5504 <__aeabi_f2d>
     76e:	4a72      	ldr	r2, [pc, #456]	; (938 <main+0x668>)
     770:	4b72      	ldr	r3, [pc, #456]	; (93c <main+0x66c>)
     772:	1c04      	adds	r4, r0, #0
     774:	1c0d      	adds	r5, r1, #0
     776:	f002 fa71 	bl	2c5c <__aeabi_dcmpgt>
     77a:	2800      	cmp	r0, #0
     77c:	d111      	bne.n	7a2 <main+0x4d2>
     77e:	1c30      	adds	r0, r6, #0
     780:	f004 fec0 	bl	5504 <__aeabi_f2d>
     784:	4a6c      	ldr	r2, [pc, #432]	; (938 <main+0x668>)
     786:	4b6d      	ldr	r3, [pc, #436]	; (93c <main+0x66c>)
     788:	f002 fa68 	bl	2c5c <__aeabi_dcmpgt>
     78c:	2800      	cmp	r0, #0
     78e:	d108      	bne.n	7a2 <main+0x4d2>
     790:	1c38      	adds	r0, r7, #0
     792:	f004 feb7 	bl	5504 <__aeabi_f2d>
     796:	4a68      	ldr	r2, [pc, #416]	; (938 <main+0x668>)
     798:	4b68      	ldr	r3, [pc, #416]	; (93c <main+0x66c>)
     79a:	f002 fa5f 	bl	2c5c <__aeabi_dcmpgt>
     79e:	2800      	cmp	r0, #0
     7a0:	d0ba      	beq.n	718 <main+0x448>
     7a2:	1c20      	adds	r0, r4, #0
     7a4:	1c29      	adds	r1, r5, #0
     7a6:	4a62      	ldr	r2, [pc, #392]	; (930 <main+0x660>)
     7a8:	4b62      	ldr	r3, [pc, #392]	; (934 <main+0x664>)
     7aa:	f002 fa43 	bl	2c34 <__aeabi_dcmplt>
     7ae:	2800      	cmp	r0, #0
     7b0:	d0a0      	beq.n	6f4 <main+0x424>
     7b2:	2308      	movs	r3, #8
     7b4:	e5ab      	b.n	30e <main+0x3e>
     7b6:	21fc      	movs	r1, #252	; 0xfc
     7b8:	1c30      	adds	r0, r6, #0
     7ba:	0589      	lsls	r1, r1, #22
     7bc:	f002 fa88 	bl	2cd0 <__aeabi_fcmpgt>
     7c0:	2800      	cmp	r0, #0
     7c2:	d071      	beq.n	8a8 <main+0x5d8>
     7c4:	1c38      	adds	r0, r7, #0
     7c6:	f004 fe9d 	bl	5504 <__aeabi_f2d>
     7ca:	4b58      	ldr	r3, [pc, #352]	; (92c <main+0x65c>)
     7cc:	4a56      	ldr	r2, [pc, #344]	; (928 <main+0x658>)
     7ce:	9000      	str	r0, [sp, #0]
     7d0:	9101      	str	r1, [sp, #4]
     7d2:	f002 fa43 	bl	2c5c <__aeabi_dcmpgt>
     7d6:	2800      	cmp	r0, #0
     7d8:	d001      	beq.n	7de <main+0x50e>
     7da:	f000 fefd 	bl	15d8 <main+0x1308>
     7de:	1c20      	adds	r0, r4, #0
     7e0:	1c29      	adds	r1, r5, #0
     7e2:	4b52      	ldr	r3, [pc, #328]	; (92c <main+0x65c>)
     7e4:	4a50      	ldr	r2, [pc, #320]	; (928 <main+0x658>)
     7e6:	f002 fa25 	bl	2c34 <__aeabi_dcmplt>
     7ea:	2800      	cmp	r0, #0
     7ec:	d013      	beq.n	816 <main+0x546>
     7ee:	9800      	ldr	r0, [sp, #0]
     7f0:	9901      	ldr	r1, [sp, #4]
     7f2:	4b4e      	ldr	r3, [pc, #312]	; (92c <main+0x65c>)
     7f4:	4a4c      	ldr	r2, [pc, #304]	; (928 <main+0x658>)
     7f6:	f002 fa31 	bl	2c5c <__aeabi_dcmpgt>
     7fa:	2800      	cmp	r0, #0
     7fc:	d001      	beq.n	802 <main+0x532>
     7fe:	f000 fecc 	bl	159a <main+0x12ca>
     802:	1c20      	adds	r0, r4, #0
     804:	1c29      	adds	r1, r5, #0
     806:	4b49      	ldr	r3, [pc, #292]	; (92c <main+0x65c>)
     808:	4a47      	ldr	r2, [pc, #284]	; (928 <main+0x658>)
     80a:	f002 fa27 	bl	2c5c <__aeabi_dcmpgt>
     80e:	2800      	cmp	r0, #0
     810:	d101      	bne.n	816 <main+0x546>
     812:	f000 fcc7 	bl	11a4 <main+0xed4>
     816:	21fc      	movs	r1, #252	; 0xfc
     818:	1c30      	adds	r0, r6, #0
     81a:	0589      	lsls	r1, r1, #22
     81c:	f002 fa44 	bl	2ca8 <__aeabi_fcmplt>
     820:	2800      	cmp	r0, #0
     822:	d00a      	beq.n	83a <main+0x56a>
     824:	1c38      	adds	r0, r7, #0
     826:	f004 fe6d 	bl	5504 <__aeabi_f2d>
     82a:	4b40      	ldr	r3, [pc, #256]	; (92c <main+0x65c>)
     82c:	4a3e      	ldr	r2, [pc, #248]	; (928 <main+0x658>)
     82e:	f002 fa15 	bl	2c5c <__aeabi_dcmpgt>
     832:	2800      	cmp	r0, #0
     834:	d001      	beq.n	83a <main+0x56a>
     836:	f000 fed9 	bl	15ec <main+0x131c>
     83a:	21fc      	movs	r1, #252	; 0xfc
     83c:	1c30      	adds	r0, r6, #0
     83e:	0589      	lsls	r1, r1, #22
     840:	f002 fa46 	bl	2cd0 <__aeabi_fcmpgt>
     844:	2800      	cmp	r0, #0
     846:	d00a      	beq.n	85e <main+0x58e>
     848:	1c38      	adds	r0, r7, #0
     84a:	f004 fe5b 	bl	5504 <__aeabi_f2d>
     84e:	4b37      	ldr	r3, [pc, #220]	; (92c <main+0x65c>)
     850:	4a35      	ldr	r2, [pc, #212]	; (928 <main+0x658>)
     852:	f002 f9ef 	bl	2c34 <__aeabi_dcmplt>
     856:	2800      	cmp	r0, #0
     858:	d001      	beq.n	85e <main+0x58e>
     85a:	f000 fe7f 	bl	155c <main+0x128c>
     85e:	4848      	ldr	r0, [pc, #288]	; (980 <main+0x6b0>)
     860:	f001 f88a 	bl	1978 <analogin_read>
     864:	f004 fe4e 	bl	5504 <__aeabi_f2d>
     868:	4a35      	ldr	r2, [pc, #212]	; (940 <main+0x670>)
     86a:	4b36      	ldr	r3, [pc, #216]	; (944 <main+0x674>)
     86c:	f002 f9f6 	bl	2c5c <__aeabi_dcmpgt>
     870:	2800      	cmp	r0, #0
     872:	d001      	beq.n	878 <main+0x5a8>
     874:	f000 fe4b 	bl	150e <main+0x123e>
     878:	4837      	ldr	r0, [pc, #220]	; (958 <main+0x688>)
     87a:	f001 f87d 	bl	1978 <analogin_read>
     87e:	1c04      	adds	r4, r0, #0
     880:	4836      	ldr	r0, [pc, #216]	; (95c <main+0x68c>)
     882:	f001 f879 	bl	1978 <analogin_read>
     886:	1c06      	adds	r6, r0, #0
     888:	4835      	ldr	r0, [pc, #212]	; (960 <main+0x690>)
     88a:	f001 f875 	bl	1978 <analogin_read>
     88e:	1c07      	adds	r7, r0, #0
     890:	1c20      	adds	r0, r4, #0
     892:	f004 fe37 	bl	5504 <__aeabi_f2d>
     896:	4b25      	ldr	r3, [pc, #148]	; (92c <main+0x65c>)
     898:	4a23      	ldr	r2, [pc, #140]	; (928 <main+0x658>)
     89a:	1c04      	adds	r4, r0, #0
     89c:	1c0d      	adds	r5, r1, #0
     89e:	f002 f9dd 	bl	2c5c <__aeabi_dcmpgt>
     8a2:	2800      	cmp	r0, #0
     8a4:	d000      	beq.n	8a8 <main+0x5d8>
     8a6:	e786      	b.n	7b6 <main+0x4e6>
     8a8:	1c20      	adds	r0, r4, #0
     8aa:	1c29      	adds	r1, r5, #0
     8ac:	4b1f      	ldr	r3, [pc, #124]	; (92c <main+0x65c>)
     8ae:	4a1e      	ldr	r2, [pc, #120]	; (928 <main+0x658>)
     8b0:	f002 f9c0 	bl	2c34 <__aeabi_dcmplt>
     8b4:	2800      	cmp	r0, #0
     8b6:	d0a4      	beq.n	802 <main+0x532>
     8b8:	21fc      	movs	r1, #252	; 0xfc
     8ba:	1c30      	adds	r0, r6, #0
     8bc:	0589      	lsls	r1, r1, #22
     8be:	f002 fa07 	bl	2cd0 <__aeabi_fcmpgt>
     8c2:	2800      	cmp	r0, #0
     8c4:	d09d      	beq.n	802 <main+0x532>
     8c6:	1c38      	adds	r0, r7, #0
     8c8:	f004 fe1c 	bl	5504 <__aeabi_f2d>
     8cc:	9000      	str	r0, [sp, #0]
     8ce:	9101      	str	r1, [sp, #4]
     8d0:	e78d      	b.n	7ee <main+0x51e>
     8d2:	1c20      	adds	r0, r4, #0
     8d4:	f004 fe16 	bl	5504 <__aeabi_f2d>
     8d8:	1c04      	adds	r4, r0, #0
     8da:	1c0d      	adds	r5, r1, #0
     8dc:	1c22      	adds	r2, r4, #0
     8de:	1c2b      	adds	r3, r5, #0
     8e0:	4819      	ldr	r0, [pc, #100]	; (948 <main+0x678>)
     8e2:	491a      	ldr	r1, [pc, #104]	; (94c <main+0x67c>)
     8e4:	f004 fae4 	bl	4eb0 <__aeabi_dsub>
     8e8:	f004 fe5e 	bl	55a8 <__aeabi_d2f>
     8ec:	1c01      	adds	r1, r0, #0
     8ee:	4820      	ldr	r0, [pc, #128]	; (970 <main+0x6a0>)
     8f0:	f001 f9bc 	bl	1c6c <pwmout_write>
     8f4:	464a      	mov	r2, r9
     8f6:	68d3      	ldr	r3, [r2, #12]
     8f8:	6851      	ldr	r1, [r2, #4]
     8fa:	4642      	mov	r2, r8
     8fc:	6019      	str	r1, [r3, #0]
     8fe:	6851      	ldr	r1, [r2, #4]
     900:	6913      	ldr	r3, [r2, #16]
     902:	1c20      	adds	r0, r4, #0
     904:	6019      	str	r1, [r3, #0]
     906:	4a10      	ldr	r2, [pc, #64]	; (948 <main+0x678>)
     908:	4b10      	ldr	r3, [pc, #64]	; (94c <main+0x67c>)
     90a:	1c29      	adds	r1, r5, #0
     90c:	f003 f8ba 	bl	3a84 <__aeabi_dadd>
     910:	f004 fe4a 	bl	55a8 <__aeabi_d2f>
     914:	1c01      	adds	r1, r0, #0
     916:	4818      	ldr	r0, [pc, #96]	; (978 <main+0x6a8>)
     918:	f001 f9a8 	bl	1c6c <pwmout_write>
     91c:	2200      	movs	r2, #0
     91e:	9203      	str	r2, [sp, #12]
     920:	e5e7      	b.n	4f2 <main+0x222>
     922:	46c0      	nop			; (mov r8, r8)
     924:	46c0      	nop			; (mov r8, r8)
     926:	46c0      	nop			; (mov r8, r8)
     928:	cccccccd 	.word	0xcccccccd
     92c:	3fdccccc 	.word	0x3fdccccc
     930:	9999999a 	.word	0x9999999a
     934:	3fd99999 	.word	0x3fd99999
     938:	33333333 	.word	0x33333333
     93c:	3fe33333 	.word	0x3fe33333
     940:	cccccccd 	.word	0xcccccccd
     944:	3feccccc 	.word	0x3feccccc
     948:	9999999a 	.word	0x9999999a
     94c:	3fe99999 	.word	0x3fe99999
     950:	100001a0 	.word	0x100001a0
     954:	000077fc 	.word	0x000077fc
     958:	100001fc 	.word	0x100001fc
     95c:	10000194 	.word	0x10000194
     960:	10000260 	.word	0x10000260
     964:	3d4ccccd 	.word	0x3d4ccccd
     968:	100001e0 	.word	0x100001e0
     96c:	000077f0 	.word	0x000077f0
     970:	10000264 	.word	0x10000264
     974:	3e4ccccd 	.word	0x3e4ccccd
     978:	1000026c 	.word	0x1000026c
     97c:	3f4ccccd 	.word	0x3f4ccccd
     980:	10000178 	.word	0x10000178
     984:	465a      	mov	r2, r11
     986:	68d3      	ldr	r3, [r2, #12]
     988:	6851      	ldr	r1, [r2, #4]
     98a:	4652      	mov	r2, r10
     98c:	6019      	str	r1, [r3, #0]
     98e:	6851      	ldr	r1, [r2, #4]
     990:	6913      	ldr	r3, [r2, #16]
     992:	20fe      	movs	r0, #254	; 0xfe
     994:	6019      	str	r1, [r3, #0]
     996:	0580      	lsls	r0, r0, #22
     998:	1c21      	adds	r1, r4, #0
     99a:	f002 fe37 	bl	360c <__aeabi_fsub>
     99e:	1c01      	adds	r1, r0, #0
     9a0:	48d9      	ldr	r0, [pc, #868]	; (d08 <main+0xa38>)
     9a2:	f001 f963 	bl	1c6c <pwmout_write>
     9a6:	464a      	mov	r2, r9
     9a8:	68d3      	ldr	r3, [r2, #12]
     9aa:	6851      	ldr	r1, [r2, #4]
     9ac:	4642      	mov	r2, r8
     9ae:	6019      	str	r1, [r3, #0]
     9b0:	6851      	ldr	r1, [r2, #4]
     9b2:	6913      	ldr	r3, [r2, #16]
     9b4:	48d5      	ldr	r0, [pc, #852]	; (d0c <main+0xa3c>)
     9b6:	6019      	str	r1, [r3, #0]
     9b8:	21fe      	movs	r1, #254	; 0xfe
     9ba:	0589      	lsls	r1, r1, #22
     9bc:	f001 f956 	bl	1c6c <pwmout_write>
     9c0:	e597      	b.n	4f2 <main+0x222>
     9c2:	1c20      	adds	r0, r4, #0
     9c4:	1c29      	adds	r1, r5, #0
     9c6:	4bcf      	ldr	r3, [pc, #828]	; (d04 <main+0xa34>)
     9c8:	4acd      	ldr	r2, [pc, #820]	; (d00 <main+0xa30>)
     9ca:	f002 f933 	bl	2c34 <__aeabi_dcmplt>
     9ce:	2800      	cmp	r0, #0
     9d0:	d100      	bne.n	9d4 <main+0x704>
     9d2:	e631      	b.n	638 <main+0x368>
     9d4:	21fc      	movs	r1, #252	; 0xfc
     9d6:	1c30      	adds	r0, r6, #0
     9d8:	0589      	lsls	r1, r1, #22
     9da:	f002 f979 	bl	2cd0 <__aeabi_fcmpgt>
     9de:	2800      	cmp	r0, #0
     9e0:	d100      	bne.n	9e4 <main+0x714>
     9e2:	e629      	b.n	638 <main+0x368>
     9e4:	1c38      	adds	r0, r7, #0
     9e6:	f004 fd8d 	bl	5504 <__aeabi_f2d>
     9ea:	9000      	str	r0, [sp, #0]
     9ec:	9101      	str	r1, [sp, #4]
     9ee:	e61a      	b.n	626 <main+0x356>
     9f0:	1c20      	adds	r0, r4, #0
     9f2:	1c29      	adds	r1, r5, #0
     9f4:	4bc3      	ldr	r3, [pc, #780]	; (d04 <main+0xa34>)
     9f6:	4ac2      	ldr	r2, [pc, #776]	; (d00 <main+0xa30>)
     9f8:	f002 f930 	bl	2c5c <__aeabi_dcmpgt>
     9fc:	2800      	cmp	r0, #0
     9fe:	d100      	bne.n	a02 <main+0x732>
     a00:	e645      	b.n	68e <main+0x3be>
     a02:	e633      	b.n	66c <main+0x39c>
     a04:	48c2      	ldr	r0, [pc, #776]	; (d10 <main+0xa40>)
     a06:	f001 f9d9 	bl	1dbc <wait>
     a0a:	2196      	movs	r1, #150	; 0x96
     a0c:	48c1      	ldr	r0, [pc, #772]	; (d14 <main+0xa44>)
     a0e:	0109      	lsls	r1, r1, #4
     a10:	f001 f97c 	bl	1d0c <pwmout_pulsewidth_us>
     a14:	e63b      	b.n	68e <main+0x3be>
     a16:	2196      	movs	r1, #150	; 0x96
     a18:	48be      	ldr	r0, [pc, #760]	; (d14 <main+0xa44>)
     a1a:	0109      	lsls	r1, r1, #4
     a1c:	f001 f976 	bl	1d0c <pwmout_pulsewidth_us>
     a20:	4659      	mov	r1, r11
     a22:	68cb      	ldr	r3, [r1, #12]
     a24:	684a      	ldr	r2, [r1, #4]
     a26:	4651      	mov	r1, r10
     a28:	601a      	str	r2, [r3, #0]
     a2a:	684a      	ldr	r2, [r1, #4]
     a2c:	690b      	ldr	r3, [r1, #16]
     a2e:	48b6      	ldr	r0, [pc, #728]	; (d08 <main+0xa38>)
     a30:	601a      	str	r2, [r3, #0]
     a32:	49b9      	ldr	r1, [pc, #740]	; (d18 <main+0xa48>)
     a34:	f001 f91a 	bl	1c6c <pwmout_write>
     a38:	4649      	mov	r1, r9
     a3a:	68cb      	ldr	r3, [r1, #12]
     a3c:	684a      	ldr	r2, [r1, #4]
     a3e:	4641      	mov	r1, r8
     a40:	601a      	str	r2, [r3, #0]
     a42:	684a      	ldr	r2, [r1, #4]
     a44:	690b      	ldr	r3, [r1, #16]
     a46:	48b1      	ldr	r0, [pc, #708]	; (d0c <main+0xa3c>)
     a48:	601a      	str	r2, [r3, #0]
     a4a:	49b4      	ldr	r1, [pc, #720]	; (d1c <main+0xa4c>)
     a4c:	f001 f90e 	bl	1c6c <pwmout_write>
     a50:	e61d      	b.n	68e <main+0x3be>
     a52:	2196      	movs	r1, #150	; 0x96
     a54:	48af      	ldr	r0, [pc, #700]	; (d14 <main+0xa44>)
     a56:	0109      	lsls	r1, r1, #4
     a58:	f001 f958 	bl	1d0c <pwmout_pulsewidth_us>
     a5c:	4659      	mov	r1, r11
     a5e:	68cb      	ldr	r3, [r1, #12]
     a60:	684a      	ldr	r2, [r1, #4]
     a62:	4651      	mov	r1, r10
     a64:	601a      	str	r2, [r3, #0]
     a66:	684a      	ldr	r2, [r1, #4]
     a68:	690b      	ldr	r3, [r1, #16]
     a6a:	48a7      	ldr	r0, [pc, #668]	; (d08 <main+0xa38>)
     a6c:	601a      	str	r2, [r3, #0]
     a6e:	49ac      	ldr	r1, [pc, #688]	; (d20 <main+0xa50>)
     a70:	f001 f8fc 	bl	1c6c <pwmout_write>
     a74:	4649      	mov	r1, r9
     a76:	68cb      	ldr	r3, [r1, #12]
     a78:	684a      	ldr	r2, [r1, #4]
     a7a:	4641      	mov	r1, r8
     a7c:	601a      	str	r2, [r3, #0]
     a7e:	684a      	ldr	r2, [r1, #4]
     a80:	690b      	ldr	r3, [r1, #16]
     a82:	48a2      	ldr	r0, [pc, #648]	; (d0c <main+0xa3c>)
     a84:	601a      	str	r2, [r3, #0]
     a86:	49a6      	ldr	r1, [pc, #664]	; (d20 <main+0xa50>)
     a88:	f001 f8f0 	bl	1c6c <pwmout_write>
     a8c:	e5ff      	b.n	68e <main+0x3be>
     a8e:	2196      	movs	r1, #150	; 0x96
     a90:	48a0      	ldr	r0, [pc, #640]	; (d14 <main+0xa44>)
     a92:	0109      	lsls	r1, r1, #4
     a94:	f001 f93a 	bl	1d0c <pwmout_pulsewidth_us>
     a98:	4659      	mov	r1, r11
     a9a:	68cb      	ldr	r3, [r1, #12]
     a9c:	684a      	ldr	r2, [r1, #4]
     a9e:	4651      	mov	r1, r10
     aa0:	601a      	str	r2, [r3, #0]
     aa2:	684a      	ldr	r2, [r1, #4]
     aa4:	690b      	ldr	r3, [r1, #16]
     aa6:	4898      	ldr	r0, [pc, #608]	; (d08 <main+0xa38>)
     aa8:	601a      	str	r2, [r3, #0]
     aaa:	499c      	ldr	r1, [pc, #624]	; (d1c <main+0xa4c>)
     aac:	f001 f8de 	bl	1c6c <pwmout_write>
     ab0:	4649      	mov	r1, r9
     ab2:	68cb      	ldr	r3, [r1, #12]
     ab4:	684a      	ldr	r2, [r1, #4]
     ab6:	4641      	mov	r1, r8
     ab8:	601a      	str	r2, [r3, #0]
     aba:	684a      	ldr	r2, [r1, #4]
     abc:	690b      	ldr	r3, [r1, #16]
     abe:	4893      	ldr	r0, [pc, #588]	; (d0c <main+0xa3c>)
     ac0:	601a      	str	r2, [r3, #0]
     ac2:	4995      	ldr	r1, [pc, #596]	; (d18 <main+0xa48>)
     ac4:	f001 f8d2 	bl	1c6c <pwmout_write>
     ac8:	e5e1      	b.n	68e <main+0x3be>
     aca:	4e96      	ldr	r6, [pc, #600]	; (d24 <main+0xa54>)
     acc:	1c37      	adds	r7, r6, #0
     ace:	e050      	b.n	b72 <main+0x8a2>
     ad0:	21fc      	movs	r1, #252	; 0xfc
     ad2:	1c30      	adds	r0, r6, #0
     ad4:	0589      	lsls	r1, r1, #22
     ad6:	f002 f8fb 	bl	2cd0 <__aeabi_fcmpgt>
     ada:	2800      	cmp	r0, #0
     adc:	d060      	beq.n	ba0 <main+0x8d0>
     ade:	9800      	ldr	r0, [sp, #0]
     ae0:	f004 fd10 	bl	5504 <__aeabi_f2d>
     ae4:	4b87      	ldr	r3, [pc, #540]	; (d04 <main+0xa34>)
     ae6:	4a86      	ldr	r2, [pc, #536]	; (d00 <main+0xa30>)
     ae8:	9004      	str	r0, [sp, #16]
     aea:	9105      	str	r1, [sp, #20]
     aec:	f002 f8b6 	bl	2c5c <__aeabi_dcmpgt>
     af0:	2800      	cmp	r0, #0
     af2:	d000      	beq.n	af6 <main+0x826>
     af4:	e09c      	b.n	c30 <main+0x960>
     af6:	1c20      	adds	r0, r4, #0
     af8:	1c29      	adds	r1, r5, #0
     afa:	4b82      	ldr	r3, [pc, #520]	; (d04 <main+0xa34>)
     afc:	4a80      	ldr	r2, [pc, #512]	; (d00 <main+0xa30>)
     afe:	f002 f899 	bl	2c34 <__aeabi_dcmplt>
     b02:	2800      	cmp	r0, #0
     b04:	d010      	beq.n	b28 <main+0x858>
     b06:	9804      	ldr	r0, [sp, #16]
     b08:	9905      	ldr	r1, [sp, #20]
     b0a:	4b7e      	ldr	r3, [pc, #504]	; (d04 <main+0xa34>)
     b0c:	4a7c      	ldr	r2, [pc, #496]	; (d00 <main+0xa30>)
     b0e:	f002 f8a5 	bl	2c5c <__aeabi_dcmpgt>
     b12:	2800      	cmp	r0, #0
     b14:	d000      	beq.n	b18 <main+0x848>
     b16:	e094      	b.n	c42 <main+0x972>
     b18:	1c20      	adds	r0, r4, #0
     b1a:	1c29      	adds	r1, r5, #0
     b1c:	4b79      	ldr	r3, [pc, #484]	; (d04 <main+0xa34>)
     b1e:	4a78      	ldr	r2, [pc, #480]	; (d00 <main+0xa30>)
     b20:	f002 f89c 	bl	2c5c <__aeabi_dcmpgt>
     b24:	2800      	cmp	r0, #0
     b26:	d050      	beq.n	bca <main+0x8fa>
     b28:	21fc      	movs	r1, #252	; 0xfc
     b2a:	1c30      	adds	r0, r6, #0
     b2c:	0589      	lsls	r1, r1, #22
     b2e:	f002 f8bb 	bl	2ca8 <__aeabi_fcmplt>
     b32:	2800      	cmp	r0, #0
     b34:	d009      	beq.n	b4a <main+0x87a>
     b36:	9800      	ldr	r0, [sp, #0]
     b38:	f004 fce4 	bl	5504 <__aeabi_f2d>
     b3c:	4b71      	ldr	r3, [pc, #452]	; (d04 <main+0xa34>)
     b3e:	4a70      	ldr	r2, [pc, #448]	; (d00 <main+0xa30>)
     b40:	f002 f88c 	bl	2c5c <__aeabi_dcmpgt>
     b44:	2800      	cmp	r0, #0
     b46:	d000      	beq.n	b4a <main+0x87a>
     b48:	e099      	b.n	c7e <main+0x9ae>
     b4a:	21fc      	movs	r1, #252	; 0xfc
     b4c:	1c30      	adds	r0, r6, #0
     b4e:	0589      	lsls	r1, r1, #22
     b50:	f002 f8be 	bl	2cd0 <__aeabi_fcmpgt>
     b54:	2800      	cmp	r0, #0
     b56:	d009      	beq.n	b6c <main+0x89c>
     b58:	9800      	ldr	r0, [sp, #0]
     b5a:	f004 fcd3 	bl	5504 <__aeabi_f2d>
     b5e:	4b69      	ldr	r3, [pc, #420]	; (d04 <main+0xa34>)
     b60:	4a67      	ldr	r2, [pc, #412]	; (d00 <main+0xa30>)
     b62:	f002 f867 	bl	2c34 <__aeabi_dcmplt>
     b66:	2800      	cmp	r0, #0
     b68:	d000      	beq.n	b6c <main+0x89c>
     b6a:	e0a6      	b.n	cba <main+0x9ea>
     b6c:	3f01      	subs	r7, #1
     b6e:	2f00      	cmp	r7, #0
     b70:	d036      	beq.n	be0 <main+0x910>
     b72:	486d      	ldr	r0, [pc, #436]	; (d28 <main+0xa58>)
     b74:	f000 ff00 	bl	1978 <analogin_read>
     b78:	1c04      	adds	r4, r0, #0
     b7a:	486c      	ldr	r0, [pc, #432]	; (d2c <main+0xa5c>)
     b7c:	f000 fefc 	bl	1978 <analogin_read>
     b80:	1c06      	adds	r6, r0, #0
     b82:	486b      	ldr	r0, [pc, #428]	; (d30 <main+0xa60>)
     b84:	f000 fef8 	bl	1978 <analogin_read>
     b88:	9000      	str	r0, [sp, #0]
     b8a:	1c20      	adds	r0, r4, #0
     b8c:	f004 fcba 	bl	5504 <__aeabi_f2d>
     b90:	4b5c      	ldr	r3, [pc, #368]	; (d04 <main+0xa34>)
     b92:	4a5b      	ldr	r2, [pc, #364]	; (d00 <main+0xa30>)
     b94:	1c04      	adds	r4, r0, #0
     b96:	1c0d      	adds	r5, r1, #0
     b98:	f002 f860 	bl	2c5c <__aeabi_dcmpgt>
     b9c:	2800      	cmp	r0, #0
     b9e:	d197      	bne.n	ad0 <main+0x800>
     ba0:	1c20      	adds	r0, r4, #0
     ba2:	1c29      	adds	r1, r5, #0
     ba4:	4b57      	ldr	r3, [pc, #348]	; (d04 <main+0xa34>)
     ba6:	4a56      	ldr	r2, [pc, #344]	; (d00 <main+0xa30>)
     ba8:	f002 f844 	bl	2c34 <__aeabi_dcmplt>
     bac:	2800      	cmp	r0, #0
     bae:	d0b3      	beq.n	b18 <main+0x848>
     bb0:	21fc      	movs	r1, #252	; 0xfc
     bb2:	1c30      	adds	r0, r6, #0
     bb4:	0589      	lsls	r1, r1, #22
     bb6:	f002 f88b 	bl	2cd0 <__aeabi_fcmpgt>
     bba:	2800      	cmp	r0, #0
     bbc:	d0ac      	beq.n	b18 <main+0x848>
     bbe:	9800      	ldr	r0, [sp, #0]
     bc0:	f004 fca0 	bl	5504 <__aeabi_f2d>
     bc4:	9004      	str	r0, [sp, #16]
     bc6:	9105      	str	r1, [sp, #20]
     bc8:	e79d      	b.n	b06 <main+0x836>
     bca:	1c20      	adds	r0, r4, #0
     bcc:	1c29      	adds	r1, r5, #0
     bce:	4b4d      	ldr	r3, [pc, #308]	; (d04 <main+0xa34>)
     bd0:	4a4b      	ldr	r2, [pc, #300]	; (d00 <main+0xa30>)
     bd2:	f002 f843 	bl	2c5c <__aeabi_dcmpgt>
     bd6:	2800      	cmp	r0, #0
     bd8:	d1b7      	bne.n	b4a <main+0x87a>
     bda:	3f01      	subs	r7, #1
     bdc:	2f00      	cmp	r7, #0
     bde:	d1c8      	bne.n	b72 <main+0x8a2>
     be0:	2196      	movs	r1, #150	; 0x96
     be2:	484c      	ldr	r0, [pc, #304]	; (d14 <main+0xa44>)
     be4:	0109      	lsls	r1, r1, #4
     be6:	f001 f891 	bl	1d0c <pwmout_pulsewidth_us>
     bea:	465a      	mov	r2, r11
     bec:	68d3      	ldr	r3, [r2, #12]
     bee:	6851      	ldr	r1, [r2, #4]
     bf0:	4652      	mov	r2, r10
     bf2:	6019      	str	r1, [r3, #0]
     bf4:	6851      	ldr	r1, [r2, #4]
     bf6:	68d3      	ldr	r3, [r2, #12]
     bf8:	4843      	ldr	r0, [pc, #268]	; (d08 <main+0xa38>)
     bfa:	6019      	str	r1, [r3, #0]
     bfc:	4946      	ldr	r1, [pc, #280]	; (d18 <main+0xa48>)
     bfe:	f001 f835 	bl	1c6c <pwmout_write>
     c02:	464a      	mov	r2, r9
     c04:	68d3      	ldr	r3, [r2, #12]
     c06:	6851      	ldr	r1, [r2, #4]
     c08:	4642      	mov	r2, r8
     c0a:	6019      	str	r1, [r3, #0]
     c0c:	6851      	ldr	r1, [r2, #4]
     c0e:	68d3      	ldr	r3, [r2, #12]
     c10:	483e      	ldr	r0, [pc, #248]	; (d0c <main+0xa3c>)
     c12:	6019      	str	r1, [r3, #0]
     c14:	4940      	ldr	r1, [pc, #256]	; (d18 <main+0xa48>)
     c16:	f001 f829 	bl	1c6c <pwmout_write>
     c1a:	4846      	ldr	r0, [pc, #280]	; (d34 <main+0xa64>)
     c1c:	f001 f8ce 	bl	1dbc <wait>
     c20:	4845      	ldr	r0, [pc, #276]	; (d38 <main+0xa68>)
     c22:	4946      	ldr	r1, [pc, #280]	; (d3c <main+0xa6c>)
     c24:	3040      	adds	r0, #64	; 0x40
     c26:	f001 fb73 	bl	2310 <mbed::Stream::printf(char const*, ...)>
     c2a:	2303      	movs	r3, #3
     c2c:	f7ff fb6f 	bl	30e <main+0x3e>
     c30:	4837      	ldr	r0, [pc, #220]	; (d10 <main+0xa40>)
     c32:	f001 f8c3 	bl	1dbc <wait>
     c36:	2196      	movs	r1, #150	; 0x96
     c38:	4836      	ldr	r0, [pc, #216]	; (d14 <main+0xa44>)
     c3a:	0109      	lsls	r1, r1, #4
     c3c:	f001 f866 	bl	1d0c <pwmout_pulsewidth_us>
     c40:	e794      	b.n	b6c <main+0x89c>
     c42:	2196      	movs	r1, #150	; 0x96
     c44:	4833      	ldr	r0, [pc, #204]	; (d14 <main+0xa44>)
     c46:	0109      	lsls	r1, r1, #4
     c48:	f001 f860 	bl	1d0c <pwmout_pulsewidth_us>
     c4c:	465a      	mov	r2, r11
     c4e:	68d3      	ldr	r3, [r2, #12]
     c50:	6851      	ldr	r1, [r2, #4]
     c52:	4652      	mov	r2, r10
     c54:	6019      	str	r1, [r3, #0]
     c56:	6851      	ldr	r1, [r2, #4]
     c58:	6913      	ldr	r3, [r2, #16]
     c5a:	482b      	ldr	r0, [pc, #172]	; (d08 <main+0xa38>)
     c5c:	6019      	str	r1, [r3, #0]
     c5e:	492e      	ldr	r1, [pc, #184]	; (d18 <main+0xa48>)
     c60:	f001 f804 	bl	1c6c <pwmout_write>
     c64:	464a      	mov	r2, r9
     c66:	68d3      	ldr	r3, [r2, #12]
     c68:	6851      	ldr	r1, [r2, #4]
     c6a:	4642      	mov	r2, r8
     c6c:	6019      	str	r1, [r3, #0]
     c6e:	6851      	ldr	r1, [r2, #4]
     c70:	6913      	ldr	r3, [r2, #16]
     c72:	4826      	ldr	r0, [pc, #152]	; (d0c <main+0xa3c>)
     c74:	6019      	str	r1, [r3, #0]
     c76:	492a      	ldr	r1, [pc, #168]	; (d20 <main+0xa50>)
     c78:	f000 fff8 	bl	1c6c <pwmout_write>
     c7c:	e776      	b.n	b6c <main+0x89c>
     c7e:	2196      	movs	r1, #150	; 0x96
     c80:	4824      	ldr	r0, [pc, #144]	; (d14 <main+0xa44>)
     c82:	0109      	lsls	r1, r1, #4
     c84:	f001 f842 	bl	1d0c <pwmout_pulsewidth_us>
     c88:	465a      	mov	r2, r11
     c8a:	68d3      	ldr	r3, [r2, #12]
     c8c:	6851      	ldr	r1, [r2, #4]
     c8e:	4652      	mov	r2, r10
     c90:	6019      	str	r1, [r3, #0]
     c92:	6851      	ldr	r1, [r2, #4]
     c94:	6913      	ldr	r3, [r2, #16]
     c96:	481c      	ldr	r0, [pc, #112]	; (d08 <main+0xa38>)
     c98:	6019      	str	r1, [r3, #0]
     c9a:	4920      	ldr	r1, [pc, #128]	; (d1c <main+0xa4c>)
     c9c:	f000 ffe6 	bl	1c6c <pwmout_write>
     ca0:	464a      	mov	r2, r9
     ca2:	68d3      	ldr	r3, [r2, #12]
     ca4:	6851      	ldr	r1, [r2, #4]
     ca6:	4642      	mov	r2, r8
     ca8:	6019      	str	r1, [r3, #0]
     caa:	6851      	ldr	r1, [r2, #4]
     cac:	6913      	ldr	r3, [r2, #16]
     cae:	4817      	ldr	r0, [pc, #92]	; (d0c <main+0xa3c>)
     cb0:	6019      	str	r1, [r3, #0]
     cb2:	491a      	ldr	r1, [pc, #104]	; (d1c <main+0xa4c>)
     cb4:	f000 ffda 	bl	1c6c <pwmout_write>
     cb8:	e758      	b.n	b6c <main+0x89c>
     cba:	2196      	movs	r1, #150	; 0x96
     cbc:	4815      	ldr	r0, [pc, #84]	; (d14 <main+0xa44>)
     cbe:	0109      	lsls	r1, r1, #4
     cc0:	f001 f824 	bl	1d0c <pwmout_pulsewidth_us>
     cc4:	465a      	mov	r2, r11
     cc6:	68d3      	ldr	r3, [r2, #12]
     cc8:	6851      	ldr	r1, [r2, #4]
     cca:	4652      	mov	r2, r10
     ccc:	6019      	str	r1, [r3, #0]
     cce:	6851      	ldr	r1, [r2, #4]
     cd0:	6913      	ldr	r3, [r2, #16]
     cd2:	480d      	ldr	r0, [pc, #52]	; (d08 <main+0xa38>)
     cd4:	6019      	str	r1, [r3, #0]
     cd6:	4912      	ldr	r1, [pc, #72]	; (d20 <main+0xa50>)
     cd8:	f000 ffc8 	bl	1c6c <pwmout_write>
     cdc:	464a      	mov	r2, r9
     cde:	68d3      	ldr	r3, [r2, #12]
     ce0:	6851      	ldr	r1, [r2, #4]
     ce2:	4642      	mov	r2, r8
     ce4:	6019      	str	r1, [r3, #0]
     ce6:	6851      	ldr	r1, [r2, #4]
     ce8:	6913      	ldr	r3, [r2, #16]
     cea:	4808      	ldr	r0, [pc, #32]	; (d0c <main+0xa3c>)
     cec:	6019      	str	r1, [r3, #0]
     cee:	490a      	ldr	r1, [pc, #40]	; (d18 <main+0xa48>)
     cf0:	f000 ffbc 	bl	1c6c <pwmout_write>
     cf4:	e73a      	b.n	b6c <main+0x89c>
     cf6:	9e03      	ldr	r6, [sp, #12]
     cf8:	e04a      	b.n	d90 <main+0xac0>
     cfa:	46c0      	nop			; (mov r8, r8)
     cfc:	46c0      	nop			; (mov r8, r8)
     cfe:	46c0      	nop			; (mov r8, r8)
     d00:	cccccccd 	.word	0xcccccccd
     d04:	3fdccccc 	.word	0x3fdccccc
     d08:	10000264 	.word	0x10000264
     d0c:	1000026c 	.word	0x1000026c
     d10:	3dcccccd 	.word	0x3dcccccd
     d14:	10000198 	.word	0x10000198
     d18:	3f4ccccd 	.word	0x3f4ccccd
     d1c:	3f19999a 	.word	0x3f19999a
     d20:	3f333333 	.word	0x3f333333
     d24:	0000076d 	.word	0x0000076d
     d28:	100001fc 	.word	0x100001fc
     d2c:	10000194 	.word	0x10000194
     d30:	10000260 	.word	0x10000260
     d34:	40200000 	.word	0x40200000
     d38:	100001a0 	.word	0x100001a0
     d3c:	000077b4 	.word	0x000077b4
     d40:	21fe      	movs	r1, #254	; 0xfe
     d42:	48df      	ldr	r0, [pc, #892]	; (10c0 <main+0xdf0>)
     d44:	0589      	lsls	r1, r1, #22
     d46:	f000 ff91 	bl	1c6c <pwmout_write>
     d4a:	464a      	mov	r2, r9
     d4c:	68d3      	ldr	r3, [r2, #12]
     d4e:	6851      	ldr	r1, [r2, #4]
     d50:	4642      	mov	r2, r8
     d52:	6019      	str	r1, [r3, #0]
     d54:	6851      	ldr	r1, [r2, #4]
     d56:	6913      	ldr	r3, [r2, #16]
     d58:	1c20      	adds	r0, r4, #0
     d5a:	6019      	str	r1, [r3, #0]
     d5c:	21fe      	movs	r1, #254	; 0xfe
     d5e:	0589      	lsls	r1, r1, #22
     d60:	f001 ffe2 	bl	2d28 <__aeabi_fadd>
     d64:	1c01      	adds	r1, r0, #0
     d66:	48d7      	ldr	r0, [pc, #860]	; (10c4 <main+0xdf4>)
     d68:	f000 ff80 	bl	1c6c <pwmout_write>
     d6c:	48d6      	ldr	r0, [pc, #856]	; (10c8 <main+0xdf8>)
     d6e:	f000 fe03 	bl	1978 <analogin_read>
     d72:	f004 fbc7 	bl	5504 <__aeabi_f2d>
     d76:	4bbd      	ldr	r3, [pc, #756]	; (106c <main+0xd9c>)
     d78:	4abb      	ldr	r2, [pc, #748]	; (1068 <main+0xd98>)
     d7a:	f001 ff6f 	bl	2c5c <__aeabi_dcmpgt>
     d7e:	2800      	cmp	r0, #0
     d80:	d000      	beq.n	d84 <main+0xab4>
     d82:	e0ca      	b.n	f1a <main+0xc4a>
     d84:	48d1      	ldr	r0, [pc, #836]	; (10cc <main+0xdfc>)
     d86:	49d2      	ldr	r1, [pc, #840]	; (10d0 <main+0xe00>)
     d88:	3040      	adds	r0, #64	; 0x40
     d8a:	f001 fac1 	bl	2310 <mbed::Stream::printf(char const*, ...)>
     d8e:	9706      	str	r7, [sp, #24]
     d90:	48d0      	ldr	r0, [pc, #832]	; (10d4 <main+0xe04>)
     d92:	f000 fdf1 	bl	1978 <analogin_read>
     d96:	1c04      	adds	r4, r0, #0
     d98:	48cf      	ldr	r0, [pc, #828]	; (10d8 <main+0xe08>)
     d9a:	f000 fded 	bl	1978 <analogin_read>
     d9e:	48cf      	ldr	r0, [pc, #828]	; (10dc <main+0xe0c>)
     da0:	f000 fdea 	bl	1978 <analogin_read>
     da4:	1c01      	adds	r1, r0, #0
     da6:	1c20      	adds	r0, r4, #0
     da8:	f002 fc30 	bl	360c <__aeabi_fsub>
     dac:	f004 fbaa 	bl	5504 <__aeabi_f2d>
     db0:	4aaf      	ldr	r2, [pc, #700]	; (1070 <main+0xda0>)
     db2:	4bb0      	ldr	r3, [pc, #704]	; (1074 <main+0xda4>)
     db4:	f002 fe66 	bl	3a84 <__aeabi_dadd>
     db8:	f004 fbf6 	bl	55a8 <__aeabi_d2f>
     dbc:	1c07      	adds	r7, r0, #0
     dbe:	1c30      	adds	r0, r6, #0
     dc0:	f004 fba0 	bl	5504 <__aeabi_f2d>
     dc4:	1c04      	adds	r4, r0, #0
     dc6:	1c0d      	adds	r5, r1, #0
     dc8:	1c38      	adds	r0, r7, #0
     dca:	9906      	ldr	r1, [sp, #24]
     dcc:	f001 ffac 	bl	2d28 <__aeabi_fadd>
     dd0:	f004 fb98 	bl	5504 <__aeabi_f2d>
     dd4:	4aa8      	ldr	r2, [pc, #672]	; (1078 <main+0xda8>)
     dd6:	4ba9      	ldr	r3, [pc, #676]	; (107c <main+0xdac>)
     dd8:	f003 fdda 	bl	4990 <__aeabi_dmul>
     ddc:	1c02      	adds	r2, r0, #0
     dde:	1c0b      	adds	r3, r1, #0
     de0:	1c20      	adds	r0, r4, #0
     de2:	1c29      	adds	r1, r5, #0
     de4:	f002 fe4e 	bl	3a84 <__aeabi_dadd>
     de8:	f004 fbde 	bl	55a8 <__aeabi_d2f>
     dec:	1c06      	adds	r6, r0, #0
     dee:	1c38      	adds	r0, r7, #0
     df0:	f004 fb88 	bl	5504 <__aeabi_f2d>
     df4:	4aa2      	ldr	r2, [pc, #648]	; (1080 <main+0xdb0>)
     df6:	4ba3      	ldr	r3, [pc, #652]	; (1084 <main+0xdb4>)
     df8:	9000      	str	r0, [sp, #0]
     dfa:	9101      	str	r1, [sp, #4]
     dfc:	f003 fdc8 	bl	4990 <__aeabi_dmul>
     e00:	1c04      	adds	r4, r0, #0
     e02:	1c30      	adds	r0, r6, #0
     e04:	1c0d      	adds	r5, r1, #0
     e06:	f004 fb7d 	bl	5504 <__aeabi_f2d>
     e0a:	4a9f      	ldr	r2, [pc, #636]	; (1088 <main+0xdb8>)
     e0c:	4b9f      	ldr	r3, [pc, #636]	; (108c <main+0xdbc>)
     e0e:	f003 fdbf 	bl	4990 <__aeabi_dmul>
     e12:	1c02      	adds	r2, r0, #0
     e14:	1c0b      	adds	r3, r1, #0
     e16:	1c20      	adds	r0, r4, #0
     e18:	1c29      	adds	r1, r5, #0
     e1a:	f002 fe33 	bl	3a84 <__aeabi_dadd>
     e1e:	1c04      	adds	r4, r0, #0
     e20:	1c0d      	adds	r5, r1, #0
     e22:	1c38      	adds	r0, r7, #0
     e24:	9906      	ldr	r1, [sp, #24]
     e26:	f002 fbf1 	bl	360c <__aeabi_fsub>
     e2a:	f004 fb6b 	bl	5504 <__aeabi_f2d>
     e2e:	4a98      	ldr	r2, [pc, #608]	; (1090 <main+0xdc0>)
     e30:	4b98      	ldr	r3, [pc, #608]	; (1094 <main+0xdc4>)
     e32:	f003 f943 	bl	40bc <__aeabi_ddiv>
     e36:	f004 fbb7 	bl	55a8 <__aeabi_d2f>
     e3a:	0040      	lsls	r0, r0, #1
     e3c:	0840      	lsrs	r0, r0, #1
     e3e:	f004 fb61 	bl	5504 <__aeabi_f2d>
     e42:	4a95      	ldr	r2, [pc, #596]	; (1098 <main+0xdc8>)
     e44:	4b95      	ldr	r3, [pc, #596]	; (109c <main+0xdcc>)
     e46:	f003 fda3 	bl	4990 <__aeabi_dmul>
     e4a:	1c02      	adds	r2, r0, #0
     e4c:	1c0b      	adds	r3, r1, #0
     e4e:	1c20      	adds	r0, r4, #0
     e50:	1c29      	adds	r1, r5, #0
     e52:	f002 fe17 	bl	3a84 <__aeabi_dadd>
     e56:	f004 fba7 	bl	55a8 <__aeabi_d2f>
     e5a:	4a91      	ldr	r2, [pc, #580]	; (10a0 <main+0xdd0>)
     e5c:	4b91      	ldr	r3, [pc, #580]	; (10a4 <main+0xdd4>)
     e5e:	1c04      	adds	r4, r0, #0
     e60:	9800      	ldr	r0, [sp, #0]
     e62:	9901      	ldr	r1, [sp, #4]
     e64:	f001 fefa 	bl	2c5c <__aeabi_dcmpgt>
     e68:	2800      	cmp	r0, #0
     e6a:	d137      	bne.n	edc <main+0xc0c>
     e6c:	9800      	ldr	r0, [sp, #0]
     e6e:	9901      	ldr	r1, [sp, #4]
     e70:	4a8d      	ldr	r2, [pc, #564]	; (10a8 <main+0xdd8>)
     e72:	4b8e      	ldr	r3, [pc, #568]	; (10ac <main+0xddc>)
     e74:	f001 fede 	bl	2c34 <__aeabi_dcmplt>
     e78:	465a      	mov	r2, r11
     e7a:	68d3      	ldr	r3, [r2, #12]
     e7c:	6851      	ldr	r1, [r2, #4]
     e7e:	4652      	mov	r2, r10
     e80:	6019      	str	r1, [r3, #0]
     e82:	6851      	ldr	r1, [r2, #4]
     e84:	6913      	ldr	r3, [r2, #16]
     e86:	6019      	str	r1, [r3, #0]
     e88:	2800      	cmp	r0, #0
     e8a:	d000      	beq.n	e8e <main+0xbbe>
     e8c:	e758      	b.n	d40 <main+0xa70>
     e8e:	1c20      	adds	r0, r4, #0
     e90:	f004 fb38 	bl	5504 <__aeabi_f2d>
     e94:	1c04      	adds	r4, r0, #0
     e96:	1c0d      	adds	r5, r1, #0
     e98:	1c22      	adds	r2, r4, #0
     e9a:	1c2b      	adds	r3, r5, #0
     e9c:	4884      	ldr	r0, [pc, #528]	; (10b0 <main+0xde0>)
     e9e:	4985      	ldr	r1, [pc, #532]	; (10b4 <main+0xde4>)
     ea0:	f004 f806 	bl	4eb0 <__aeabi_dsub>
     ea4:	f004 fb80 	bl	55a8 <__aeabi_d2f>
     ea8:	1c01      	adds	r1, r0, #0
     eaa:	4885      	ldr	r0, [pc, #532]	; (10c0 <main+0xdf0>)
     eac:	f000 fede 	bl	1c6c <pwmout_write>
     eb0:	464a      	mov	r2, r9
     eb2:	68d3      	ldr	r3, [r2, #12]
     eb4:	6851      	ldr	r1, [r2, #4]
     eb6:	4642      	mov	r2, r8
     eb8:	6019      	str	r1, [r3, #0]
     eba:	6851      	ldr	r1, [r2, #4]
     ebc:	6913      	ldr	r3, [r2, #16]
     ebe:	1c20      	adds	r0, r4, #0
     ec0:	6019      	str	r1, [r3, #0]
     ec2:	4a7b      	ldr	r2, [pc, #492]	; (10b0 <main+0xde0>)
     ec4:	4b7b      	ldr	r3, [pc, #492]	; (10b4 <main+0xde4>)
     ec6:	1c29      	adds	r1, r5, #0
     ec8:	f002 fddc 	bl	3a84 <__aeabi_dadd>
     ecc:	f004 fb6c 	bl	55a8 <__aeabi_d2f>
     ed0:	1c01      	adds	r1, r0, #0
     ed2:	487c      	ldr	r0, [pc, #496]	; (10c4 <main+0xdf4>)
     ed4:	f000 feca 	bl	1c6c <pwmout_write>
     ed8:	2600      	movs	r6, #0
     eda:	e747      	b.n	d6c <main+0xa9c>
     edc:	465a      	mov	r2, r11
     ede:	68d3      	ldr	r3, [r2, #12]
     ee0:	6851      	ldr	r1, [r2, #4]
     ee2:	4652      	mov	r2, r10
     ee4:	6019      	str	r1, [r3, #0]
     ee6:	6851      	ldr	r1, [r2, #4]
     ee8:	6913      	ldr	r3, [r2, #16]
     eea:	20fe      	movs	r0, #254	; 0xfe
     eec:	6019      	str	r1, [r3, #0]
     eee:	0580      	lsls	r0, r0, #22
     ef0:	1c21      	adds	r1, r4, #0
     ef2:	f002 fb8b 	bl	360c <__aeabi_fsub>
     ef6:	1c01      	adds	r1, r0, #0
     ef8:	4871      	ldr	r0, [pc, #452]	; (10c0 <main+0xdf0>)
     efa:	f000 feb7 	bl	1c6c <pwmout_write>
     efe:	464a      	mov	r2, r9
     f00:	68d3      	ldr	r3, [r2, #12]
     f02:	6851      	ldr	r1, [r2, #4]
     f04:	4642      	mov	r2, r8
     f06:	6019      	str	r1, [r3, #0]
     f08:	6851      	ldr	r1, [r2, #4]
     f0a:	6913      	ldr	r3, [r2, #16]
     f0c:	486d      	ldr	r0, [pc, #436]	; (10c4 <main+0xdf4>)
     f0e:	6019      	str	r1, [r3, #0]
     f10:	21fe      	movs	r1, #254	; 0xfe
     f12:	0589      	lsls	r1, r1, #22
     f14:	f000 feaa 	bl	1c6c <pwmout_write>
     f18:	e728      	b.n	d6c <main+0xa9c>
     f1a:	9603      	str	r6, [sp, #12]
     f1c:	9706      	str	r7, [sp, #24]
     f1e:	2302      	movs	r3, #2
     f20:	f7ff f9f5 	bl	30e <main+0x3e>
     f24:	4e6e      	ldr	r6, [pc, #440]	; (10e0 <main+0xe10>)
     f26:	1c37      	adds	r7, r6, #0
     f28:	e055      	b.n	fd6 <main+0xd06>
     f2a:	21fc      	movs	r1, #252	; 0xfc
     f2c:	1c30      	adds	r0, r6, #0
     f2e:	0589      	lsls	r1, r1, #22
     f30:	f001 fece 	bl	2cd0 <__aeabi_fcmpgt>
     f34:	2800      	cmp	r0, #0
     f36:	d065      	beq.n	1004 <main+0xd34>
     f38:	9800      	ldr	r0, [sp, #0]
     f3a:	f004 fae3 	bl	5504 <__aeabi_f2d>
     f3e:	4a5e      	ldr	r2, [pc, #376]	; (10b8 <main+0xde8>)
     f40:	4b5e      	ldr	r3, [pc, #376]	; (10bc <main+0xdec>)
     f42:	9004      	str	r0, [sp, #16]
     f44:	9105      	str	r1, [sp, #20]
     f46:	f001 fe89 	bl	2c5c <__aeabi_dcmpgt>
     f4a:	2800      	cmp	r0, #0
     f4c:	d000      	beq.n	f50 <main+0xc80>
     f4e:	e081      	b.n	1054 <main+0xd84>
     f50:	1c20      	adds	r0, r4, #0
     f52:	1c29      	adds	r1, r5, #0
     f54:	4a58      	ldr	r2, [pc, #352]	; (10b8 <main+0xde8>)
     f56:	4b59      	ldr	r3, [pc, #356]	; (10bc <main+0xdec>)
     f58:	f001 fe6c 	bl	2c34 <__aeabi_dcmplt>
     f5c:	2800      	cmp	r0, #0
     f5e:	d010      	beq.n	f82 <main+0xcb2>
     f60:	9804      	ldr	r0, [sp, #16]
     f62:	9905      	ldr	r1, [sp, #20]
     f64:	4a54      	ldr	r2, [pc, #336]	; (10b8 <main+0xde8>)
     f66:	4b55      	ldr	r3, [pc, #340]	; (10bc <main+0xdec>)
     f68:	f001 fe78 	bl	2c5c <__aeabi_dcmpgt>
     f6c:	2800      	cmp	r0, #0
     f6e:	d000      	beq.n	f72 <main+0xca2>
     f70:	e0be      	b.n	10f0 <main+0xe20>
     f72:	1c20      	adds	r0, r4, #0
     f74:	1c29      	adds	r1, r5, #0
     f76:	4a50      	ldr	r2, [pc, #320]	; (10b8 <main+0xde8>)
     f78:	4b50      	ldr	r3, [pc, #320]	; (10bc <main+0xdec>)
     f7a:	f001 fe6f 	bl	2c5c <__aeabi_dcmpgt>
     f7e:	2800      	cmp	r0, #0
     f80:	d055      	beq.n	102e <main+0xd5e>
     f82:	21fc      	movs	r1, #252	; 0xfc
     f84:	1c30      	adds	r0, r6, #0
     f86:	0589      	lsls	r1, r1, #22
     f88:	f001 fe8e 	bl	2ca8 <__aeabi_fcmplt>
     f8c:	2800      	cmp	r0, #0
     f8e:	d009      	beq.n	fa4 <main+0xcd4>
     f90:	9800      	ldr	r0, [sp, #0]
     f92:	f004 fab7 	bl	5504 <__aeabi_f2d>
     f96:	4a48      	ldr	r2, [pc, #288]	; (10b8 <main+0xde8>)
     f98:	4b48      	ldr	r3, [pc, #288]	; (10bc <main+0xdec>)
     f9a:	f001 fe5f 	bl	2c5c <__aeabi_dcmpgt>
     f9e:	2800      	cmp	r0, #0
     fa0:	d000      	beq.n	fa4 <main+0xcd4>
     fa2:	e0c3      	b.n	112c <main+0xe5c>
     fa4:	21fc      	movs	r1, #252	; 0xfc
     fa6:	1c30      	adds	r0, r6, #0
     fa8:	0589      	lsls	r1, r1, #22
     faa:	f001 fe91 	bl	2cd0 <__aeabi_fcmpgt>
     fae:	2800      	cmp	r0, #0
     fb0:	d009      	beq.n	fc6 <main+0xcf6>
     fb2:	9800      	ldr	r0, [sp, #0]
     fb4:	f004 faa6 	bl	5504 <__aeabi_f2d>
     fb8:	4a3f      	ldr	r2, [pc, #252]	; (10b8 <main+0xde8>)
     fba:	4b40      	ldr	r3, [pc, #256]	; (10bc <main+0xdec>)
     fbc:	f001 fe3a 	bl	2c34 <__aeabi_dcmplt>
     fc0:	2800      	cmp	r0, #0
     fc2:	d000      	beq.n	fc6 <main+0xcf6>
     fc4:	e0d0      	b.n	1168 <main+0xe98>
     fc6:	4841      	ldr	r0, [pc, #260]	; (10cc <main+0xdfc>)
     fc8:	4946      	ldr	r1, [pc, #280]	; (10e4 <main+0xe14>)
     fca:	3040      	adds	r0, #64	; 0x40
     fcc:	3f01      	subs	r7, #1
     fce:	f001 f99f 	bl	2310 <mbed::Stream::printf(char const*, ...)>
     fd2:	2f00      	cmp	r7, #0
     fd4:	d03b      	beq.n	104e <main+0xd7e>
     fd6:	483f      	ldr	r0, [pc, #252]	; (10d4 <main+0xe04>)
     fd8:	f000 fcce 	bl	1978 <analogin_read>
     fdc:	1c04      	adds	r4, r0, #0
     fde:	483e      	ldr	r0, [pc, #248]	; (10d8 <main+0xe08>)
     fe0:	f000 fcca 	bl	1978 <analogin_read>
     fe4:	1c06      	adds	r6, r0, #0
     fe6:	483d      	ldr	r0, [pc, #244]	; (10dc <main+0xe0c>)
     fe8:	f000 fcc6 	bl	1978 <analogin_read>
     fec:	9000      	str	r0, [sp, #0]
     fee:	1c20      	adds	r0, r4, #0
     ff0:	f004 fa88 	bl	5504 <__aeabi_f2d>
     ff4:	4a30      	ldr	r2, [pc, #192]	; (10b8 <main+0xde8>)
     ff6:	4b31      	ldr	r3, [pc, #196]	; (10bc <main+0xdec>)
     ff8:	1c04      	adds	r4, r0, #0
     ffa:	1c0d      	adds	r5, r1, #0
     ffc:	f001 fe2e 	bl	2c5c <__aeabi_dcmpgt>
    1000:	2800      	cmp	r0, #0
    1002:	d192      	bne.n	f2a <main+0xc5a>
    1004:	1c20      	adds	r0, r4, #0
    1006:	1c29      	adds	r1, r5, #0
    1008:	4a2b      	ldr	r2, [pc, #172]	; (10b8 <main+0xde8>)
    100a:	4b2c      	ldr	r3, [pc, #176]	; (10bc <main+0xdec>)
    100c:	f001 fe12 	bl	2c34 <__aeabi_dcmplt>
    1010:	2800      	cmp	r0, #0
    1012:	d0ae      	beq.n	f72 <main+0xca2>
    1014:	21fc      	movs	r1, #252	; 0xfc
    1016:	1c30      	adds	r0, r6, #0
    1018:	0589      	lsls	r1, r1, #22
    101a:	f001 fe59 	bl	2cd0 <__aeabi_fcmpgt>
    101e:	2800      	cmp	r0, #0
    1020:	d0a7      	beq.n	f72 <main+0xca2>
    1022:	9800      	ldr	r0, [sp, #0]
    1024:	f004 fa6e 	bl	5504 <__aeabi_f2d>
    1028:	9004      	str	r0, [sp, #16]
    102a:	9105      	str	r1, [sp, #20]
    102c:	e798      	b.n	f60 <main+0xc90>
    102e:	1c20      	adds	r0, r4, #0
    1030:	1c29      	adds	r1, r5, #0
    1032:	4a21      	ldr	r2, [pc, #132]	; (10b8 <main+0xde8>)
    1034:	4b21      	ldr	r3, [pc, #132]	; (10bc <main+0xdec>)
    1036:	f001 fe11 	bl	2c5c <__aeabi_dcmpgt>
    103a:	2800      	cmp	r0, #0
    103c:	d1b2      	bne.n	fa4 <main+0xcd4>
    103e:	4823      	ldr	r0, [pc, #140]	; (10cc <main+0xdfc>)
    1040:	4928      	ldr	r1, [pc, #160]	; (10e4 <main+0xe14>)
    1042:	3040      	adds	r0, #64	; 0x40
    1044:	3f01      	subs	r7, #1
    1046:	f001 f963 	bl	2310 <mbed::Stream::printf(char const*, ...)>
    104a:	2f00      	cmp	r7, #0
    104c:	d1c3      	bne.n	fd6 <main+0xd06>
    104e:	2305      	movs	r3, #5
    1050:	f7ff f95d 	bl	30e <main+0x3e>
    1054:	4824      	ldr	r0, [pc, #144]	; (10e8 <main+0xe18>)
    1056:	f000 feb1 	bl	1dbc <wait>
    105a:	21c8      	movs	r1, #200	; 0xc8
    105c:	4823      	ldr	r0, [pc, #140]	; (10ec <main+0xe1c>)
    105e:	00c9      	lsls	r1, r1, #3
    1060:	f000 fe54 	bl	1d0c <pwmout_pulsewidth_us>
    1064:	e7af      	b.n	fc6 <main+0xcf6>
    1066:	46c0      	nop			; (mov r8, r8)
    1068:	33333333 	.word	0x33333333
    106c:	3fe33333 	.word	0x3fe33333
    1070:	d2f1a9fc 	.word	0xd2f1a9fc
    1074:	3f70624d 	.word	0x3f70624d
    1078:	47ae147b 	.word	0x47ae147b
    107c:	3f847ae1 	.word	0x3f847ae1
    1080:	1eb851ec 	.word	0x1eb851ec
    1084:	3fe9eb85 	.word	0x3fe9eb85
    1088:	d2f1a9fc 	.word	0xd2f1a9fc
    108c:	3f60624d 	.word	0x3f60624d
    1090:	47ae147b 	.word	0x47ae147b
    1094:	3f947ae1 	.word	0x3f947ae1
    1098:	020c49ba 	.word	0x020c49ba
    109c:	3f96872b 	.word	0x3f96872b
    10a0:	9999999a 	.word	0x9999999a
    10a4:	3fa99999 	.word	0x3fa99999
    10a8:	9999999a 	.word	0x9999999a
    10ac:	bfa99999 	.word	0xbfa99999
    10b0:	9999999a 	.word	0x9999999a
    10b4:	3fe99999 	.word	0x3fe99999
    10b8:	cccccccd 	.word	0xcccccccd
    10bc:	3fdccccc 	.word	0x3fdccccc
    10c0:	10000264 	.word	0x10000264
    10c4:	1000026c 	.word	0x1000026c
    10c8:	100001f8 	.word	0x100001f8
    10cc:	100001a0 	.word	0x100001a0
    10d0:	000077a8 	.word	0x000077a8
    10d4:	100001fc 	.word	0x100001fc
    10d8:	10000194 	.word	0x10000194
    10dc:	10000260 	.word	0x10000260
    10e0:	000003e9 	.word	0x000003e9
    10e4:	000077cc 	.word	0x000077cc
    10e8:	3dcccccd 	.word	0x3dcccccd
    10ec:	10000198 	.word	0x10000198
    10f0:	21c8      	movs	r1, #200	; 0xc8
    10f2:	48e1      	ldr	r0, [pc, #900]	; (1478 <main+0x11a8>)
    10f4:	00c9      	lsls	r1, r1, #3
    10f6:	f000 fe09 	bl	1d0c <pwmout_pulsewidth_us>
    10fa:	4659      	mov	r1, r11
    10fc:	68cb      	ldr	r3, [r1, #12]
    10fe:	684a      	ldr	r2, [r1, #4]
    1100:	4651      	mov	r1, r10
    1102:	601a      	str	r2, [r3, #0]
    1104:	684a      	ldr	r2, [r1, #4]
    1106:	690b      	ldr	r3, [r1, #16]
    1108:	48dc      	ldr	r0, [pc, #880]	; (147c <main+0x11ac>)
    110a:	601a      	str	r2, [r3, #0]
    110c:	49dc      	ldr	r1, [pc, #880]	; (1480 <main+0x11b0>)
    110e:	f000 fdad 	bl	1c6c <pwmout_write>
    1112:	4649      	mov	r1, r9
    1114:	68cb      	ldr	r3, [r1, #12]
    1116:	684a      	ldr	r2, [r1, #4]
    1118:	4641      	mov	r1, r8
    111a:	601a      	str	r2, [r3, #0]
    111c:	684a      	ldr	r2, [r1, #4]
    111e:	690b      	ldr	r3, [r1, #16]
    1120:	48d8      	ldr	r0, [pc, #864]	; (1484 <main+0x11b4>)
    1122:	601a      	str	r2, [r3, #0]
    1124:	49d8      	ldr	r1, [pc, #864]	; (1488 <main+0x11b8>)
    1126:	f000 fda1 	bl	1c6c <pwmout_write>
    112a:	e74c      	b.n	fc6 <main+0xcf6>
    112c:	21c8      	movs	r1, #200	; 0xc8
    112e:	48d2      	ldr	r0, [pc, #840]	; (1478 <main+0x11a8>)
    1130:	00c9      	lsls	r1, r1, #3
    1132:	f000 fdeb 	bl	1d0c <pwmout_pulsewidth_us>
    1136:	4659      	mov	r1, r11
    1138:	68cb      	ldr	r3, [r1, #12]
    113a:	684a      	ldr	r2, [r1, #4]
    113c:	4651      	mov	r1, r10
    113e:	601a      	str	r2, [r3, #0]
    1140:	684a      	ldr	r2, [r1, #4]
    1142:	690b      	ldr	r3, [r1, #16]
    1144:	48cd      	ldr	r0, [pc, #820]	; (147c <main+0x11ac>)
    1146:	601a      	str	r2, [r3, #0]
    1148:	49d0      	ldr	r1, [pc, #832]	; (148c <main+0x11bc>)
    114a:	f000 fd8f 	bl	1c6c <pwmout_write>
    114e:	4649      	mov	r1, r9
    1150:	68cb      	ldr	r3, [r1, #12]
    1152:	684a      	ldr	r2, [r1, #4]
    1154:	4641      	mov	r1, r8
    1156:	601a      	str	r2, [r3, #0]
    1158:	684a      	ldr	r2, [r1, #4]
    115a:	690b      	ldr	r3, [r1, #16]
    115c:	48c9      	ldr	r0, [pc, #804]	; (1484 <main+0x11b4>)
    115e:	601a      	str	r2, [r3, #0]
    1160:	49ca      	ldr	r1, [pc, #808]	; (148c <main+0x11bc>)
    1162:	f000 fd83 	bl	1c6c <pwmout_write>
    1166:	e72e      	b.n	fc6 <main+0xcf6>
    1168:	21c8      	movs	r1, #200	; 0xc8
    116a:	48c3      	ldr	r0, [pc, #780]	; (1478 <main+0x11a8>)
    116c:	00c9      	lsls	r1, r1, #3
    116e:	f000 fdcd 	bl	1d0c <pwmout_pulsewidth_us>
    1172:	4659      	mov	r1, r11
    1174:	68cb      	ldr	r3, [r1, #12]
    1176:	684a      	ldr	r2, [r1, #4]
    1178:	4651      	mov	r1, r10
    117a:	601a      	str	r2, [r3, #0]
    117c:	684a      	ldr	r2, [r1, #4]
    117e:	690b      	ldr	r3, [r1, #16]
    1180:	48be      	ldr	r0, [pc, #760]	; (147c <main+0x11ac>)
    1182:	601a      	str	r2, [r3, #0]
    1184:	49c0      	ldr	r1, [pc, #768]	; (1488 <main+0x11b8>)
    1186:	f000 fd71 	bl	1c6c <pwmout_write>
    118a:	4649      	mov	r1, r9
    118c:	68cb      	ldr	r3, [r1, #12]
    118e:	684a      	ldr	r2, [r1, #4]
    1190:	4641      	mov	r1, r8
    1192:	601a      	str	r2, [r3, #0]
    1194:	684a      	ldr	r2, [r1, #4]
    1196:	690b      	ldr	r3, [r1, #16]
    1198:	48ba      	ldr	r0, [pc, #744]	; (1484 <main+0x11b4>)
    119a:	601a      	str	r2, [r3, #0]
    119c:	49b8      	ldr	r1, [pc, #736]	; (1480 <main+0x11b0>)
    119e:	f000 fd65 	bl	1c6c <pwmout_write>
    11a2:	e710      	b.n	fc6 <main+0xcf6>
    11a4:	1c20      	adds	r0, r4, #0
    11a6:	1c29      	adds	r1, r5, #0
    11a8:	4ba0      	ldr	r3, [pc, #640]	; (142c <main+0x115c>)
    11aa:	4a9f      	ldr	r2, [pc, #636]	; (1428 <main+0x1158>)
    11ac:	f001 fd56 	bl	2c5c <__aeabi_dcmpgt>
    11b0:	2800      	cmp	r0, #0
    11b2:	d101      	bne.n	11b8 <main+0xee8>
    11b4:	f7ff fb53 	bl	85e <main+0x58e>
    11b8:	f7ff fb3f 	bl	83a <main+0x56a>
    11bc:	9f03      	ldr	r7, [sp, #12]
    11be:	e046      	b.n	124e <main+0xf7e>
    11c0:	21fe      	movs	r1, #254	; 0xfe
    11c2:	48ae      	ldr	r0, [pc, #696]	; (147c <main+0x11ac>)
    11c4:	0589      	lsls	r1, r1, #22
    11c6:	f000 fd51 	bl	1c6c <pwmout_write>
    11ca:	4649      	mov	r1, r9
    11cc:	68cb      	ldr	r3, [r1, #12]
    11ce:	684a      	ldr	r2, [r1, #4]
    11d0:	4641      	mov	r1, r8
    11d2:	601a      	str	r2, [r3, #0]
    11d4:	684a      	ldr	r2, [r1, #4]
    11d6:	690b      	ldr	r3, [r1, #16]
    11d8:	21fe      	movs	r1, #254	; 0xfe
    11da:	0589      	lsls	r1, r1, #22
    11dc:	601a      	str	r2, [r3, #0]
    11de:	1c20      	adds	r0, r4, #0
    11e0:	f001 fda2 	bl	2d28 <__aeabi_fadd>
    11e4:	1c01      	adds	r1, r0, #0
    11e6:	48a7      	ldr	r0, [pc, #668]	; (1484 <main+0x11b4>)
    11e8:	f000 fd40 	bl	1c6c <pwmout_write>
    11ec:	9803      	ldr	r0, [sp, #12]
    11ee:	f004 f989 	bl	5504 <__aeabi_f2d>
    11f2:	4b8e      	ldr	r3, [pc, #568]	; (142c <main+0x115c>)
    11f4:	4a8c      	ldr	r2, [pc, #560]	; (1428 <main+0x1158>)
    11f6:	f001 fd1d 	bl	2c34 <__aeabi_dcmplt>
    11fa:	2800      	cmp	r0, #0
    11fc:	d021      	beq.n	1242 <main+0xf72>
    11fe:	21fc      	movs	r1, #252	; 0xfc
    1200:	9807      	ldr	r0, [sp, #28]
    1202:	0589      	lsls	r1, r1, #22
    1204:	f001 fd50 	bl	2ca8 <__aeabi_fcmplt>
    1208:	2800      	cmp	r0, #0
    120a:	d01a      	beq.n	1242 <main+0xf72>
    120c:	9804      	ldr	r0, [sp, #16]
    120e:	f004 f979 	bl	5504 <__aeabi_f2d>
    1212:	4b86      	ldr	r3, [pc, #536]	; (142c <main+0x115c>)
    1214:	4a84      	ldr	r2, [pc, #528]	; (1428 <main+0x1158>)
    1216:	f001 fd0d 	bl	2c34 <__aeabi_dcmplt>
    121a:	2800      	cmp	r0, #0
    121c:	d011      	beq.n	1242 <main+0xf72>
    121e:	489c      	ldr	r0, [pc, #624]	; (1490 <main+0x11c0>)
    1220:	f000 fdcc 	bl	1dbc <wait>
    1224:	21fc      	movs	r1, #252	; 0xfc
    1226:	9803      	ldr	r0, [sp, #12]
    1228:	0589      	lsls	r1, r1, #22
    122a:	f001 fd3d 	bl	2ca8 <__aeabi_fcmplt>
    122e:	2800      	cmp	r0, #0
    1230:	d007      	beq.n	1242 <main+0xf72>
    1232:	21fc      	movs	r1, #252	; 0xfc
    1234:	9804      	ldr	r0, [sp, #16]
    1236:	0589      	lsls	r1, r1, #22
    1238:	f001 fd36 	bl	2ca8 <__aeabi_fcmplt>
    123c:	2800      	cmp	r0, #0
    123e:	d000      	beq.n	1242 <main+0xf72>
    1240:	e0cc      	b.n	13dc <main+0x110c>
    1242:	4894      	ldr	r0, [pc, #592]	; (1494 <main+0x11c4>)
    1244:	4994      	ldr	r1, [pc, #592]	; (1498 <main+0x11c8>)
    1246:	3040      	adds	r0, #64	; 0x40
    1248:	f001 f862 	bl	2310 <mbed::Stream::printf(char const*, ...)>
    124c:	9606      	str	r6, [sp, #24]
    124e:	4893      	ldr	r0, [pc, #588]	; (149c <main+0x11cc>)
    1250:	f000 fb92 	bl	1978 <analogin_read>
    1254:	9003      	str	r0, [sp, #12]
    1256:	4892      	ldr	r0, [pc, #584]	; (14a0 <main+0x11d0>)
    1258:	f000 fb8e 	bl	1978 <analogin_read>
    125c:	9007      	str	r0, [sp, #28]
    125e:	4891      	ldr	r0, [pc, #580]	; (14a4 <main+0x11d4>)
    1260:	f000 fb8a 	bl	1978 <analogin_read>
    1264:	9004      	str	r0, [sp, #16]
    1266:	9904      	ldr	r1, [sp, #16]
    1268:	9803      	ldr	r0, [sp, #12]
    126a:	f002 f9cf 	bl	360c <__aeabi_fsub>
    126e:	f004 f949 	bl	5504 <__aeabi_f2d>
    1272:	4a6f      	ldr	r2, [pc, #444]	; (1430 <main+0x1160>)
    1274:	4b6f      	ldr	r3, [pc, #444]	; (1434 <main+0x1164>)
    1276:	f002 fc05 	bl	3a84 <__aeabi_dadd>
    127a:	f004 f995 	bl	55a8 <__aeabi_d2f>
    127e:	1c06      	adds	r6, r0, #0
    1280:	1c38      	adds	r0, r7, #0
    1282:	f004 f93f 	bl	5504 <__aeabi_f2d>
    1286:	1c04      	adds	r4, r0, #0
    1288:	1c0d      	adds	r5, r1, #0
    128a:	1c30      	adds	r0, r6, #0
    128c:	9906      	ldr	r1, [sp, #24]
    128e:	f001 fd4b 	bl	2d28 <__aeabi_fadd>
    1292:	f004 f937 	bl	5504 <__aeabi_f2d>
    1296:	4a68      	ldr	r2, [pc, #416]	; (1438 <main+0x1168>)
    1298:	4b68      	ldr	r3, [pc, #416]	; (143c <main+0x116c>)
    129a:	f003 fb79 	bl	4990 <__aeabi_dmul>
    129e:	1c02      	adds	r2, r0, #0
    12a0:	1c0b      	adds	r3, r1, #0
    12a2:	1c20      	adds	r0, r4, #0
    12a4:	1c29      	adds	r1, r5, #0
    12a6:	f002 fbed 	bl	3a84 <__aeabi_dadd>
    12aa:	f004 f97d 	bl	55a8 <__aeabi_d2f>
    12ae:	1c07      	adds	r7, r0, #0
    12b0:	1c30      	adds	r0, r6, #0
    12b2:	f004 f927 	bl	5504 <__aeabi_f2d>
    12b6:	4a62      	ldr	r2, [pc, #392]	; (1440 <main+0x1170>)
    12b8:	4b62      	ldr	r3, [pc, #392]	; (1444 <main+0x1174>)
    12ba:	9000      	str	r0, [sp, #0]
    12bc:	9101      	str	r1, [sp, #4]
    12be:	f003 fb67 	bl	4990 <__aeabi_dmul>
    12c2:	1c04      	adds	r4, r0, #0
    12c4:	1c38      	adds	r0, r7, #0
    12c6:	1c0d      	adds	r5, r1, #0
    12c8:	f004 f91c 	bl	5504 <__aeabi_f2d>
    12cc:	4a5e      	ldr	r2, [pc, #376]	; (1448 <main+0x1178>)
    12ce:	4b5f      	ldr	r3, [pc, #380]	; (144c <main+0x117c>)
    12d0:	f003 fb5e 	bl	4990 <__aeabi_dmul>
    12d4:	1c02      	adds	r2, r0, #0
    12d6:	1c0b      	adds	r3, r1, #0
    12d8:	1c20      	adds	r0, r4, #0
    12da:	1c29      	adds	r1, r5, #0
    12dc:	f002 fbd2 	bl	3a84 <__aeabi_dadd>
    12e0:	1c04      	adds	r4, r0, #0
    12e2:	1c0d      	adds	r5, r1, #0
    12e4:	1c30      	adds	r0, r6, #0
    12e6:	9906      	ldr	r1, [sp, #24]
    12e8:	f002 f990 	bl	360c <__aeabi_fsub>
    12ec:	f004 f90a 	bl	5504 <__aeabi_f2d>
    12f0:	4a57      	ldr	r2, [pc, #348]	; (1450 <main+0x1180>)
    12f2:	4b58      	ldr	r3, [pc, #352]	; (1454 <main+0x1184>)
    12f4:	f002 fee2 	bl	40bc <__aeabi_ddiv>
    12f8:	f004 f956 	bl	55a8 <__aeabi_d2f>
    12fc:	0040      	lsls	r0, r0, #1
    12fe:	0840      	lsrs	r0, r0, #1
    1300:	f004 f900 	bl	5504 <__aeabi_f2d>
    1304:	4a54      	ldr	r2, [pc, #336]	; (1458 <main+0x1188>)
    1306:	4b55      	ldr	r3, [pc, #340]	; (145c <main+0x118c>)
    1308:	f003 fb42 	bl	4990 <__aeabi_dmul>
    130c:	1c02      	adds	r2, r0, #0
    130e:	1c0b      	adds	r3, r1, #0
    1310:	1c20      	adds	r0, r4, #0
    1312:	1c29      	adds	r1, r5, #0
    1314:	f002 fbb6 	bl	3a84 <__aeabi_dadd>
    1318:	f004 f946 	bl	55a8 <__aeabi_d2f>
    131c:	4a50      	ldr	r2, [pc, #320]	; (1460 <main+0x1190>)
    131e:	4b51      	ldr	r3, [pc, #324]	; (1464 <main+0x1194>)
    1320:	1c04      	adds	r4, r0, #0
    1322:	9800      	ldr	r0, [sp, #0]
    1324:	9901      	ldr	r1, [sp, #4]
    1326:	f001 fc99 	bl	2c5c <__aeabi_dcmpgt>
    132a:	2800      	cmp	r0, #0
    132c:	d137      	bne.n	139e <main+0x10ce>
    132e:	9800      	ldr	r0, [sp, #0]
    1330:	9901      	ldr	r1, [sp, #4]
    1332:	4a4d      	ldr	r2, [pc, #308]	; (1468 <main+0x1198>)
    1334:	4b4d      	ldr	r3, [pc, #308]	; (146c <main+0x119c>)
    1336:	f001 fc7d 	bl	2c34 <__aeabi_dcmplt>
    133a:	4659      	mov	r1, r11
    133c:	68cb      	ldr	r3, [r1, #12]
    133e:	684a      	ldr	r2, [r1, #4]
    1340:	4651      	mov	r1, r10
    1342:	601a      	str	r2, [r3, #0]
    1344:	684a      	ldr	r2, [r1, #4]
    1346:	690b      	ldr	r3, [r1, #16]
    1348:	601a      	str	r2, [r3, #0]
    134a:	2800      	cmp	r0, #0
    134c:	d000      	beq.n	1350 <main+0x1080>
    134e:	e737      	b.n	11c0 <main+0xef0>
    1350:	1c20      	adds	r0, r4, #0
    1352:	f004 f8d7 	bl	5504 <__aeabi_f2d>
    1356:	1c04      	adds	r4, r0, #0
    1358:	1c0d      	adds	r5, r1, #0
    135a:	1c22      	adds	r2, r4, #0
    135c:	1c2b      	adds	r3, r5, #0
    135e:	4844      	ldr	r0, [pc, #272]	; (1470 <main+0x11a0>)
    1360:	4944      	ldr	r1, [pc, #272]	; (1474 <main+0x11a4>)
    1362:	f003 fda5 	bl	4eb0 <__aeabi_dsub>
    1366:	f004 f91f 	bl	55a8 <__aeabi_d2f>
    136a:	1c01      	adds	r1, r0, #0
    136c:	4843      	ldr	r0, [pc, #268]	; (147c <main+0x11ac>)
    136e:	f000 fc7d 	bl	1c6c <pwmout_write>
    1372:	4649      	mov	r1, r9
    1374:	68cb      	ldr	r3, [r1, #12]
    1376:	684a      	ldr	r2, [r1, #4]
    1378:	4641      	mov	r1, r8
    137a:	601a      	str	r2, [r3, #0]
    137c:	684a      	ldr	r2, [r1, #4]
    137e:	690b      	ldr	r3, [r1, #16]
    1380:	1c20      	adds	r0, r4, #0
    1382:	601a      	str	r2, [r3, #0]
    1384:	1c29      	adds	r1, r5, #0
    1386:	4a3a      	ldr	r2, [pc, #232]	; (1470 <main+0x11a0>)
    1388:	4b3a      	ldr	r3, [pc, #232]	; (1474 <main+0x11a4>)
    138a:	f002 fb7b 	bl	3a84 <__aeabi_dadd>
    138e:	f004 f90b 	bl	55a8 <__aeabi_d2f>
    1392:	1c01      	adds	r1, r0, #0
    1394:	483b      	ldr	r0, [pc, #236]	; (1484 <main+0x11b4>)
    1396:	f000 fc69 	bl	1c6c <pwmout_write>
    139a:	2700      	movs	r7, #0
    139c:	e726      	b.n	11ec <main+0xf1c>
    139e:	4659      	mov	r1, r11
    13a0:	68cb      	ldr	r3, [r1, #12]
    13a2:	684a      	ldr	r2, [r1, #4]
    13a4:	4651      	mov	r1, r10
    13a6:	601a      	str	r2, [r3, #0]
    13a8:	684a      	ldr	r2, [r1, #4]
    13aa:	690b      	ldr	r3, [r1, #16]
    13ac:	20fe      	movs	r0, #254	; 0xfe
    13ae:	601a      	str	r2, [r3, #0]
    13b0:	1c21      	adds	r1, r4, #0
    13b2:	0580      	lsls	r0, r0, #22
    13b4:	f002 f92a 	bl	360c <__aeabi_fsub>
    13b8:	1c01      	adds	r1, r0, #0
    13ba:	4830      	ldr	r0, [pc, #192]	; (147c <main+0x11ac>)
    13bc:	f000 fc56 	bl	1c6c <pwmout_write>
    13c0:	4649      	mov	r1, r9
    13c2:	68cb      	ldr	r3, [r1, #12]
    13c4:	684a      	ldr	r2, [r1, #4]
    13c6:	4641      	mov	r1, r8
    13c8:	601a      	str	r2, [r3, #0]
    13ca:	684a      	ldr	r2, [r1, #4]
    13cc:	690b      	ldr	r3, [r1, #16]
    13ce:	21fe      	movs	r1, #254	; 0xfe
    13d0:	601a      	str	r2, [r3, #0]
    13d2:	482c      	ldr	r0, [pc, #176]	; (1484 <main+0x11b4>)
    13d4:	0589      	lsls	r1, r1, #22
    13d6:	f000 fc49 	bl	1c6c <pwmout_write>
    13da:	e707      	b.n	11ec <main+0xf1c>
    13dc:	4659      	mov	r1, r11
    13de:	68cb      	ldr	r3, [r1, #12]
    13e0:	684a      	ldr	r2, [r1, #4]
    13e2:	4651      	mov	r1, r10
    13e4:	601a      	str	r2, [r3, #0]
    13e6:	684a      	ldr	r2, [r1, #4]
    13e8:	690b      	ldr	r3, [r1, #16]
    13ea:	4824      	ldr	r0, [pc, #144]	; (147c <main+0x11ac>)
    13ec:	601a      	str	r2, [r3, #0]
    13ee:	4926      	ldr	r1, [pc, #152]	; (1488 <main+0x11b8>)
    13f0:	9703      	str	r7, [sp, #12]
    13f2:	f000 fc3b 	bl	1c6c <pwmout_write>
    13f6:	4649      	mov	r1, r9
    13f8:	68cb      	ldr	r3, [r1, #12]
    13fa:	684a      	ldr	r2, [r1, #4]
    13fc:	4641      	mov	r1, r8
    13fe:	601a      	str	r2, [r3, #0]
    1400:	684a      	ldr	r2, [r1, #4]
    1402:	690b      	ldr	r3, [r1, #16]
    1404:	481f      	ldr	r0, [pc, #124]	; (1484 <main+0x11b4>)
    1406:	601a      	str	r2, [r3, #0]
    1408:	491f      	ldr	r1, [pc, #124]	; (1488 <main+0x11b8>)
    140a:	f000 fc2f 	bl	1c6c <pwmout_write>
    140e:	20fc      	movs	r0, #252	; 0xfc
    1410:	0580      	lsls	r0, r0, #22
    1412:	f000 fcd3 	bl	1dbc <wait>
    1416:	9606      	str	r6, [sp, #24]
    1418:	2306      	movs	r3, #6
    141a:	f7fe ff78 	bl	30e <main+0x3e>
    141e:	4c1d      	ldr	r4, [pc, #116]	; (1494 <main+0x11c4>)
    1420:	3440      	adds	r4, #64	; 0x40
    1422:	e045      	b.n	14b0 <main+0x11e0>
    1424:	46c0      	nop			; (mov r8, r8)
    1426:	46c0      	nop			; (mov r8, r8)
    1428:	cccccccd 	.word	0xcccccccd
    142c:	3fdccccc 	.word	0x3fdccccc
    1430:	d2f1a9fc 	.word	0xd2f1a9fc
    1434:	3f70624d 	.word	0x3f70624d
    1438:	47ae147b 	.word	0x47ae147b
    143c:	3f847ae1 	.word	0x3f847ae1
    1440:	1eb851ec 	.word	0x1eb851ec
    1444:	3fe9eb85 	.word	0x3fe9eb85
    1448:	d2f1a9fc 	.word	0xd2f1a9fc
    144c:	3f60624d 	.word	0x3f60624d
    1450:	47ae147b 	.word	0x47ae147b
    1454:	3f947ae1 	.word	0x3f947ae1
    1458:	020c49ba 	.word	0x020c49ba
    145c:	3f96872b 	.word	0x3f96872b
    1460:	9999999a 	.word	0x9999999a
    1464:	3fa99999 	.word	0x3fa99999
    1468:	9999999a 	.word	0x9999999a
    146c:	bfa99999 	.word	0xbfa99999
    1470:	9999999a 	.word	0x9999999a
    1474:	3fe99999 	.word	0x3fe99999
    1478:	10000198 	.word	0x10000198
    147c:	10000264 	.word	0x10000264
    1480:	3f4ccccd 	.word	0x3f4ccccd
    1484:	1000026c 	.word	0x1000026c
    1488:	3f19999a 	.word	0x3f19999a
    148c:	3f333333 	.word	0x3f333333
    1490:	3d4ccccd 	.word	0x3d4ccccd
    1494:	100001a0 	.word	0x100001a0
    1498:	000077d8 	.word	0x000077d8
    149c:	100001fc 	.word	0x100001fc
    14a0:	10000194 	.word	0x10000194
    14a4:	10000260 	.word	0x10000260
    14a8:	1c20      	adds	r0, r4, #0
    14aa:	4969      	ldr	r1, [pc, #420]	; (1650 <main+0x1380>)
    14ac:	f000 ff30 	bl	2310 <mbed::Stream::printf(char const*, ...)>
    14b0:	4868      	ldr	r0, [pc, #416]	; (1654 <main+0x1384>)
    14b2:	f000 fa61 	bl	1978 <analogin_read>
    14b6:	4868      	ldr	r0, [pc, #416]	; (1658 <main+0x1388>)
    14b8:	f000 fa5e 	bl	1978 <analogin_read>
    14bc:	4867      	ldr	r0, [pc, #412]	; (165c <main+0x138c>)
    14be:	f000 fa5b 	bl	1978 <analogin_read>
    14c2:	4659      	mov	r1, r11
    14c4:	68cb      	ldr	r3, [r1, #12]
    14c6:	684a      	ldr	r2, [r1, #4]
    14c8:	4651      	mov	r1, r10
    14ca:	601a      	str	r2, [r3, #0]
    14cc:	684a      	ldr	r2, [r1, #4]
    14ce:	690b      	ldr	r3, [r1, #16]
    14d0:	4863      	ldr	r0, [pc, #396]	; (1660 <main+0x1390>)
    14d2:	601a      	str	r2, [r3, #0]
    14d4:	4963      	ldr	r1, [pc, #396]	; (1664 <main+0x1394>)
    14d6:	f000 fbc9 	bl	1c6c <pwmout_write>
    14da:	4649      	mov	r1, r9
    14dc:	68cb      	ldr	r3, [r1, #12]
    14de:	684a      	ldr	r2, [r1, #4]
    14e0:	4641      	mov	r1, r8
    14e2:	601a      	str	r2, [r3, #0]
    14e4:	684a      	ldr	r2, [r1, #4]
    14e6:	690b      	ldr	r3, [r1, #16]
    14e8:	485f      	ldr	r0, [pc, #380]	; (1668 <main+0x1398>)
    14ea:	601a      	str	r2, [r3, #0]
    14ec:	495d      	ldr	r1, [pc, #372]	; (1664 <main+0x1394>)
    14ee:	f000 fbbd 	bl	1c6c <pwmout_write>
    14f2:	485e      	ldr	r0, [pc, #376]	; (166c <main+0x139c>)
    14f4:	f000 fa40 	bl	1978 <analogin_read>
    14f8:	f004 f804 	bl	5504 <__aeabi_f2d>
    14fc:	4b53      	ldr	r3, [pc, #332]	; (164c <main+0x137c>)
    14fe:	4a52      	ldr	r2, [pc, #328]	; (1648 <main+0x1378>)
    1500:	f001 fbac 	bl	2c5c <__aeabi_dcmpgt>
    1504:	2800      	cmp	r0, #0
    1506:	d0cf      	beq.n	14a8 <main+0x11d8>
    1508:	2307      	movs	r3, #7
    150a:	f7fe ff00 	bl	30e <main+0x3e>
    150e:	2196      	movs	r1, #150	; 0x96
    1510:	4857      	ldr	r0, [pc, #348]	; (1670 <main+0x13a0>)
    1512:	0109      	lsls	r1, r1, #4
    1514:	f000 fbfa 	bl	1d0c <pwmout_pulsewidth_us>
    1518:	4659      	mov	r1, r11
    151a:	68cb      	ldr	r3, [r1, #12]
    151c:	684a      	ldr	r2, [r1, #4]
    151e:	4651      	mov	r1, r10
    1520:	601a      	str	r2, [r3, #0]
    1522:	684a      	ldr	r2, [r1, #4]
    1524:	68cb      	ldr	r3, [r1, #12]
    1526:	21fe      	movs	r1, #254	; 0xfe
    1528:	601a      	str	r2, [r3, #0]
    152a:	484d      	ldr	r0, [pc, #308]	; (1660 <main+0x1390>)
    152c:	0589      	lsls	r1, r1, #22
    152e:	f000 fb9d 	bl	1c6c <pwmout_write>
    1532:	4649      	mov	r1, r9
    1534:	68cb      	ldr	r3, [r1, #12]
    1536:	684a      	ldr	r2, [r1, #4]
    1538:	4641      	mov	r1, r8
    153a:	601a      	str	r2, [r3, #0]
    153c:	684a      	ldr	r2, [r1, #4]
    153e:	68cb      	ldr	r3, [r1, #12]
    1540:	21fe      	movs	r1, #254	; 0xfe
    1542:	601a      	str	r2, [r3, #0]
    1544:	4848      	ldr	r0, [pc, #288]	; (1668 <main+0x1398>)
    1546:	0589      	lsls	r1, r1, #22
    1548:	f000 fb90 	bl	1c6c <pwmout_write>
    154c:	4849      	ldr	r0, [pc, #292]	; (1674 <main+0x13a4>)
    154e:	494a      	ldr	r1, [pc, #296]	; (1678 <main+0x13a8>)
    1550:	3040      	adds	r0, #64	; 0x40
    1552:	f000 fedd 	bl	2310 <mbed::Stream::printf(char const*, ...)>
    1556:	230b      	movs	r3, #11
    1558:	f7fe fed9 	bl	30e <main+0x3e>
    155c:	2196      	movs	r1, #150	; 0x96
    155e:	4844      	ldr	r0, [pc, #272]	; (1670 <main+0x13a0>)
    1560:	0109      	lsls	r1, r1, #4
    1562:	f000 fbd3 	bl	1d0c <pwmout_pulsewidth_us>
    1566:	4659      	mov	r1, r11
    1568:	68cb      	ldr	r3, [r1, #12]
    156a:	684a      	ldr	r2, [r1, #4]
    156c:	4651      	mov	r1, r10
    156e:	601a      	str	r2, [r3, #0]
    1570:	684a      	ldr	r2, [r1, #4]
    1572:	690b      	ldr	r3, [r1, #16]
    1574:	483a      	ldr	r0, [pc, #232]	; (1660 <main+0x1390>)
    1576:	601a      	str	r2, [r3, #0]
    1578:	493a      	ldr	r1, [pc, #232]	; (1664 <main+0x1394>)
    157a:	f000 fb77 	bl	1c6c <pwmout_write>
    157e:	4649      	mov	r1, r9
    1580:	68cb      	ldr	r3, [r1, #12]
    1582:	684a      	ldr	r2, [r1, #4]
    1584:	4641      	mov	r1, r8
    1586:	601a      	str	r2, [r3, #0]
    1588:	684a      	ldr	r2, [r1, #4]
    158a:	690b      	ldr	r3, [r1, #16]
    158c:	4836      	ldr	r0, [pc, #216]	; (1668 <main+0x1398>)
    158e:	601a      	str	r2, [r3, #0]
    1590:	493a      	ldr	r1, [pc, #232]	; (167c <main+0x13ac>)
    1592:	f000 fb6b 	bl	1c6c <pwmout_write>
    1596:	f7ff f962 	bl	85e <main+0x58e>
    159a:	2196      	movs	r1, #150	; 0x96
    159c:	4834      	ldr	r0, [pc, #208]	; (1670 <main+0x13a0>)
    159e:	0109      	lsls	r1, r1, #4
    15a0:	f000 fbb4 	bl	1d0c <pwmout_pulsewidth_us>
    15a4:	4659      	mov	r1, r11
    15a6:	68cb      	ldr	r3, [r1, #12]
    15a8:	684a      	ldr	r2, [r1, #4]
    15aa:	4651      	mov	r1, r10
    15ac:	601a      	str	r2, [r3, #0]
    15ae:	684a      	ldr	r2, [r1, #4]
    15b0:	690b      	ldr	r3, [r1, #16]
    15b2:	482b      	ldr	r0, [pc, #172]	; (1660 <main+0x1390>)
    15b4:	601a      	str	r2, [r3, #0]
    15b6:	4931      	ldr	r1, [pc, #196]	; (167c <main+0x13ac>)
    15b8:	f000 fb58 	bl	1c6c <pwmout_write>
    15bc:	4649      	mov	r1, r9
    15be:	68cb      	ldr	r3, [r1, #12]
    15c0:	684a      	ldr	r2, [r1, #4]
    15c2:	4641      	mov	r1, r8
    15c4:	601a      	str	r2, [r3, #0]
    15c6:	684a      	ldr	r2, [r1, #4]
    15c8:	690b      	ldr	r3, [r1, #16]
    15ca:	4827      	ldr	r0, [pc, #156]	; (1668 <main+0x1398>)
    15cc:	601a      	str	r2, [r3, #0]
    15ce:	4925      	ldr	r1, [pc, #148]	; (1664 <main+0x1394>)
    15d0:	f000 fb4c 	bl	1c6c <pwmout_write>
    15d4:	f7ff f943 	bl	85e <main+0x58e>
    15d8:	4829      	ldr	r0, [pc, #164]	; (1680 <main+0x13b0>)
    15da:	f000 fbef 	bl	1dbc <wait>
    15de:	2196      	movs	r1, #150	; 0x96
    15e0:	4823      	ldr	r0, [pc, #140]	; (1670 <main+0x13a0>)
    15e2:	0109      	lsls	r1, r1, #4
    15e4:	f000 fb92 	bl	1d0c <pwmout_pulsewidth_us>
    15e8:	f7ff f939 	bl	85e <main+0x58e>
    15ec:	2196      	movs	r1, #150	; 0x96
    15ee:	4820      	ldr	r0, [pc, #128]	; (1670 <main+0x13a0>)
    15f0:	0109      	lsls	r1, r1, #4
    15f2:	f000 fb8b 	bl	1d0c <pwmout_pulsewidth_us>
    15f6:	4659      	mov	r1, r11
    15f8:	68cb      	ldr	r3, [r1, #12]
    15fa:	684a      	ldr	r2, [r1, #4]
    15fc:	4651      	mov	r1, r10
    15fe:	601a      	str	r2, [r3, #0]
    1600:	684a      	ldr	r2, [r1, #4]
    1602:	690b      	ldr	r3, [r1, #16]
    1604:	4816      	ldr	r0, [pc, #88]	; (1660 <main+0x1390>)
    1606:	601a      	str	r2, [r3, #0]
    1608:	491e      	ldr	r1, [pc, #120]	; (1684 <main+0x13b4>)
    160a:	f000 fb2f 	bl	1c6c <pwmout_write>
    160e:	4649      	mov	r1, r9
    1610:	68cb      	ldr	r3, [r1, #12]
    1612:	684a      	ldr	r2, [r1, #4]
    1614:	4641      	mov	r1, r8
    1616:	601a      	str	r2, [r3, #0]
    1618:	684a      	ldr	r2, [r1, #4]
    161a:	690b      	ldr	r3, [r1, #16]
    161c:	4812      	ldr	r0, [pc, #72]	; (1668 <main+0x1398>)
    161e:	601a      	str	r2, [r3, #0]
    1620:	4918      	ldr	r1, [pc, #96]	; (1684 <main+0x13b4>)
    1622:	f000 fb23 	bl	1c6c <pwmout_write>
    1626:	f7ff f91a 	bl	85e <main+0x58e>
    162a:	4917      	ldr	r1, [pc, #92]	; (1688 <main+0x13b8>)
    162c:	4810      	ldr	r0, [pc, #64]	; (1670 <main+0x13a0>)
    162e:	f000 fb6d 	bl	1d0c <pwmout_pulsewidth_us>
    1632:	4816      	ldr	r0, [pc, #88]	; (168c <main+0x13bc>)
    1634:	f000 fbc2 	bl	1dbc <wait>
    1638:	480e      	ldr	r0, [pc, #56]	; (1674 <main+0x13a4>)
    163a:	4915      	ldr	r1, [pc, #84]	; (1690 <main+0x13c0>)
    163c:	3040      	adds	r0, #64	; 0x40
    163e:	f000 fe67 	bl	2310 <mbed::Stream::printf(char const*, ...)>
    1642:	230a      	movs	r3, #10
    1644:	f7fe fe63 	bl	30e <main+0x3e>
    1648:	66666666 	.word	0x66666666
    164c:	3fe66666 	.word	0x3fe66666
    1650:	000077e4 	.word	0x000077e4
    1654:	100001fc 	.word	0x100001fc
    1658:	10000194 	.word	0x10000194
    165c:	10000260 	.word	0x10000260
    1660:	10000264 	.word	0x10000264
    1664:	3f333333 	.word	0x3f333333
    1668:	1000026c 	.word	0x1000026c
    166c:	10000178 	.word	0x10000178
    1670:	10000198 	.word	0x10000198
    1674:	100001a0 	.word	0x100001a0
    1678:	00007814 	.word	0x00007814
    167c:	3f4ccccd 	.word	0x3f4ccccd
    1680:	3dcccccd 	.word	0x3dcccccd
    1684:	3f19999a 	.word	0x3f19999a
    1688:	0000073a 	.word	0x0000073a
    168c:	3e4ccccd 	.word	0x3e4ccccd
    1690:	00007808 	.word	0x00007808
    1694:	46c0      	nop			; (mov r8, r8)
    1696:	46c0      	nop			; (mov r8, r8)

00001698 <_GLOBAL__sub_I_start_sw>:
    1698:	4850      	ldr	r0, [pc, #320]	; (17dc <_GLOBAL__sub_I_start_sw+0x144>)
    169a:	2196      	movs	r1, #150	; 0x96
    169c:	b538      	push	{r3, r4, r5, lr}
    169e:	0049      	lsls	r1, r1, #1
    16a0:	2400      	movs	r4, #0
    16a2:	2202      	movs	r2, #2
    16a4:	2582      	movs	r5, #130	; 0x82
    16a6:	8004      	strh	r4, [r0, #0]
    16a8:	6044      	str	r4, [r0, #4]
    16aa:	6084      	str	r4, [r0, #8]
    16ac:	60c4      	str	r4, [r0, #12]
    16ae:	6104      	str	r4, [r0, #16]
    16b0:	6144      	str	r4, [r0, #20]
    16b2:	00ed      	lsls	r5, r5, #3
    16b4:	f000 fb38 	bl	1d28 <gpio_init_in_ex>
    16b8:	4849      	ldr	r0, [pc, #292]	; (17e0 <_GLOBAL__sub_I_start_sw+0x148>)
    16ba:	1c29      	adds	r1, r5, #0
    16bc:	2200      	movs	r2, #0
    16be:	8004      	strh	r4, [r0, #0]
    16c0:	6044      	str	r4, [r0, #4]
    16c2:	6084      	str	r4, [r0, #8]
    16c4:	60c4      	str	r4, [r0, #12]
    16c6:	6104      	str	r4, [r0, #16]
    16c8:	6144      	str	r4, [r0, #20]
    16ca:	f000 fb2d 	bl	1d28 <gpio_init_in_ex>
    16ce:	1c29      	adds	r1, r5, #0
    16d0:	4844      	ldr	r0, [pc, #272]	; (17e4 <_GLOBAL__sub_I_start_sw+0x14c>)
    16d2:	4d45      	ldr	r5, [pc, #276]	; (17e8 <_GLOBAL__sub_I_start_sw+0x150>)
    16d4:	f000 f8fa 	bl	18cc <analogin_init>
    16d8:	4844      	ldr	r0, [pc, #272]	; (17ec <_GLOBAL__sub_I_start_sw+0x154>)
    16da:	1c29      	adds	r1, r5, #0
    16dc:	2200      	movs	r2, #0
    16de:	8004      	strh	r4, [r0, #0]
    16e0:	6044      	str	r4, [r0, #4]
    16e2:	6084      	str	r4, [r0, #8]
    16e4:	60c4      	str	r4, [r0, #12]
    16e6:	6104      	str	r4, [r0, #16]
    16e8:	6144      	str	r4, [r0, #20]
    16ea:	f000 fb1d 	bl	1d28 <gpio_init_in_ex>
    16ee:	1c29      	adds	r1, r5, #0
    16f0:	483f      	ldr	r0, [pc, #252]	; (17f0 <_GLOBAL__sub_I_start_sw+0x158>)
    16f2:	2588      	movs	r5, #136	; 0x88
    16f4:	f000 f8ea 	bl	18cc <analogin_init>
    16f8:	016d      	lsls	r5, r5, #5
    16fa:	483e      	ldr	r0, [pc, #248]	; (17f4 <_GLOBAL__sub_I_start_sw+0x15c>)
    16fc:	1c29      	adds	r1, r5, #0
    16fe:	2200      	movs	r2, #0
    1700:	8004      	strh	r4, [r0, #0]
    1702:	6044      	str	r4, [r0, #4]
    1704:	6084      	str	r4, [r0, #8]
    1706:	60c4      	str	r4, [r0, #12]
    1708:	6104      	str	r4, [r0, #16]
    170a:	6144      	str	r4, [r0, #20]
    170c:	f000 fb0c 	bl	1d28 <gpio_init_in_ex>
    1710:	1c29      	adds	r1, r5, #0
    1712:	4839      	ldr	r0, [pc, #228]	; (17f8 <_GLOBAL__sub_I_start_sw+0x160>)
    1714:	4d39      	ldr	r5, [pc, #228]	; (17fc <_GLOBAL__sub_I_start_sw+0x164>)
    1716:	f000 f8d9 	bl	18cc <analogin_init>
    171a:	4839      	ldr	r0, [pc, #228]	; (1800 <_GLOBAL__sub_I_start_sw+0x168>)
    171c:	1c29      	adds	r1, r5, #0
    171e:	2200      	movs	r2, #0
    1720:	8004      	strh	r4, [r0, #0]
    1722:	6044      	str	r4, [r0, #4]
    1724:	6084      	str	r4, [r0, #8]
    1726:	60c4      	str	r4, [r0, #12]
    1728:	6104      	str	r4, [r0, #16]
    172a:	6144      	str	r4, [r0, #20]
    172c:	f000 fafc 	bl	1d28 <gpio_init_in_ex>
    1730:	1c29      	adds	r1, r5, #0
    1732:	4834      	ldr	r0, [pc, #208]	; (1804 <_GLOBAL__sub_I_start_sw+0x16c>)
    1734:	4d34      	ldr	r5, [pc, #208]	; (1808 <_GLOBAL__sub_I_start_sw+0x170>)
    1736:	f000 f8c9 	bl	18cc <analogin_init>
    173a:	4834      	ldr	r0, [pc, #208]	; (180c <_GLOBAL__sub_I_start_sw+0x174>)
    173c:	2200      	movs	r2, #0
    173e:	1c29      	adds	r1, r5, #0
    1740:	8004      	strh	r4, [r0, #0]
    1742:	6044      	str	r4, [r0, #4]
    1744:	6084      	str	r4, [r0, #8]
    1746:	60c4      	str	r4, [r0, #12]
    1748:	6104      	str	r4, [r0, #16]
    174a:	6144      	str	r4, [r0, #20]
    174c:	f000 faec 	bl	1d28 <gpio_init_in_ex>
    1750:	1c29      	adds	r1, r5, #0
    1752:	482f      	ldr	r0, [pc, #188]	; (1810 <_GLOBAL__sub_I_start_sw+0x178>)
    1754:	f000 f8ba 	bl	18cc <analogin_init>
    1758:	482e      	ldr	r0, [pc, #184]	; (1814 <_GLOBAL__sub_I_start_sw+0x17c>)
    175a:	492f      	ldr	r1, [pc, #188]	; (1818 <_GLOBAL__sub_I_start_sw+0x180>)
    175c:	8004      	strh	r4, [r0, #0]
    175e:	6044      	str	r4, [r0, #4]
    1760:	6084      	str	r4, [r0, #8]
    1762:	60c4      	str	r4, [r0, #12]
    1764:	6104      	str	r4, [r0, #16]
    1766:	6144      	str	r4, [r0, #20]
    1768:	f000 faf0 	bl	1d4c <gpio_init_out>
    176c:	482b      	ldr	r0, [pc, #172]	; (181c <_GLOBAL__sub_I_start_sw+0x184>)
    176e:	492c      	ldr	r1, [pc, #176]	; (1820 <_GLOBAL__sub_I_start_sw+0x188>)
    1770:	8004      	strh	r4, [r0, #0]
    1772:	6044      	str	r4, [r0, #4]
    1774:	6084      	str	r4, [r0, #8]
    1776:	60c4      	str	r4, [r0, #12]
    1778:	6104      	str	r4, [r0, #16]
    177a:	6144      	str	r4, [r0, #20]
    177c:	f000 fae6 	bl	1d4c <gpio_init_out>
    1780:	4828      	ldr	r0, [pc, #160]	; (1824 <_GLOBAL__sub_I_start_sw+0x18c>)
    1782:	4929      	ldr	r1, [pc, #164]	; (1828 <_GLOBAL__sub_I_start_sw+0x190>)
    1784:	f000 f964 	bl	1a50 <pwmout_init>
    1788:	4828      	ldr	r0, [pc, #160]	; (182c <_GLOBAL__sub_I_start_sw+0x194>)
    178a:	21c8      	movs	r1, #200	; 0xc8
    178c:	00c9      	lsls	r1, r1, #3
    178e:	8004      	strh	r4, [r0, #0]
    1790:	6044      	str	r4, [r0, #4]
    1792:	6084      	str	r4, [r0, #8]
    1794:	60c4      	str	r4, [r0, #12]
    1796:	6104      	str	r4, [r0, #16]
    1798:	6144      	str	r4, [r0, #20]
    179a:	f000 fad7 	bl	1d4c <gpio_init_out>
    179e:	4824      	ldr	r0, [pc, #144]	; (1830 <_GLOBAL__sub_I_start_sw+0x198>)
    17a0:	2144      	movs	r1, #68	; 0x44
    17a2:	8004      	strh	r4, [r0, #0]
    17a4:	6044      	str	r4, [r0, #4]
    17a6:	6084      	str	r4, [r0, #8]
    17a8:	60c4      	str	r4, [r0, #12]
    17aa:	6104      	str	r4, [r0, #16]
    17ac:	6144      	str	r4, [r0, #20]
    17ae:	f000 facd 	bl	1d4c <gpio_init_out>
    17b2:	4820      	ldr	r0, [pc, #128]	; (1834 <_GLOBAL__sub_I_start_sw+0x19c>)
    17b4:	4920      	ldr	r1, [pc, #128]	; (1838 <_GLOBAL__sub_I_start_sw+0x1a0>)
    17b6:	f000 f94b 	bl	1a50 <pwmout_init>
    17ba:	4820      	ldr	r0, [pc, #128]	; (183c <_GLOBAL__sub_I_start_sw+0x1a4>)
    17bc:	4920      	ldr	r1, [pc, #128]	; (1840 <_GLOBAL__sub_I_start_sw+0x1a8>)
    17be:	f000 f947 	bl	1a50 <pwmout_init>
    17c2:	4c20      	ldr	r4, [pc, #128]	; (1844 <_GLOBAL__sub_I_start_sw+0x1ac>)
    17c4:	2300      	movs	r3, #0
    17c6:	1c20      	adds	r0, r4, #0
    17c8:	491f      	ldr	r1, [pc, #124]	; (1848 <_GLOBAL__sub_I_start_sw+0x1b0>)
    17ca:	4a20      	ldr	r2, [pc, #128]	; (184c <_GLOBAL__sub_I_start_sw+0x1b4>)
    17cc:	f000 fcba 	bl	2144 <mbed::Serial::Serial(PinName, PinName, char const*)>
    17d0:	1c20      	adds	r0, r4, #0
    17d2:	491f      	ldr	r1, [pc, #124]	; (1850 <_GLOBAL__sub_I_start_sw+0x1b8>)
    17d4:	4a1f      	ldr	r2, [pc, #124]	; (1854 <_GLOBAL__sub_I_start_sw+0x1bc>)
    17d6:	f001 f9bf 	bl	2b58 <__aeabi_atexit>
    17da:	bd38      	pop	{r3, r4, r5, pc}
    17dc:	10000248 	.word	0x10000248
    17e0:	100002a4 	.word	0x100002a4
    17e4:	100001fc 	.word	0x100001fc
    17e8:	00000d04 	.word	0x00000d04
    17ec:	100002bc 	.word	0x100002bc
    17f0:	10000194 	.word	0x10000194
    17f4:	10000160 	.word	0x10000160
    17f8:	10000260 	.word	0x10000260
    17fc:	00001374 	.word	0x00001374
    1800:	1000028c 	.word	0x1000028c
    1804:	10000178 	.word	0x10000178
    1808:	00001470 	.word	0x00001470
    180c:	1000017c 	.word	0x1000017c
    1810:	100001f8 	.word	0x100001f8
    1814:	10000200 	.word	0x10000200
    1818:	00001b54 	.word	0x00001b54
    181c:	10000218 	.word	0x10000218
    1820:	00001a58 	.word	0x00001a58
    1824:	10000264 	.word	0x10000264
    1828:	0000195c 	.word	0x0000195c
    182c:	10000274 	.word	0x10000274
    1830:	10000230 	.word	0x10000230
    1834:	1000026c 	.word	0x1000026c
    1838:	00000e48 	.word	0x00000e48
    183c:	10000198 	.word	0x10000198
    1840:	00001764 	.word	0x00001764
    1844:	100001a0 	.word	0x100001a0
    1848:	0000073c 	.word	0x0000073c
    184c:	00001278 	.word	0x00001278
    1850:	00000235 	.word	0x00000235
    1854:	100000c0 	.word	0x100000c0

00001858 <_start>:
    1858:	4807      	ldr	r0, [pc, #28]	; (1878 <_start+0x20>)
    185a:	4a08      	ldr	r2, [pc, #32]	; (187c <_start+0x24>)
    185c:	b508      	push	{r3, lr}
    185e:	1a12      	subs	r2, r2, r0
    1860:	2100      	movs	r1, #0
    1862:	f004 fb0f 	bl	5e84 <memset>
    1866:	e000      	b.n	186a <_start+0x12>
    1868:	bf00      	nop
    186a:	f004 fa6d 	bl	5d48 <__libc_init_array>
    186e:	f7fe fd2f 	bl	2d0 <main>
    1872:	f003 ff59 	bl	5728 <exit>
    1876:	46c0      	nop			; (mov r8, r8)
    1878:	10000144 	.word	0x10000144
    187c:	10000428 	.word	0x10000428

00001880 <__wrap__isatty>:
    1880:	b508      	push	{r3, lr}
    1882:	2301      	movs	r3, #1
    1884:	2802      	cmp	r0, #2
    1886:	dd02      	ble.n	188e <__wrap__isatty+0xe>
    1888:	f000 fbea 	bl	2060 <_isatty>
    188c:	1c03      	adds	r3, r0, #0
    188e:	1c18      	adds	r0, r3, #0
    1890:	bd08      	pop	{r3, pc}
    1892:	46c0      	nop			; (mov r8, r8)

00001894 <__wrap_malloc>:
    1894:	b508      	push	{r3, lr}
    1896:	f3ef 8305 	mrs	r3, IPSR
    189a:	2b00      	cmp	r3, #0
    189c:	d000      	beq.n	18a0 <__wrap_malloc+0xc>
    189e:	be00      	bkpt	0x0000
    18a0:	f004 fac8 	bl	5e34 <malloc>
    18a4:	bd08      	pop	{r3, pc}
    18a6:	46c0      	nop			; (mov r8, r8)

000018a8 <__wrap_free>:
    18a8:	b508      	push	{r3, lr}
    18aa:	f3ef 8305 	mrs	r3, IPSR
    18ae:	2b00      	cmp	r3, #0
    18b0:	d000      	beq.n	18b4 <__wrap_free+0xc>
    18b2:	be00      	bkpt	0x0000
    18b4:	f004 fac8 	bl	5e48 <free>
    18b8:	bd08      	pop	{r3, pc}
    18ba:	46c0      	nop			; (mov r8, r8)

000018bc <abort>:
    18bc:	b508      	push	{r3, lr}
    18be:	2001      	movs	r0, #1
    18c0:	f003 ff32 	bl	5728 <exit>

000018c4 <__cxa_pure_virtual>:
    18c4:	b508      	push	{r3, lr}
    18c6:	f7ff fff9 	bl	18bc <abort>
    18ca:	46c0      	nop			; (mov r8, r8)

000018cc <analogin_init>:
    18cc:	b5f8      	push	{r3, r4, r5, r6, r7, lr}
    18ce:	464f      	mov	r7, r9
    18d0:	4646      	mov	r6, r8
    18d2:	b4c0      	push	{r6, r7}
    18d4:	1c04      	adds	r4, r0, #0
    18d6:	1c0d      	adds	r5, r1, #0
    18d8:	1c08      	adds	r0, r1, #0
    18da:	4921      	ldr	r1, [pc, #132]	; (1960 <analogin_init+0x94>)
    18dc:	f000 fa4a 	bl	1d74 <pinmap_peripheral>
    18e0:	4b20      	ldr	r3, [pc, #128]	; (1964 <analogin_init+0x98>)
    18e2:	2280      	movs	r2, #128	; 0x80
    18e4:	7020      	strb	r0, [r4, #0]
    18e6:	589c      	ldr	r4, [r3, r2]
    18e8:	2140      	movs	r1, #64	; 0x40
    18ea:	4321      	orrs	r1, r4
    18ec:	5099      	str	r1, [r3, r2]
    18ee:	4f1e      	ldr	r7, [pc, #120]	; (1968 <analogin_init+0x9c>)
    18f0:	21e0      	movs	r1, #224	; 0xe0
    18f2:	0049      	lsls	r1, r1, #1
    18f4:	587c      	ldr	r4, [r7, r1]
    18f6:	2601      	movs	r6, #1
    18f8:	46a4      	mov	r12, r4
    18fa:	24ff      	movs	r4, #255	; 0xff
    18fc:	4020      	ands	r0, r4
    18fe:	4689      	mov	r9, r1
    1900:	300d      	adds	r0, #13
    1902:	1c31      	adds	r1, r6, #0
    1904:	4081      	lsls	r1, r0
    1906:	4660      	mov	r0, r12
    1908:	4388      	bics	r0, r1
    190a:	4649      	mov	r1, r9
    190c:	5078      	str	r0, [r7, r1]
    190e:	20a0      	movs	r0, #160	; 0xa0
    1910:	2180      	movs	r1, #128	; 0x80
    1912:	0600      	lsls	r0, r0, #24
    1914:	0189      	lsls	r1, r1, #6
    1916:	5847      	ldr	r7, [r0, r1]
    1918:	122d      	asrs	r5, r5, #8
    191a:	40ae      	lsls	r6, r5
    191c:	1c3d      	adds	r5, r7, #0
    191e:	43b5      	bics	r5, r6
    1920:	5045      	str	r5, [r0, r1]
    1922:	218e      	movs	r1, #142	; 0x8e
    1924:	0089      	lsls	r1, r1, #2
    1926:	5858      	ldr	r0, [r3, r1]
    1928:	2510      	movs	r5, #16
    192a:	43a8      	bics	r0, r5
    192c:	5058      	str	r0, [r3, r1]
    192e:	5898      	ldr	r0, [r3, r2]
    1930:	2180      	movs	r1, #128	; 0x80
    1932:	0449      	lsls	r1, r1, #17
    1934:	4301      	orrs	r1, r0
    1936:	5099      	str	r1, [r3, r2]
    1938:	4b0c      	ldr	r3, [pc, #48]	; (196c <analogin_init+0xa0>)
    193a:	490d      	ldr	r1, [pc, #52]	; (1970 <analogin_init+0xa4>)
    193c:	6818      	ldr	r0, [r3, #0]
    193e:	f001 f913 	bl	2b68 <__aeabi_uidiv>
    1942:	2280      	movs	r2, #128	; 0x80
    1944:	3801      	subs	r0, #1
    1946:	4004      	ands	r4, r0
    1948:	05d2      	lsls	r2, r2, #23
    194a:	490a      	ldr	r1, [pc, #40]	; (1974 <analogin_init+0xa8>)
    194c:	4314      	orrs	r4, r2
    194e:	600c      	str	r4, [r1, #0]
    1950:	680b      	ldr	r3, [r1, #0]
    1952:	4213      	tst	r3, r2
    1954:	d1fc      	bne.n	1950 <analogin_init+0x84>
    1956:	bc0c      	pop	{r2, r3}
    1958:	4690      	mov	r8, r2
    195a:	4699      	mov	r9, r3
    195c:	bdf8      	pop	{r3, r4, r5, r6, r7, pc}
    195e:	46c0      	nop			; (mov r8, r8)
    1960:	0000782c 	.word	0x0000782c
    1964:	40048000 	.word	0x40048000
    1968:	4000c000 	.word	0x4000c000
    196c:	100000c8 	.word	0x100000c8
    1970:	0007a120 	.word	0x0007a120
    1974:	4001c000 	.word	0x4001c000

00001978 <analogin_read>:
    1978:	4933      	ldr	r1, [pc, #204]	; (1a48 <analogin_read+0xd0>)
    197a:	7803      	ldrb	r3, [r0, #0]
    197c:	b530      	push	{r4, r5, lr}
    197e:	251f      	movs	r5, #31
    1980:	401d      	ands	r5, r3
    1982:	688b      	ldr	r3, [r1, #8]
    1984:	2201      	movs	r2, #1
    1986:	0b1b      	lsrs	r3, r3, #12
    1988:	031b      	lsls	r3, r3, #12
    198a:	608b      	str	r3, [r1, #8]
    198c:	688b      	ldr	r3, [r1, #8]
    198e:	40aa      	lsls	r2, r5
    1990:	4313      	orrs	r3, r2
    1992:	608b      	str	r3, [r1, #8]
    1994:	1c15      	adds	r5, r2, #0
    1996:	2384      	movs	r3, #132	; 0x84
    1998:	688a      	ldr	r2, [r1, #8]
    199a:	061b      	lsls	r3, r3, #24
    199c:	4313      	orrs	r3, r2
    199e:	b085      	sub	sp, #20
    19a0:	608b      	str	r3, [r1, #8]
    19a2:	690b      	ldr	r3, [r1, #16]
    19a4:	4a28      	ldr	r2, [pc, #160]	; (1a48 <analogin_read+0xd0>)
    19a6:	9301      	str	r3, [sp, #4]
    19a8:	9b01      	ldr	r3, [sp, #4]
    19aa:	2b00      	cmp	r3, #0
    19ac:	daf9      	bge.n	19a2 <analogin_read+0x2a>
    19ae:	6893      	ldr	r3, [r2, #8]
    19b0:	005b      	lsls	r3, r3, #1
    19b2:	085b      	lsrs	r3, r3, #1
    19b4:	6093      	str	r3, [r2, #8]
    19b6:	9801      	ldr	r0, [sp, #4]
    19b8:	6893      	ldr	r3, [r2, #8]
    19ba:	0400      	lsls	r0, r0, #16
    19bc:	0b1b      	lsrs	r3, r3, #12
    19be:	031b      	lsls	r3, r3, #12
    19c0:	6093      	str	r3, [r2, #8]
    19c2:	6893      	ldr	r3, [r2, #8]
    19c4:	0d00      	lsrs	r0, r0, #20
    19c6:	432b      	orrs	r3, r5
    19c8:	6093      	str	r3, [r2, #8]
    19ca:	6891      	ldr	r1, [r2, #8]
    19cc:	2384      	movs	r3, #132	; 0x84
    19ce:	061b      	lsls	r3, r3, #24
    19d0:	430b      	orrs	r3, r1
    19d2:	6093      	str	r3, [r2, #8]
    19d4:	1c11      	adds	r1, r2, #0
    19d6:	690b      	ldr	r3, [r1, #16]
    19d8:	4a1b      	ldr	r2, [pc, #108]	; (1a48 <analogin_read+0xd0>)
    19da:	9302      	str	r3, [sp, #8]
    19dc:	9b02      	ldr	r3, [sp, #8]
    19de:	2b00      	cmp	r3, #0
    19e0:	daf9      	bge.n	19d6 <analogin_read+0x5e>
    19e2:	6893      	ldr	r3, [r2, #8]
    19e4:	005b      	lsls	r3, r3, #1
    19e6:	085b      	lsrs	r3, r3, #1
    19e8:	6093      	str	r3, [r2, #8]
    19ea:	9c02      	ldr	r4, [sp, #8]
    19ec:	6893      	ldr	r3, [r2, #8]
    19ee:	0424      	lsls	r4, r4, #16
    19f0:	0b1b      	lsrs	r3, r3, #12
    19f2:	031b      	lsls	r3, r3, #12
    19f4:	6093      	str	r3, [r2, #8]
    19f6:	6893      	ldr	r3, [r2, #8]
    19f8:	0d24      	lsrs	r4, r4, #20
    19fa:	431d      	orrs	r5, r3
    19fc:	6095      	str	r5, [r2, #8]
    19fe:	6891      	ldr	r1, [r2, #8]
    1a00:	2384      	movs	r3, #132	; 0x84
    1a02:	061b      	lsls	r3, r3, #24
    1a04:	430b      	orrs	r3, r1
    1a06:	6093      	str	r3, [r2, #8]
    1a08:	6913      	ldr	r3, [r2, #16]
    1a0a:	490f      	ldr	r1, [pc, #60]	; (1a48 <analogin_read+0xd0>)
    1a0c:	9303      	str	r3, [sp, #12]
    1a0e:	9b03      	ldr	r3, [sp, #12]
    1a10:	2b00      	cmp	r3, #0
    1a12:	daf9      	bge.n	1a08 <analogin_read+0x90>
    1a14:	688b      	ldr	r3, [r1, #8]
    1a16:	005b      	lsls	r3, r3, #1
    1a18:	085b      	lsrs	r3, r3, #1
    1a1a:	608b      	str	r3, [r1, #8]
    1a1c:	9b03      	ldr	r3, [sp, #12]
    1a1e:	041b      	lsls	r3, r3, #16
    1a20:	0d1b      	lsrs	r3, r3, #20
    1a22:	42a0      	cmp	r0, r4
    1a24:	d802      	bhi.n	1a2c <analogin_read+0xb4>
    1a26:	1c22      	adds	r2, r4, #0
    1a28:	1c04      	adds	r4, r0, #0
    1a2a:	1c10      	adds	r0, r2, #0
    1a2c:	4298      	cmp	r0, r3
    1a2e:	d900      	bls.n	1a32 <analogin_read+0xba>
    1a30:	1c18      	adds	r0, r3, #0
    1a32:	42a0      	cmp	r0, r4
    1a34:	d200      	bcs.n	1a38 <analogin_read+0xc0>
    1a36:	1c20      	adds	r0, r4, #0
    1a38:	f001 ffd4 	bl	39e4 <__aeabi_ui2f>
    1a3c:	4903      	ldr	r1, [pc, #12]	; (1a4c <analogin_read+0xd4>)
    1a3e:	f001 fcbb 	bl	33b8 <__aeabi_fmul>
    1a42:	b005      	add	sp, #20
    1a44:	bd30      	pop	{r4, r5, pc}
    1a46:	46c0      	nop			; (mov r8, r8)
    1a48:	4001c000 	.word	0x4001c000
    1a4c:	39800801 	.word	0x39800801

00001a50 <pwmout_init>:
    1a50:	b5f0      	push	{r4, r5, r6, r7, lr}
    1a52:	465f      	mov	r7, r11
    1a54:	4644      	mov	r4, r8
    1a56:	4656      	mov	r6, r10
    1a58:	464d      	mov	r5, r9
    1a5a:	b4f0      	push	{r4, r5, r6, r7}
    1a5c:	4c75      	ldr	r4, [pc, #468]	; (1c34 <pwmout_init+0x1e4>)
    1a5e:	b085      	sub	sp, #20
    1a60:	9103      	str	r1, [sp, #12]
    1a62:	7821      	ldrb	r1, [r4, #0]
    1a64:	4683      	mov	r11, r0
    1a66:	2300      	movs	r3, #0
    1a68:	2001      	movs	r0, #1
    1a6a:	1c0a      	adds	r2, r1, #0
    1a6c:	411a      	asrs	r2, r3
    1a6e:	2501      	movs	r5, #1
    1a70:	4210      	tst	r0, r2
    1a72:	d100      	bne.n	1a76 <pwmout_init+0x26>
    1a74:	e0c4      	b.n	1c00 <pwmout_init+0x1b0>
    1a76:	3301      	adds	r3, #1
    1a78:	2b04      	cmp	r3, #4
    1a7a:	d1f6      	bne.n	1a6a <pwmout_init+0x1a>
    1a7c:	486e      	ldr	r0, [pc, #440]	; (1c38 <pwmout_init+0x1e8>)
    1a7e:	2501      	movs	r5, #1
    1a80:	2702      	movs	r7, #2
    1a82:	f000 f94b 	bl	1d1c <error>
    1a86:	426d      	negs	r5, r5
    1a88:	2600      	movs	r6, #0
    1a8a:	427f      	negs	r7, r7
    1a8c:	7821      	ldrb	r1, [r4, #0]
    1a8e:	9601      	str	r6, [sp, #4]
    1a90:	9600      	str	r6, [sp, #0]
    1a92:	46aa      	mov	r10, r5
    1a94:	9702      	str	r7, [sp, #8]
    1a96:	46a9      	mov	r9, r5
    1a98:	46b8      	mov	r8, r7
    1a9a:	1c2b      	adds	r3, r5, #0
    1a9c:	2200      	movs	r2, #0
    1a9e:	1c2e      	adds	r6, r5, #0
    1aa0:	4311      	orrs	r1, r2
    1aa2:	4a66      	ldr	r2, [pc, #408]	; (1c3c <pwmout_init+0x1ec>)
    1aa4:	4658      	mov	r0, r11
    1aa6:	c00c      	stmia	r0!, {r2, r3}
    1aa8:	4b65      	ldr	r3, [pc, #404]	; (1c40 <pwmout_init+0x1f0>)
    1aaa:	7021      	strb	r1, [r4, #0]
    1aac:	2180      	movs	r1, #128	; 0x80
    1aae:	5858      	ldr	r0, [r3, r1]
    1ab0:	2280      	movs	r2, #128	; 0x80
    1ab2:	0052      	lsls	r2, r2, #1
    1ab4:	4310      	orrs	r0, r2
    1ab6:	5058      	str	r0, [r3, r1]
    1ab8:	6859      	ldr	r1, [r3, #4]
    1aba:	430a      	orrs	r2, r1
    1abc:	605a      	str	r2, [r3, #4]
    1abe:	2e01      	cmp	r6, #1
    1ac0:	d100      	bne.n	1ac4 <pwmout_init+0x74>
    1ac2:	e092      	b.n	1bea <pwmout_init+0x19a>
    1ac4:	dc00      	bgt.n	1ac8 <pwmout_init+0x78>
    1ac6:	e081      	b.n	1bcc <pwmout_init+0x17c>
    1ac8:	2e02      	cmp	r6, #2
    1aca:	d100      	bne.n	1ace <pwmout_init+0x7e>
    1acc:	e072      	b.n	1bb4 <pwmout_init+0x164>
    1ace:	2e03      	cmp	r6, #3
    1ad0:	d10a      	bne.n	1ae8 <pwmout_init+0x98>
    1ad2:	4b5c      	ldr	r3, [pc, #368]	; (1c44 <pwmout_init+0x1f4>)
    1ad4:	4a5c      	ldr	r2, [pc, #368]	; (1c48 <pwmout_init+0x1f8>)
    1ad6:	6a19      	ldr	r1, [r3, #32]
    1ad8:	400a      	ands	r2, r1
    1ada:	621a      	str	r2, [r3, #32]
    1adc:	9803      	ldr	r0, [sp, #12]
    1ade:	6a19      	ldr	r1, [r3, #32]
    1ae0:	1202      	asrs	r2, r0, #8
    1ae2:	0412      	lsls	r2, r2, #16
    1ae4:	430a      	orrs	r2, r1
    1ae6:	621a      	str	r2, [r3, #32]
    1ae8:	4c54      	ldr	r4, [pc, #336]	; (1c3c <pwmout_init+0x1ec>)
    1aea:	4a58      	ldr	r2, [pc, #352]	; (1c4c <pwmout_init+0x1fc>)
    1aec:	6823      	ldr	r3, [r4, #0]
    1aee:	00f6      	lsls	r6, r6, #3
    1af0:	4313      	orrs	r3, r2
    1af2:	6023      	str	r3, [r4, #0]
    1af4:	6862      	ldr	r2, [r4, #4]
    1af6:	230c      	movs	r3, #12
    1af8:	4313      	orrs	r3, r2
    1afa:	6063      	str	r3, [r4, #4]
    1afc:	6862      	ldr	r2, [r4, #4]
    1afe:	4b54      	ldr	r3, [pc, #336]	; (1c50 <pwmout_init+0x200>)
    1b00:	1936      	adds	r6, r6, r4
    1b02:	4013      	ands	r3, r2
    1b04:	6063      	str	r3, [r4, #4]
    1b06:	6861      	ldr	r1, [r4, #4]
    1b08:	4b52      	ldr	r3, [pc, #328]	; (1c54 <pwmout_init+0x204>)
    1b0a:	468b      	mov	r11, r1
    1b0c:	6818      	ldr	r0, [r3, #0]
    1b0e:	4952      	ldr	r1, [pc, #328]	; (1c58 <pwmout_init+0x208>)
    1b10:	f001 f82a 	bl	2b68 <__aeabi_uidiv>
    1b14:	237f      	movs	r3, #127	; 0x7f
    1b16:	3801      	subs	r0, #1
    1b18:	4003      	ands	r3, r0
    1b1a:	465a      	mov	r2, r11
    1b1c:	015b      	lsls	r3, r3, #5
    1b1e:	4313      	orrs	r3, r2
    1b20:	6063      	str	r3, [r4, #4]
    1b22:	9800      	ldr	r0, [sp, #0]
    1b24:	23a0      	movs	r3, #160	; 0xa0
    1b26:	00db      	lsls	r3, r3, #3
    1b28:	50f0      	str	r0, [r6, r3]
    1b2a:	9901      	ldr	r1, [sp, #4]
    1b2c:	4b4b      	ldr	r3, [pc, #300]	; (1c5c <pwmout_init+0x20c>)
    1b2e:	20c1      	movs	r0, #193	; 0xc1
    1b30:	50f1      	str	r1, [r6, r3]
    1b32:	4643      	mov	r3, r8
    1b34:	9e02      	ldr	r6, [sp, #8]
    1b36:	00da      	lsls	r2, r3, #3
    1b38:	1912      	adds	r2, r2, r4
    1b3a:	0080      	lsls	r0, r0, #2
    1b3c:	23c0      	movs	r3, #192	; 0xc0
    1b3e:	2101      	movs	r1, #1
    1b40:	5016      	str	r6, [r2, r0]
    1b42:	009b      	lsls	r3, r3, #2
    1b44:	4249      	negs	r1, r1
    1b46:	464e      	mov	r6, r9
    1b48:	50d1      	str	r1, [r2, r3]
    1b4a:	00f2      	lsls	r2, r6, #3
    1b4c:	1912      	adds	r2, r2, r4
    1b4e:	4656      	mov	r6, r10
    1b50:	5016      	str	r6, [r2, r0]
    1b52:	50d1      	str	r1, [r2, r3]
    1b54:	6863      	ldr	r3, [r4, #4]
    1b56:	2204      	movs	r2, #4
    1b58:	4393      	bics	r3, r2
    1b5a:	00bf      	lsls	r7, r7, #2
    1b5c:	6063      	str	r3, [r4, #4]
    1b5e:	193f      	adds	r7, r7, r4
    1b60:	2480      	movs	r4, #128	; 0x80
    1b62:	00a4      	lsls	r4, r4, #2
    1b64:	4935      	ldr	r1, [pc, #212]	; (1c3c <pwmout_init+0x1ec>)
    1b66:	4b3e      	ldr	r3, [pc, #248]	; (1c60 <pwmout_init+0x210>)
    1b68:	5938      	ldr	r0, [r7, r4]
    1b6a:	00ad      	lsls	r5, r5, #2
    1b6c:	186d      	adds	r5, r5, r1
    1b6e:	4680      	mov	r8, r0
    1b70:	5928      	ldr	r0, [r5, r4]
    1b72:	513b      	str	r3, [r7, r4]
    1b74:	f001 ff36 	bl	39e4 <__aeabi_ui2f>
    1b78:	1c06      	adds	r6, r0, #0
    1b7a:	4640      	mov	r0, r8
    1b7c:	f001 ff32 	bl	39e4 <__aeabi_ui2f>
    1b80:	1c01      	adds	r1, r0, #0
    1b82:	1c30      	adds	r0, r6, #0
    1b84:	f001 fa34 	bl	2ff0 <__aeabi_fdiv>
    1b88:	4936      	ldr	r1, [pc, #216]	; (1c64 <pwmout_init+0x214>)
    1b8a:	f001 fc15 	bl	33b8 <__aeabi_fmul>
    1b8e:	f001 f8b3 	bl	2cf8 <__aeabi_f2uiz>
    1b92:	5128      	str	r0, [r5, r4]
    1b94:	5938      	ldr	r0, [r7, r4]
    1b96:	f001 ff25 	bl	39e4 <__aeabi_ui2f>
    1b9a:	2100      	movs	r1, #0
    1b9c:	f001 fc0c 	bl	33b8 <__aeabi_fmul>
    1ba0:	f001 f8aa 	bl	2cf8 <__aeabi_f2uiz>
    1ba4:	5128      	str	r0, [r5, r4]
    1ba6:	b005      	add	sp, #20
    1ba8:	bc3c      	pop	{r2, r3, r4, r5}
    1baa:	4690      	mov	r8, r2
    1bac:	4699      	mov	r9, r3
    1bae:	46a2      	mov	r10, r4
    1bb0:	46ab      	mov	r11, r5
    1bb2:	bdf0      	pop	{r4, r5, r6, r7, pc}
    1bb4:	4b23      	ldr	r3, [pc, #140]	; (1c44 <pwmout_init+0x1f4>)
    1bb6:	4a2c      	ldr	r2, [pc, #176]	; (1c68 <pwmout_init+0x218>)
    1bb8:	6a19      	ldr	r1, [r3, #32]
    1bba:	400a      	ands	r2, r1
    1bbc:	621a      	str	r2, [r3, #32]
    1bbe:	9803      	ldr	r0, [sp, #12]
    1bc0:	6a19      	ldr	r1, [r3, #32]
    1bc2:	1202      	asrs	r2, r0, #8
    1bc4:	0212      	lsls	r2, r2, #8
    1bc6:	430a      	orrs	r2, r1
    1bc8:	621a      	str	r2, [r3, #32]
    1bca:	e78d      	b.n	1ae8 <pwmout_init+0x98>
    1bcc:	2e00      	cmp	r6, #0
    1bce:	d000      	beq.n	1bd2 <pwmout_init+0x182>
    1bd0:	e78a      	b.n	1ae8 <pwmout_init+0x98>
    1bd2:	4b1c      	ldr	r3, [pc, #112]	; (1c44 <pwmout_init+0x1f4>)
    1bd4:	69da      	ldr	r2, [r3, #28]
    1bd6:	0212      	lsls	r2, r2, #8
    1bd8:	0a12      	lsrs	r2, r2, #8
    1bda:	61da      	str	r2, [r3, #28]
    1bdc:	9803      	ldr	r0, [sp, #12]
    1bde:	69d9      	ldr	r1, [r3, #28]
    1be0:	1202      	asrs	r2, r0, #8
    1be2:	0612      	lsls	r2, r2, #24
    1be4:	430a      	orrs	r2, r1
    1be6:	61da      	str	r2, [r3, #28]
    1be8:	e77e      	b.n	1ae8 <pwmout_init+0x98>
    1bea:	4b16      	ldr	r3, [pc, #88]	; (1c44 <pwmout_init+0x1f4>)
    1bec:	21ff      	movs	r1, #255	; 0xff
    1bee:	6a1a      	ldr	r2, [r3, #32]
    1bf0:	438a      	bics	r2, r1
    1bf2:	621a      	str	r2, [r3, #32]
    1bf4:	9803      	ldr	r0, [sp, #12]
    1bf6:	6a1a      	ldr	r2, [r3, #32]
    1bf8:	1201      	asrs	r1, r0, #8
    1bfa:	430a      	orrs	r2, r1
    1bfc:	621a      	str	r2, [r3, #32]
    1bfe:	e773      	b.n	1ae8 <pwmout_init+0x98>
    1c00:	0058      	lsls	r0, r3, #1
    1c02:	1c2e      	adds	r6, r5, #0
    1c04:	4680      	mov	r8, r0
    1c06:	4086      	lsls	r6, r0
    1c08:	2001      	movs	r0, #1
    1c0a:	4681      	mov	r9, r0
    1c0c:	44c1      	add	r9, r8
    1c0e:	9600      	str	r6, [sp, #0]
    1c10:	464e      	mov	r6, r9
    1c12:	1c2a      	adds	r2, r5, #0
    1c14:	2080      	movs	r0, #128	; 0x80
    1c16:	40b5      	lsls	r5, r6
    1c18:	0140      	lsls	r0, r0, #5
    1c1a:	9501      	str	r5, [sp, #4]
    1c1c:	4645      	mov	r5, r8
    1c1e:	4305      	orrs	r5, r0
    1c20:	4306      	orrs	r6, r0
    1c22:	409a      	lsls	r2, r3
    1c24:	9502      	str	r5, [sp, #8]
    1c26:	46b2      	mov	r10, r6
    1c28:	b2d2      	uxtb	r2, r2
    1c2a:	4647      	mov	r7, r8
    1c2c:	464d      	mov	r5, r9
    1c2e:	1c1e      	adds	r6, r3, #0
    1c30:	e736      	b.n	1aa0 <pwmout_init+0x50>
    1c32:	46c0      	nop			; (mov r8, r8)
    1c34:	100002d4 	.word	0x100002d4
    1c38:	000078bc 	.word	0x000078bc
    1c3c:	50004000 	.word	0x50004000
    1c40:	40048000 	.word	0x40048000
    1c44:	4000c000 	.word	0x4000c000
    1c48:	ff00ffff 	.word	0xff00ffff
    1c4c:	00060001 	.word	0x00060001
    1c50:	fffff01f 	.word	0xfffff01f
    1c54:	100000c8 	.word	0x100000c8
    1c58:	000f4240 	.word	0x000f4240
    1c5c:	00000504 	.word	0x00000504
    1c60:	00004e20 	.word	0x00004e20
    1c64:	469c4000 	.word	0x469c4000
    1c68:	ffff00ff 	.word	0xffff00ff

00001c6c <pwmout_write>:
    1c6c:	b570      	push	{r4, r5, r6, lr}
    1c6e:	1c06      	adds	r6, r0, #0
    1c70:	1c0c      	adds	r4, r1, #0
    1c72:	1c08      	adds	r0, r1, #0
    1c74:	2100      	movs	r1, #0
    1c76:	f001 f817 	bl	2ca8 <__aeabi_fcmplt>
    1c7a:	2800      	cmp	r0, #0
    1c7c:	d11a      	bne.n	1cb4 <pwmout_write+0x48>
    1c7e:	21fe      	movs	r1, #254	; 0xfe
    1c80:	1c20      	adds	r0, r4, #0
    1c82:	0589      	lsls	r1, r1, #22
    1c84:	f001 f824 	bl	2cd0 <__aeabi_fcmpgt>
    1c88:	2800      	cmp	r0, #0
    1c8a:	d001      	beq.n	1c90 <pwmout_write+0x24>
    1c8c:	24fe      	movs	r4, #254	; 0xfe
    1c8e:	05a4      	lsls	r4, r4, #22
    1c90:	6835      	ldr	r5, [r6, #0]
    1c92:	6876      	ldr	r6, [r6, #4]
    1c94:	0076      	lsls	r6, r6, #1
    1c96:	1c33      	adds	r3, r6, #0
    1c98:	3380      	adds	r3, #128	; 0x80
    1c9a:	009b      	lsls	r3, r3, #2
    1c9c:	5958      	ldr	r0, [r3, r5]
    1c9e:	f001 fea1 	bl	39e4 <__aeabi_ui2f>
    1ca2:	1c21      	adds	r1, r4, #0
    1ca4:	f001 fb88 	bl	33b8 <__aeabi_fmul>
    1ca8:	f001 f826 	bl	2cf8 <__aeabi_f2uiz>
    1cac:	3681      	adds	r6, #129	; 0x81
    1cae:	00b6      	lsls	r6, r6, #2
    1cb0:	5170      	str	r0, [r6, r5]
    1cb2:	bd70      	pop	{r4, r5, r6, pc}
    1cb4:	2400      	movs	r4, #0
    1cb6:	e7eb      	b.n	1c90 <pwmout_write+0x24>

00001cb8 <pwmout_period_ms>:
    1cb8:	b5f0      	push	{r4, r5, r6, r7, lr}
    1cba:	c824      	ldmia	r0!, {r2, r5}
    1cbc:	26fa      	movs	r6, #250	; 0xfa
    1cbe:	00b6      	lsls	r6, r6, #2
    1cc0:	434e      	muls	r6, r1
    1cc2:	00eb      	lsls	r3, r5, #3
    1cc4:	2480      	movs	r4, #128	; 0x80
    1cc6:	00ed      	lsls	r5, r5, #3
    1cc8:	18d3      	adds	r3, r2, r3
    1cca:	00a4      	lsls	r4, r4, #2
    1ccc:	3504      	adds	r5, #4
    1cce:	5919      	ldr	r1, [r3, r4]
    1cd0:	1955      	adds	r5, r2, r5
    1cd2:	4647      	mov	r7, r8
    1cd4:	b480      	push	{r7}
    1cd6:	5928      	ldr	r0, [r5, r4]
    1cd8:	511e      	str	r6, [r3, r4]
    1cda:	4688      	mov	r8, r1
    1cdc:	f001 fe82 	bl	39e4 <__aeabi_ui2f>
    1ce0:	1c07      	adds	r7, r0, #0
    1ce2:	4640      	mov	r0, r8
    1ce4:	f001 fe7e 	bl	39e4 <__aeabi_ui2f>
    1ce8:	1c01      	adds	r1, r0, #0
    1cea:	1c38      	adds	r0, r7, #0
    1cec:	f001 f980 	bl	2ff0 <__aeabi_fdiv>
    1cf0:	1c07      	adds	r7, r0, #0
    1cf2:	1c30      	adds	r0, r6, #0
    1cf4:	f001 fe1a 	bl	392c <__aeabi_i2f>
    1cf8:	1c01      	adds	r1, r0, #0
    1cfa:	1c38      	adds	r0, r7, #0
    1cfc:	f001 fb5c 	bl	33b8 <__aeabi_fmul>
    1d00:	f000 fffa 	bl	2cf8 <__aeabi_f2uiz>
    1d04:	5128      	str	r0, [r5, r4]
    1d06:	bc04      	pop	{r2}
    1d08:	4690      	mov	r8, r2
    1d0a:	bdf0      	pop	{r4, r5, r6, r7, pc}

00001d0c <pwmout_pulsewidth_us>:
    1d0c:	6842      	ldr	r2, [r0, #4]
    1d0e:	6803      	ldr	r3, [r0, #0]
    1d10:	2081      	movs	r0, #129	; 0x81
    1d12:	0080      	lsls	r0, r0, #2
    1d14:	00d2      	lsls	r2, r2, #3
    1d16:	1812      	adds	r2, r2, r0
    1d18:	50d1      	str	r1, [r2, r3]
    1d1a:	4770      	bx	lr

00001d1c <error>:
    1d1c:	b40f      	push	{r0, r1, r2, r3}
    1d1e:	2001      	movs	r0, #1
    1d20:	b508      	push	{r3, lr}
    1d22:	f003 fd01 	bl	5728 <exit>
    1d26:	46c0      	nop			; (mov r8, r8)

00001d28 <gpio_init_in_ex>:
    1d28:	b570      	push	{r4, r5, r6, lr}
    1d2a:	1c0d      	adds	r5, r1, #0
    1d2c:	1c04      	adds	r4, r0, #0
    1d2e:	1c16      	adds	r6, r2, #0
    1d30:	f000 fb2a 	bl	2388 <gpio_init>
    1d34:	3501      	adds	r5, #1
    1d36:	d007      	beq.n	1d48 <gpio_init_in_ex+0x20>
    1d38:	1c20      	adds	r0, r4, #0
    1d3a:	2100      	movs	r1, #0
    1d3c:	f000 fb44 	bl	23c8 <gpio_dir>
    1d40:	1c20      	adds	r0, r4, #0
    1d42:	1c31      	adds	r1, r6, #0
    1d44:	f000 fb3a 	bl	23bc <gpio_mode>
    1d48:	bd70      	pop	{r4, r5, r6, pc}
    1d4a:	46c0      	nop			; (mov r8, r8)

00001d4c <gpio_init_out>:
    1d4c:	b538      	push	{r3, r4, r5, lr}
    1d4e:	1c0d      	adds	r5, r1, #0
    1d50:	1c04      	adds	r4, r0, #0
    1d52:	f000 fb19 	bl	2388 <gpio_init>
    1d56:	3501      	adds	r5, #1
    1d58:	d00a      	beq.n	1d70 <gpio_init_out+0x24>
    1d5a:	6923      	ldr	r3, [r4, #16]
    1d5c:	6862      	ldr	r2, [r4, #4]
    1d5e:	1c20      	adds	r0, r4, #0
    1d60:	2101      	movs	r1, #1
    1d62:	601a      	str	r2, [r3, #0]
    1d64:	f000 fb30 	bl	23c8 <gpio_dir>
    1d68:	1c20      	adds	r0, r4, #0
    1d6a:	2100      	movs	r1, #0
    1d6c:	f000 fb26 	bl	23bc <gpio_mode>
    1d70:	bd38      	pop	{r3, r4, r5, pc}
    1d72:	46c0      	nop			; (mov r8, r8)

00001d74 <pinmap_peripheral>:
    1d74:	1c02      	adds	r2, r0, #0
    1d76:	b508      	push	{r3, lr}
    1d78:	1c53      	adds	r3, r2, #1
    1d7a:	d103      	bne.n	1d84 <pinmap_peripheral+0x10>
    1d7c:	e00b      	b.n	1d96 <pinmap_peripheral+0x22>
    1d7e:	429a      	cmp	r2, r3
    1d80:	d00a      	beq.n	1d98 <pinmap_peripheral+0x24>
    1d82:	310c      	adds	r1, #12
    1d84:	2000      	movs	r0, #0
    1d86:	5e0b      	ldrsh	r3, [r1, r0]
    1d88:	1c58      	adds	r0, r3, #1
    1d8a:	d1f8      	bne.n	1d7e <pinmap_peripheral+0xa>
    1d8c:	4804      	ldr	r0, [pc, #16]	; (1da0 <pinmap_peripheral+0x2c>)
    1d8e:	f7ff ffc5 	bl	1d1c <error>
    1d92:	2001      	movs	r0, #1
    1d94:	4240      	negs	r0, r0
    1d96:	bd08      	pop	{r3, pc}
    1d98:	6848      	ldr	r0, [r1, #4]
    1d9a:	1c43      	adds	r3, r0, #1
    1d9c:	d1fb      	bne.n	1d96 <pinmap_peripheral+0x22>
    1d9e:	e7f5      	b.n	1d8c <pinmap_peripheral+0x18>
    1da0:	000078f8 	.word	0x000078f8

00001da4 <wait_us>:
    1da4:	b538      	push	{r3, r4, r5, lr}
    1da6:	1c05      	adds	r5, r0, #0
    1da8:	f000 fd04 	bl	27b4 <us_ticker_read>
    1dac:	1c04      	adds	r4, r0, #0
    1dae:	f000 fd01 	bl	27b4 <us_ticker_read>
    1db2:	1b03      	subs	r3, r0, r4
    1db4:	42ab      	cmp	r3, r5
    1db6:	d3fa      	bcc.n	1dae <wait_us+0xa>
    1db8:	bd38      	pop	{r3, r4, r5, pc}
    1dba:	46c0      	nop			; (mov r8, r8)

00001dbc <wait>:
    1dbc:	b508      	push	{r3, lr}
    1dbe:	4904      	ldr	r1, [pc, #16]	; (1dd0 <wait+0x14>)
    1dc0:	f001 fafa 	bl	33b8 <__aeabi_fmul>
    1dc4:	f001 fd92 	bl	38ec <__aeabi_f2iz>
    1dc8:	f7ff ffec 	bl	1da4 <wait_us>
    1dcc:	bd08      	pop	{r3, pc}
    1dce:	46c0      	nop			; (mov r8, r8)
    1dd0:	49742400 	.word	0x49742400

00001dd4 <wait_ms>:
    1dd4:	b508      	push	{r3, lr}
    1dd6:	23fa      	movs	r3, #250	; 0xfa
    1dd8:	009b      	lsls	r3, r3, #2
    1dda:	4358      	muls	r0, r3
    1ddc:	f7ff ffe2 	bl	1da4 <wait_us>
    1de0:	bd08      	pop	{r3, pc}
    1de2:	46c0      	nop			; (mov r8, r8)

00001de4 <mbed::FileHandle::flen()>:
    1de4:	6803      	ldr	r3, [r0, #0]
    1de6:	b570      	push	{r4, r5, r6, lr}
    1de8:	691b      	ldr	r3, [r3, #16]
    1dea:	2100      	movs	r1, #0
    1dec:	2201      	movs	r2, #1
    1dee:	1c04      	adds	r4, r0, #0
    1df0:	4798      	blx	r3
    1df2:	1c05      	adds	r5, r0, #0
    1df4:	1c43      	adds	r3, r0, #1
    1df6:	d00d      	beq.n	1e14 <mbed::FileHandle::flen()+0x30>
    1df8:	6823      	ldr	r3, [r4, #0]
    1dfa:	2100      	movs	r1, #0
    1dfc:	691b      	ldr	r3, [r3, #16]
    1dfe:	2202      	movs	r2, #2
    1e00:	1c20      	adds	r0, r4, #0
    1e02:	4798      	blx	r3
    1e04:	6823      	ldr	r3, [r4, #0]
    1e06:	1c06      	adds	r6, r0, #0
    1e08:	691b      	ldr	r3, [r3, #16]
    1e0a:	1c20      	adds	r0, r4, #0
    1e0c:	1c29      	adds	r1, r5, #0
    1e0e:	2200      	movs	r2, #0
    1e10:	4798      	blx	r3
    1e12:	1c30      	adds	r0, r6, #0
    1e14:	bd70      	pop	{r4, r5, r6, pc}
    1e16:	46c0      	nop			; (mov r8, r8)

00001e18 <mbed::FileHandle::~FileHandle()>:
    1e18:	4b09      	ldr	r3, [pc, #36]	; (1e40 <mbed::FileHandle::~FileHandle()+0x28>)
    1e1a:	b510      	push	{r4, lr}
    1e1c:	3308      	adds	r3, #8
    1e1e:	6003      	str	r3, [r0, #0]
    1e20:	4b08      	ldr	r3, [pc, #32]	; (1e44 <mbed::FileHandle::~FileHandle()+0x2c>)
    1e22:	2100      	movs	r1, #0
    1e24:	1c5a      	adds	r2, r3, #1
    1e26:	32ff      	adds	r2, #255	; 0xff
    1e28:	e002      	b.n	1e30 <mbed::FileHandle::~FileHandle()+0x18>
    1e2a:	3304      	adds	r3, #4
    1e2c:	4293      	cmp	r3, r2
    1e2e:	d006      	beq.n	1e3e <mbed::FileHandle::~FileHandle()+0x26>
    1e30:	681c      	ldr	r4, [r3, #0]
    1e32:	4284      	cmp	r4, r0
    1e34:	d1f9      	bne.n	1e2a <mbed::FileHandle::~FileHandle()+0x12>
    1e36:	6019      	str	r1, [r3, #0]
    1e38:	3304      	adds	r3, #4
    1e3a:	4293      	cmp	r3, r2
    1e3c:	d1f8      	bne.n	1e30 <mbed::FileHandle::~FileHandle()+0x18>
    1e3e:	bd10      	pop	{r4, pc}
    1e40:	00007950 	.word	0x00007950
    1e44:	100002d8 	.word	0x100002d8

00001e48 <mbed::FileHandle::~FileHandle()>:
    1e48:	4b0c      	ldr	r3, [pc, #48]	; (1e7c <mbed::FileHandle::~FileHandle()+0x34>)
    1e4a:	b510      	push	{r4, lr}
    1e4c:	3308      	adds	r3, #8
    1e4e:	6003      	str	r3, [r0, #0]
    1e50:	4b0b      	ldr	r3, [pc, #44]	; (1e80 <mbed::FileHandle::~FileHandle()+0x38>)
    1e52:	1c04      	adds	r4, r0, #0
    1e54:	1c5a      	adds	r2, r3, #1
    1e56:	32ff      	adds	r2, #255	; 0xff
    1e58:	2100      	movs	r1, #0
    1e5a:	e002      	b.n	1e62 <mbed::FileHandle::~FileHandle()+0x1a>
    1e5c:	3304      	adds	r3, #4
    1e5e:	4293      	cmp	r3, r2
    1e60:	d006      	beq.n	1e70 <mbed::FileHandle::~FileHandle()+0x28>
    1e62:	6818      	ldr	r0, [r3, #0]
    1e64:	4284      	cmp	r4, r0
    1e66:	d1f9      	bne.n	1e5c <mbed::FileHandle::~FileHandle()+0x14>
    1e68:	6019      	str	r1, [r3, #0]
    1e6a:	3304      	adds	r3, #4
    1e6c:	4293      	cmp	r3, r2
    1e6e:	d1f8      	bne.n	1e62 <mbed::FileHandle::~FileHandle()+0x1a>
    1e70:	1c20      	adds	r0, r4, #0
    1e72:	f000 fe6b 	bl	2b4c <operator delete(void*)>
    1e76:	1c20      	adds	r0, r4, #0
    1e78:	bd10      	pop	{r4, pc}
    1e7a:	46c0      	nop			; (mov r8, r8)
    1e7c:	00007950 	.word	0x00007950
    1e80:	100002d8 	.word	0x100002d8

00001e84 <init_serial() [clone .part.0]>:
    1e84:	b508      	push	{r3, lr}
    1e86:	4803      	ldr	r0, [pc, #12]	; (1e94 <init_serial() [clone .part.0]+0x10>)
    1e88:	4903      	ldr	r1, [pc, #12]	; (1e98 <init_serial() [clone .part.0]+0x14>)
    1e8a:	4a04      	ldr	r2, [pc, #16]	; (1e9c <init_serial() [clone .part.0]+0x18>)
    1e8c:	f000 fb06 	bl	249c <serial_init>
    1e90:	bd08      	pop	{r3, pc}
    1e92:	46c0      	nop			; (mov r8, r8)
    1e94:	10000414 	.word	0x10000414
    1e98:	0000073c 	.word	0x0000073c
    1e9c:	00001278 	.word	0x00001278

00001ea0 <_open>:
    1ea0:	b5f0      	push	{r4, r5, r6, r7, lr}
    1ea2:	4647      	mov	r7, r8
    1ea4:	b480      	push	{r7}
    1ea6:	1c0e      	adds	r6, r1, #0
    1ea8:	b082      	sub	sp, #8
    1eaa:	4934      	ldr	r1, [pc, #208]	; (1f7c <_open+0xdc>)
    1eac:	1c05      	adds	r5, r0, #0
    1eae:	f004 f9db 	bl	6268 <strcmp>
    1eb2:	1e04      	subs	r4, r0, #0
    1eb4:	d108      	bne.n	1ec8 <_open+0x28>
    1eb6:	4b32      	ldr	r3, [pc, #200]	; (1f80 <_open+0xe0>)
    1eb8:	681b      	ldr	r3, [r3, #0]
    1eba:	2b00      	cmp	r3, #0
    1ebc:	d00f      	beq.n	1ede <_open+0x3e>
    1ebe:	1c20      	adds	r0, r4, #0
    1ec0:	b002      	add	sp, #8
    1ec2:	bc04      	pop	{r2}
    1ec4:	4690      	mov	r8, r2
    1ec6:	bdf0      	pop	{r4, r5, r6, r7, pc}
    1ec8:	1c28      	adds	r0, r5, #0
    1eca:	492e      	ldr	r1, [pc, #184]	; (1f84 <_open+0xe4>)
    1ecc:	f004 f9cc 	bl	6268 <strcmp>
    1ed0:	2800      	cmp	r0, #0
    1ed2:	d107      	bne.n	1ee4 <_open+0x44>
    1ed4:	4b2a      	ldr	r3, [pc, #168]	; (1f80 <_open+0xe0>)
    1ed6:	2401      	movs	r4, #1
    1ed8:	681b      	ldr	r3, [r3, #0]
    1eda:	2b00      	cmp	r3, #0
    1edc:	d1ef      	bne.n	1ebe <_open+0x1e>
    1ede:	f7ff ffd1 	bl	1e84 <init_serial() [clone .part.0]>
    1ee2:	e7ec      	b.n	1ebe <_open+0x1e>
    1ee4:	1c28      	adds	r0, r5, #0
    1ee6:	4928      	ldr	r1, [pc, #160]	; (1f88 <_open+0xe8>)
    1ee8:	f004 f9be 	bl	6268 <strcmp>
    1eec:	2800      	cmp	r0, #0
    1eee:	d030      	beq.n	1f52 <_open+0xb2>
    1ef0:	4f26      	ldr	r7, [pc, #152]	; (1f8c <_open+0xec>)
    1ef2:	2400      	movs	r4, #0
    1ef4:	1c3b      	adds	r3, r7, #0
    1ef6:	e003      	b.n	1f00 <_open+0x60>
    1ef8:	3401      	adds	r4, #1
    1efa:	3304      	adds	r3, #4
    1efc:	2c40      	cmp	r4, #64	; 0x40
    1efe:	d032      	beq.n	1f66 <_open+0xc6>
    1f00:	681a      	ldr	r2, [r3, #0]
    1f02:	2a00      	cmp	r2, #0
    1f04:	d1f8      	bne.n	1ef8 <_open+0x58>
    1f06:	782b      	ldrb	r3, [r5, #0]
    1f08:	2b3a      	cmp	r3, #58	; 0x3a
    1f0a:	d02f      	beq.n	1f6c <_open+0xcc>
    1f0c:	4668      	mov	r0, sp
    1f0e:	1c29      	adds	r1, r5, #0
    1f10:	f000 fd2a 	bl	2968 <mbed::FilePath::FilePath(char const*)>
    1f14:	4668      	mov	r0, sp
    1f16:	f000 fd7f 	bl	2a18 <mbed::FilePath::exists()>
    1f1a:	2800      	cmp	r0, #0
    1f1c:	d023      	beq.n	1f66 <_open+0xc6>
    1f1e:	4668      	mov	r0, sp
    1f20:	f000 fd5e 	bl	29e0 <mbed::FilePath::isFile()>
    1f24:	2800      	cmp	r0, #0
    1f26:	d11a      	bne.n	1f5e <_open+0xbe>
    1f28:	4668      	mov	r0, sp
    1f2a:	f000 fd4b 	bl	29c4 <mbed::FilePath::fileSystem()>
    1f2e:	1e05      	subs	r5, r0, #0
    1f30:	d019      	beq.n	1f66 <_open+0xc6>
    1f32:	6803      	ldr	r3, [r0, #0]
    1f34:	4668      	mov	r0, sp
    1f36:	689a      	ldr	r2, [r3, #8]
    1f38:	4690      	mov	r8, r2
    1f3a:	f000 fd41 	bl	29c0 <mbed::FilePath::fileName()>
    1f3e:	1c32      	adds	r2, r6, #0
    1f40:	1c01      	adds	r1, r0, #0
    1f42:	1c28      	adds	r0, r5, #0
    1f44:	47c0      	blx	r8
    1f46:	2800      	cmp	r0, #0
    1f48:	d00d      	beq.n	1f66 <_open+0xc6>
    1f4a:	00a3      	lsls	r3, r4, #2
    1f4c:	50f8      	str	r0, [r7, r3]
    1f4e:	3403      	adds	r4, #3
    1f50:	e7b5      	b.n	1ebe <_open+0x1e>
    1f52:	4b0b      	ldr	r3, [pc, #44]	; (1f80 <_open+0xe0>)
    1f54:	2402      	movs	r4, #2
    1f56:	681b      	ldr	r3, [r3, #0]
    1f58:	2b00      	cmp	r3, #0
    1f5a:	d1b0      	bne.n	1ebe <_open+0x1e>
    1f5c:	e7bf      	b.n	1ede <_open+0x3e>
    1f5e:	4668      	mov	r0, sp
    1f60:	f000 fd4a 	bl	29f8 <mbed::FilePath::file()>
    1f64:	e7ef      	b.n	1f46 <_open+0xa6>
    1f66:	2401      	movs	r4, #1
    1f68:	4264      	negs	r4, r4
    1f6a:	e7a8      	b.n	1ebe <_open+0x1e>
    1f6c:	1c28      	adds	r0, r5, #0
    1f6e:	4908      	ldr	r1, [pc, #32]	; (1f90 <_open+0xf0>)
    1f70:	466a      	mov	r2, sp
    1f72:	f004 f903 	bl	617c <siscanf>
    1f76:	9800      	ldr	r0, [sp, #0]
    1f78:	e7e5      	b.n	1f46 <_open+0xa6>
    1f7a:	46c0      	nop			; (mov r8, r8)
    1f7c:	00007938 	.word	0x00007938
    1f80:	100003dc 	.word	0x100003dc
    1f84:	00007948 	.word	0x00007948
    1f88:	00007940 	.word	0x00007940
    1f8c:	100002d8 	.word	0x100002d8
    1f90:	00007980 	.word	0x00007980

00001f94 <_close>:
    1f94:	b508      	push	{r3, lr}
    1f96:	2300      	movs	r3, #0
    1f98:	2802      	cmp	r0, #2
    1f9a:	dd0a      	ble.n	1fb2 <_close+0x1e>
    1f9c:	3803      	subs	r0, #3
    1f9e:	4a07      	ldr	r2, [pc, #28]	; (1fbc <_close+0x28>)
    1fa0:	0081      	lsls	r1, r0, #2
    1fa2:	5888      	ldr	r0, [r1, r2]
    1fa4:	508b      	str	r3, [r1, r2]
    1fa6:	2800      	cmp	r0, #0
    1fa8:	d005      	beq.n	1fb6 <_close+0x22>
    1faa:	6803      	ldr	r3, [r0, #0]
    1fac:	685b      	ldr	r3, [r3, #4]
    1fae:	4798      	blx	r3
    1fb0:	1c03      	adds	r3, r0, #0
    1fb2:	1c18      	adds	r0, r3, #0
    1fb4:	bd08      	pop	{r3, pc}
    1fb6:	2301      	movs	r3, #1
    1fb8:	425b      	negs	r3, r3
    1fba:	e7fa      	b.n	1fb2 <_close+0x1e>
    1fbc:	100002d8 	.word	0x100002d8

00001fc0 <_write>:
    1fc0:	b5f8      	push	{r3, r4, r5, r6, r7, lr}
    1fc2:	1c0c      	adds	r4, r1, #0
    1fc4:	1c17      	adds	r7, r2, #0
    1fc6:	2802      	cmp	r0, #2
    1fc8:	dc12      	bgt.n	1ff0 <_write+0x30>
    1fca:	4b10      	ldr	r3, [pc, #64]	; (200c <_write+0x4c>)
    1fcc:	681b      	ldr	r3, [r3, #0]
    1fce:	2b00      	cmp	r3, #0
    1fd0:	d101      	bne.n	1fd6 <_write+0x16>
    1fd2:	f7ff ff57 	bl	1e84 <init_serial() [clone .part.0]>
    1fd6:	2f00      	cmp	r7, #0
    1fd8:	d008      	beq.n	1fec <_write+0x2c>
    1fda:	4d0d      	ldr	r5, [pc, #52]	; (2010 <_write+0x50>)
    1fdc:	19e6      	adds	r6, r4, r7
    1fde:	7821      	ldrb	r1, [r4, #0]
    1fe0:	1c28      	adds	r0, r5, #0
    1fe2:	3401      	adds	r4, #1
    1fe4:	f000 fb9c 	bl	2720 <serial_putc>
    1fe8:	42b4      	cmp	r4, r6
    1fea:	d1f8      	bne.n	1fde <_write+0x1e>
    1fec:	1c38      	adds	r0, r7, #0
    1fee:	bdf8      	pop	{r3, r4, r5, r6, r7, pc}
    1ff0:	3803      	subs	r0, #3
    1ff2:	4b08      	ldr	r3, [pc, #32]	; (2014 <_write+0x54>)
    1ff4:	0080      	lsls	r0, r0, #2
    1ff6:	58c0      	ldr	r0, [r0, r3]
    1ff8:	2800      	cmp	r0, #0
    1ffa:	d003      	beq.n	2004 <_write+0x44>
    1ffc:	6803      	ldr	r3, [r0, #0]
    1ffe:	681b      	ldr	r3, [r3, #0]
    2000:	4798      	blx	r3
    2002:	e7f4      	b.n	1fee <_write+0x2e>
    2004:	2001      	movs	r0, #1
    2006:	4240      	negs	r0, r0
    2008:	e7f1      	b.n	1fee <_write+0x2e>
    200a:	46c0      	nop			; (mov r8, r8)
    200c:	100003dc 	.word	0x100003dc
    2010:	10000414 	.word	0x10000414
    2014:	100002d8 	.word	0x100002d8

00002018 <_read>:
    2018:	b510      	push	{r4, lr}
    201a:	1c0c      	adds	r4, r1, #0
    201c:	2802      	cmp	r0, #2
    201e:	dc09      	bgt.n	2034 <_read+0x1c>
    2020:	4b0c      	ldr	r3, [pc, #48]	; (2054 <_read+0x3c>)
    2022:	681b      	ldr	r3, [r3, #0]
    2024:	2b00      	cmp	r3, #0
    2026:	d00f      	beq.n	2048 <_read+0x30>
    2028:	480b      	ldr	r0, [pc, #44]	; (2058 <_read+0x40>)
    202a:	f000 fb71 	bl	2710 <serial_getc>
    202e:	7020      	strb	r0, [r4, #0]
    2030:	2001      	movs	r0, #1
    2032:	bd10      	pop	{r4, pc}
    2034:	3803      	subs	r0, #3
    2036:	4b09      	ldr	r3, [pc, #36]	; (205c <_read+0x44>)
    2038:	0080      	lsls	r0, r0, #2
    203a:	58c0      	ldr	r0, [r0, r3]
    203c:	2800      	cmp	r0, #0
    203e:	d006      	beq.n	204e <_read+0x36>
    2040:	6803      	ldr	r3, [r0, #0]
    2042:	689b      	ldr	r3, [r3, #8]
    2044:	4798      	blx	r3
    2046:	e7f4      	b.n	2032 <_read+0x1a>
    2048:	f7ff ff1c 	bl	1e84 <init_serial() [clone .part.0]>
    204c:	e7ec      	b.n	2028 <_read+0x10>
    204e:	2001      	movs	r0, #1
    2050:	4240      	negs	r0, r0
    2052:	e7ee      	b.n	2032 <_read+0x1a>
    2054:	100003dc 	.word	0x100003dc
    2058:	10000414 	.word	0x10000414
    205c:	100002d8 	.word	0x100002d8

00002060 <_isatty>:
    2060:	b508      	push	{r3, lr}
    2062:	1c03      	adds	r3, r0, #0
    2064:	2001      	movs	r0, #1
    2066:	2b02      	cmp	r3, #2
    2068:	dd08      	ble.n	207c <_isatty+0x1c>
    206a:	3b03      	subs	r3, #3
    206c:	4a05      	ldr	r2, [pc, #20]	; (2084 <_isatty+0x24>)
    206e:	009b      	lsls	r3, r3, #2
    2070:	5898      	ldr	r0, [r3, r2]
    2072:	2800      	cmp	r0, #0
    2074:	d003      	beq.n	207e <_isatty+0x1e>
    2076:	6803      	ldr	r3, [r0, #0]
    2078:	68db      	ldr	r3, [r3, #12]
    207a:	4798      	blx	r3
    207c:	bd08      	pop	{r3, pc}
    207e:	2001      	movs	r0, #1
    2080:	4240      	negs	r0, r0
    2082:	e7fb      	b.n	207c <_isatty+0x1c>
    2084:	100002d8 	.word	0x100002d8

00002088 <_lseek>:
    2088:	b508      	push	{r3, lr}
    208a:	1c03      	adds	r3, r0, #0
    208c:	2000      	movs	r0, #0
    208e:	2b02      	cmp	r3, #2
    2090:	dd08      	ble.n	20a4 <_lseek+0x1c>
    2092:	3b03      	subs	r3, #3
    2094:	4805      	ldr	r0, [pc, #20]	; (20ac <_lseek+0x24>)
    2096:	009b      	lsls	r3, r3, #2
    2098:	5818      	ldr	r0, [r3, r0]
    209a:	2800      	cmp	r0, #0
    209c:	d003      	beq.n	20a6 <_lseek+0x1e>
    209e:	6803      	ldr	r3, [r0, #0]
    20a0:	691b      	ldr	r3, [r3, #16]
    20a2:	4798      	blx	r3
    20a4:	bd08      	pop	{r3, pc}
    20a6:	2001      	movs	r0, #1
    20a8:	4240      	negs	r0, r0
    20aa:	e7fb      	b.n	20a4 <_lseek+0x1c>
    20ac:	100002d8 	.word	0x100002d8

000020b0 <_fstat>:
    20b0:	b508      	push	{r3, lr}
    20b2:	2802      	cmp	r0, #2
    20b4:	d804      	bhi.n	20c0 <_fstat+0x10>
    20b6:	2380      	movs	r3, #128	; 0x80
    20b8:	019b      	lsls	r3, r3, #6
    20ba:	604b      	str	r3, [r1, #4]
    20bc:	2000      	movs	r0, #0
    20be:	bd08      	pop	{r3, pc}
    20c0:	f003 fb2c 	bl	571c <__errno>
    20c4:	2309      	movs	r3, #9
    20c6:	6003      	str	r3, [r0, #0]
    20c8:	2001      	movs	r0, #1
    20ca:	4240      	negs	r0, r0
    20cc:	e7f7      	b.n	20be <_fstat+0xe>
    20ce:	46c0      	nop			; (mov r8, r8)

000020d0 <_sbrk>:
    20d0:	4a07      	ldr	r2, [pc, #28]	; (20f0 <_sbrk+0x20>)
    20d2:	6813      	ldr	r3, [r2, #0]
    20d4:	1818      	adds	r0, r3, r0
    20d6:	f3ef 8108 	mrs	r1, MSP
    20da:	4288      	cmp	r0, r1
    20dc:	d202      	bcs.n	20e4 <_sbrk+0x14>
    20de:	6010      	str	r0, [r2, #0]
    20e0:	1c18      	adds	r0, r3, #0
    20e2:	4770      	bx	lr
    20e4:	4b03      	ldr	r3, [pc, #12]	; (20f4 <_sbrk+0x24>)
    20e6:	220c      	movs	r2, #12
    20e8:	2001      	movs	r0, #1
    20ea:	601a      	str	r2, [r3, #0]
    20ec:	4240      	negs	r0, r0
    20ee:	e7f8      	b.n	20e2 <_sbrk+0x12>
    20f0:	100000cc 	.word	0x100000cc
    20f4:	10000424 	.word	0x10000424

000020f8 <_exit>:
    20f8:	b508      	push	{r3, lr}
    20fa:	2800      	cmp	r0, #0
    20fc:	d100      	bne.n	2100 <_exit+0x8>
    20fe:	e7fe      	b.n	20fe <_exit+0x6>
    2100:	f000 fbc8 	bl	2894 <mbed_die>
    2104:	e7fb      	b.n	20fe <_exit+0x6>
    2106:	46c0      	nop			; (mov r8, r8)

00002108 <mbed::mbed_set_unbuffered_stream(__sFILE*)>:
    2108:	b508      	push	{r3, lr}
    210a:	2100      	movs	r1, #0
    210c:	f003 ff84 	bl	6018 <setbuf>
    2110:	bd08      	pop	{r3, pc}
    2112:	46c0      	nop			; (mov r8, r8)

00002114 <mbed::Serial::_getc()>:
    2114:	b508      	push	{r3, lr}
    2116:	f000 f861 	bl	21dc <mbed::SerialBase::_base_getc()>
    211a:	bd08      	pop	{r3, pc}

0000211c <non-virtual thunk to mbed::Serial::_getc()>:
    211c:	b408      	push	{r3}
    211e:	4b02      	ldr	r3, [pc, #8]	; (2128 <non-virtual thunk to mbed::Serial::_getc()+0xc>)
    2120:	469c      	mov	r12, r3
    2122:	3840      	subs	r0, #64	; 0x40
    2124:	bc08      	pop	{r3}
    2126:	4760      	bx	r12
    2128:	00002115 	.word	0x00002115

0000212c <mbed::Serial::_putc(int)>:
    212c:	b508      	push	{r3, lr}
    212e:	f000 f85b 	bl	21e8 <mbed::SerialBase::_base_putc(int)>
    2132:	bd08      	pop	{r3, pc}

00002134 <non-virtual thunk to mbed::Serial::_putc(int)>:
    2134:	b408      	push	{r3}
    2136:	4b02      	ldr	r3, [pc, #8]	; (2140 <non-virtual thunk to mbed::Serial::_putc(int)+0xc>)
    2138:	469c      	mov	r12, r3
    213a:	3840      	subs	r0, #64	; 0x40
    213c:	bc08      	pop	{r3}
    213e:	4760      	bx	r12
    2140:	0000212d 	.word	0x0000212d

00002144 <mbed::Serial::Serial(PinName, PinName, char const*)>:
    2144:	b538      	push	{r3, r4, r5, lr}
    2146:	1c04      	adds	r4, r0, #0
    2148:	1c1d      	adds	r5, r3, #0
    214a:	f000 f829 	bl	21a0 <mbed::SerialBase::SerialBase(PinName, PinName)>
    214e:	1c20      	adds	r0, r4, #0
    2150:	1c29      	adds	r1, r5, #0
    2152:	3040      	adds	r0, #64	; 0x40
    2154:	f000 f8ba 	bl	22cc <mbed::Stream::Stream(char const*)>
    2158:	4b05      	ldr	r3, [pc, #20]	; (2170 <mbed::Serial::Serial(PinName, PinName, char const*)+0x2c>)
    215a:	1c20      	adds	r0, r4, #0
    215c:	1c1a      	adds	r2, r3, #0
    215e:	3208      	adds	r2, #8
    2160:	6022      	str	r2, [r4, #0]
    2162:	1c1a      	adds	r2, r3, #0
    2164:	3220      	adds	r2, #32
    2166:	3354      	adds	r3, #84	; 0x54
    2168:	6422      	str	r2, [r4, #64]	; 0x40
    216a:	6463      	str	r3, [r4, #68]	; 0x44
    216c:	bd38      	pop	{r3, r4, r5, pc}
    216e:	46c0      	nop			; (mov r8, r8)
    2170:	00007990 	.word	0x00007990

00002174 <mbed::SerialBase::_irq_handler(unsigned long, SerialIrq)>:
    2174:	b508      	push	{r3, lr}
    2176:	004b      	lsls	r3, r1, #1
    2178:	1859      	adds	r1, r3, r1
    217a:	00c9      	lsls	r1, r1, #3
    217c:	3108      	adds	r1, #8
    217e:	1840      	adds	r0, r0, r1
    2180:	1d01      	adds	r1, r0, #4
    2182:	694b      	ldr	r3, [r1, #20]
    2184:	2b00      	cmp	r3, #0
    2186:	d005      	beq.n	2194 <mbed::SerialBase::_irq_handler(unsigned long, SerialIrq)+0x20>
    2188:	6840      	ldr	r0, [r0, #4]
    218a:	2800      	cmp	r0, #0
    218c:	d001      	beq.n	2192 <mbed::SerialBase::_irq_handler(unsigned long, SerialIrq)+0x1e>
    218e:	3104      	adds	r1, #4
    2190:	4798      	blx	r3
    2192:	bd08      	pop	{r3, pc}
    2194:	6843      	ldr	r3, [r0, #4]
    2196:	2b00      	cmp	r3, #0
    2198:	d0fb      	beq.n	2192 <mbed::SerialBase::_irq_handler(unsigned long, SerialIrq)+0x1e>
    219a:	4798      	blx	r3
    219c:	e7f9      	b.n	2192 <mbed::SerialBase::_irq_handler(unsigned long, SerialIrq)+0x1e>
    219e:	46c0      	nop			; (mov r8, r8)

000021a0 <mbed::SerialBase::SerialBase(PinName, PinName)>:
    21a0:	b538      	push	{r3, r4, r5, lr}
    21a2:	4b0c      	ldr	r3, [pc, #48]	; (21d4 <mbed::SerialBase::SerialBase(PinName, PinName)+0x34>)
    21a4:	1d05      	adds	r5, r0, #4
    21a6:	6003      	str	r3, [r0, #0]
    21a8:	2300      	movs	r3, #0
    21aa:	6043      	str	r3, [r0, #4]
    21ac:	7203      	strb	r3, [r0, #8]
    21ae:	60c3      	str	r3, [r0, #12]
    21b0:	6203      	str	r3, [r0, #32]
    21b2:	6243      	str	r3, [r0, #36]	; 0x24
    21b4:	6383      	str	r3, [r0, #56]	; 0x38
    21b6:	2396      	movs	r3, #150	; 0x96
    21b8:	019b      	lsls	r3, r3, #6
    21ba:	1c04      	adds	r4, r0, #0
    21bc:	63c3      	str	r3, [r0, #60]	; 0x3c
    21be:	1c28      	adds	r0, r5, #0
    21c0:	f000 f96c 	bl	249c <serial_init>
    21c4:	1c28      	adds	r0, r5, #0
    21c6:	4904      	ldr	r1, [pc, #16]	; (21d8 <mbed::SerialBase::SerialBase(PinName, PinName)+0x38>)
    21c8:	1c22      	adds	r2, r4, #0
    21ca:	f000 fa95 	bl	26f8 <serial_irq_handler>
    21ce:	1c20      	adds	r0, r4, #0
    21d0:	bd38      	pop	{r3, r4, r5, pc}
    21d2:	46c0      	nop			; (mov r8, r8)
    21d4:	000077a0 	.word	0x000077a0
    21d8:	00002175 	.word	0x00002175

000021dc <mbed::SerialBase::_base_getc()>:
    21dc:	b508      	push	{r3, lr}
    21de:	3004      	adds	r0, #4
    21e0:	f000 fa96 	bl	2710 <serial_getc>
    21e4:	bd08      	pop	{r3, pc}
    21e6:	46c0      	nop			; (mov r8, r8)

000021e8 <mbed::SerialBase::_base_putc(int)>:
    21e8:	b510      	push	{r4, lr}
    21ea:	3004      	adds	r0, #4
    21ec:	1c0c      	adds	r4, r1, #0
    21ee:	f000 fa97 	bl	2720 <serial_putc>
    21f2:	1c20      	adds	r0, r4, #0
    21f4:	bd10      	pop	{r4, pc}
    21f6:	46c0      	nop			; (mov r8, r8)

000021f8 <mbed::Stream::close()>:
    21f8:	2000      	movs	r0, #0
    21fa:	4770      	bx	lr

000021fc <mbed::Stream::write(void const*, unsigned int)>:
    21fc:	b5f8      	push	{r3, r4, r5, r6, r7, lr}
    21fe:	188e      	adds	r6, r1, r2
    2200:	1c05      	adds	r5, r0, #0
    2202:	1e0f      	subs	r7, r1, #0
    2204:	42b7      	cmp	r7, r6
    2206:	d010      	beq.n	222a <mbed::Stream::write(void const*, unsigned int)+0x2e>
    2208:	1c0c      	adds	r4, r1, #0
    220a:	e001      	b.n	2210 <mbed::Stream::write(void const*, unsigned int)+0x14>
    220c:	42a6      	cmp	r6, r4
    220e:	d00a      	beq.n	2226 <mbed::Stream::write(void const*, unsigned int)+0x2a>
    2210:	3401      	adds	r4, #1
    2212:	682b      	ldr	r3, [r5, #0]
    2214:	1e62      	subs	r2, r4, #1
    2216:	7811      	ldrb	r1, [r2, #0]
    2218:	6a5b      	ldr	r3, [r3, #36]	; 0x24
    221a:	1c28      	adds	r0, r5, #0
    221c:	4798      	blx	r3
    221e:	3001      	adds	r0, #1
    2220:	d1f4      	bne.n	220c <mbed::Stream::write(void const*, unsigned int)+0x10>
    2222:	1be0      	subs	r0, r4, r7
    2224:	bdf8      	pop	{r3, r4, r5, r6, r7, pc}
    2226:	1bf0      	subs	r0, r6, r7
    2228:	e7fc      	b.n	2224 <mbed::Stream::write(void const*, unsigned int)+0x28>
    222a:	2000      	movs	r0, #0
    222c:	e7fa      	b.n	2224 <mbed::Stream::write(void const*, unsigned int)+0x28>
    222e:	46c0      	nop			; (mov r8, r8)

00002230 <mbed::Stream::read(void*, unsigned int)>:
    2230:	b5f8      	push	{r3, r4, r5, r6, r7, lr}
    2232:	188e      	adds	r6, r1, r2
    2234:	1c05      	adds	r5, r0, #0
    2236:	1e0f      	subs	r7, r1, #0
    2238:	42b7      	cmp	r7, r6
    223a:	d010      	beq.n	225e <mbed::Stream::read(void*, unsigned int)+0x2e>
    223c:	1c0c      	adds	r4, r1, #0
    223e:	e004      	b.n	224a <mbed::Stream::read(void*, unsigned int)+0x1a>
    2240:	3401      	adds	r4, #1
    2242:	1e63      	subs	r3, r4, #1
    2244:	7018      	strb	r0, [r3, #0]
    2246:	42a6      	cmp	r6, r4
    2248:	d007      	beq.n	225a <mbed::Stream::read(void*, unsigned int)+0x2a>
    224a:	682b      	ldr	r3, [r5, #0]
    224c:	1c28      	adds	r0, r5, #0
    224e:	6a9b      	ldr	r3, [r3, #40]	; 0x28
    2250:	4798      	blx	r3
    2252:	1c43      	adds	r3, r0, #1
    2254:	d1f4      	bne.n	2240 <mbed::Stream::read(void*, unsigned int)+0x10>
    2256:	1be0      	subs	r0, r4, r7
    2258:	bdf8      	pop	{r3, r4, r5, r6, r7, pc}
    225a:	1bf0      	subs	r0, r6, r7
    225c:	e7fc      	b.n	2258 <mbed::Stream::read(void*, unsigned int)+0x28>
    225e:	2000      	movs	r0, #0
    2260:	e7fa      	b.n	2258 <mbed::Stream::read(void*, unsigned int)+0x28>
    2262:	46c0      	nop			; (mov r8, r8)

00002264 <mbed::Stream::lseek(long, int)>:
    2264:	2000      	movs	r0, #0
    2266:	4770      	bx	lr

00002268 <mbed::Stream::isatty()>:
    2268:	2000      	movs	r0, #0
    226a:	4770      	bx	lr

0000226c <mbed::Stream::fsync()>:
    226c:	2000      	movs	r0, #0
    226e:	4770      	bx	lr

00002270 <mbed::Stream::flen()>:
    2270:	2000      	movs	r0, #0
    2272:	4770      	bx	lr

00002274 <mbed::Stream::~Stream()>:
    2274:	4b07      	ldr	r3, [pc, #28]	; (2294 <mbed::Stream::~Stream()+0x20>)
    2276:	b510      	push	{r4, lr}
    2278:	1c1a      	adds	r2, r3, #0
    227a:	3208      	adds	r2, #8
    227c:	333c      	adds	r3, #60	; 0x3c
    227e:	1c04      	adds	r4, r0, #0
    2280:	6002      	str	r2, [r0, #0]
    2282:	6043      	str	r3, [r0, #4]
    2284:	6940      	ldr	r0, [r0, #20]
    2286:	f003 fabd 	bl	5804 <fclose>
    228a:	1c20      	adds	r0, r4, #0
    228c:	f000 fb20 	bl	28d0 <mbed::FileLike::~FileLike()>
    2290:	1c20      	adds	r0, r4, #0
    2292:	bd10      	pop	{r4, pc}
    2294:	000079f0 	.word	0x000079f0

00002298 <non-virtual thunk to mbed::Stream::~Stream()>:
    2298:	b408      	push	{r3}
    229a:	4b02      	ldr	r3, [pc, #8]	; (22a4 <non-virtual thunk to mbed::Stream::~Stream()+0xc>)
    229c:	469c      	mov	r12, r3
    229e:	3804      	subs	r0, #4
    22a0:	bc08      	pop	{r3}
    22a2:	4760      	bx	r12
    22a4:	00002275 	.word	0x00002275

000022a8 <mbed::Stream::~Stream()>:
    22a8:	b510      	push	{r4, lr}
    22aa:	1c04      	adds	r4, r0, #0
    22ac:	f7ff ffe2 	bl	2274 <mbed::Stream::~Stream()>
    22b0:	1c20      	adds	r0, r4, #0
    22b2:	f000 fc4b 	bl	2b4c <operator delete(void*)>
    22b6:	1c20      	adds	r0, r4, #0
    22b8:	bd10      	pop	{r4, pc}
    22ba:	46c0      	nop			; (mov r8, r8)

000022bc <non-virtual thunk to mbed::Stream::~Stream()>:
    22bc:	b408      	push	{r3}
    22be:	4b02      	ldr	r3, [pc, #8]	; (22c8 <non-virtual thunk to mbed::Stream::~Stream()+0xc>)
    22c0:	469c      	mov	r12, r3
    22c2:	3804      	subs	r0, #4
    22c4:	bc08      	pop	{r3}
    22c6:	4760      	bx	r12
    22c8:	000022a9 	.word	0x000022a9

000022cc <mbed::Stream::Stream(char const*)>:
    22cc:	b510      	push	{r4, lr}
    22ce:	b084      	sub	sp, #16
    22d0:	1c04      	adds	r4, r0, #0
    22d2:	f000 fb35 	bl	2940 <mbed::FileLike::FileLike(char const*)>
    22d6:	4b0b      	ldr	r3, [pc, #44]	; (2304 <mbed::Stream::Stream(char const*)+0x38>)
    22d8:	a801      	add	r0, sp, #4
    22da:	1c1a      	adds	r2, r3, #0
    22dc:	333c      	adds	r3, #60	; 0x3c
    22de:	6063      	str	r3, [r4, #4]
    22e0:	3208      	adds	r2, #8
    22e2:	2300      	movs	r3, #0
    22e4:	6163      	str	r3, [r4, #20]
    22e6:	6022      	str	r2, [r4, #0]
    22e8:	4907      	ldr	r1, [pc, #28]	; (2308 <mbed::Stream::Stream(char const*)+0x3c>)
    22ea:	1c22      	adds	r2, r4, #0
    22ec:	f003 ff24 	bl	6138 <siprintf>
    22f0:	4906      	ldr	r1, [pc, #24]	; (230c <mbed::Stream::Stream(char const*)+0x40>)
    22f2:	a801      	add	r0, sp, #4
    22f4:	f003 fc5e 	bl	5bb4 <fopen>
    22f8:	6160      	str	r0, [r4, #20]
    22fa:	f7ff ff05 	bl	2108 <mbed::mbed_set_unbuffered_stream(__sFILE*)>
    22fe:	1c20      	adds	r0, r4, #0
    2300:	b004      	add	sp, #16
    2302:	bd10      	pop	{r4, pc}
    2304:	000079f0 	.word	0x000079f0
    2308:	00007980 	.word	0x00007980
    230c:	00007a38 	.word	0x00007a38

00002310 <mbed::Stream::printf(char const*, ...)>:
    2310:	b40e      	push	{r1, r2, r3}
    2312:	b510      	push	{r4, lr}
    2314:	b083      	sub	sp, #12
    2316:	ab05      	add	r3, sp, #20
    2318:	cb04      	ldmia	r3!, {r2}
    231a:	1c04      	adds	r4, r0, #0
    231c:	6940      	ldr	r0, [r0, #20]
    231e:	9301      	str	r3, [sp, #4]
    2320:	f003 fb30 	bl	5984 <fflush>
    2324:	6960      	ldr	r0, [r4, #20]
    2326:	9905      	ldr	r1, [sp, #20]
    2328:	9a01      	ldr	r2, [sp, #4]
    232a:	f004 fc37 	bl	6b9c <vfiprintf>
    232e:	b003      	add	sp, #12
    2330:	bc10      	pop	{r4}
    2332:	bc08      	pop	{r3}
    2334:	b003      	add	sp, #12
    2336:	4718      	bx	r3

00002338 <NMI_Handler>:
    2338:	e7fe      	b.n	2338 <NMI_Handler>

0000233a <HardFault_Handler>:
    233a:	e7fe      	b.n	233a <HardFault_Handler>

0000233c <SVC_Handler>:
    233c:	e7fe      	b.n	233c <SVC_Handler>

0000233e <PendSV_Handler>:
    233e:	e7fe      	b.n	233e <PendSV_Handler>

00002340 <SysTick_Handler>:
    2340:	e7fe      	b.n	2340 <SysTick_Handler>

00002342 <ADC_OVR_IRQHandler>:
    2342:	e7fe      	b.n	2342 <ADC_OVR_IRQHandler>

00002344 <gpio_set>:
    2344:	4b0d      	ldr	r3, [pc, #52]	; (237c <gpio_set+0x38>)
    2346:	b510      	push	{r4, lr}
    2348:	681a      	ldr	r2, [r3, #0]
    234a:	2a00      	cmp	r2, #0
    234c:	d110      	bne.n	2370 <gpio_set+0x2c>
    234e:	2201      	movs	r2, #1
    2350:	601a      	str	r2, [r3, #0]
    2352:	4b0b      	ldr	r3, [pc, #44]	; (2380 <gpio_set+0x3c>)
    2354:	2280      	movs	r2, #128	; 0x80
    2356:	589c      	ldr	r4, [r3, r2]
    2358:	2140      	movs	r1, #64	; 0x40
    235a:	4321      	orrs	r1, r4
    235c:	5099      	str	r1, [r3, r2]
    235e:	6859      	ldr	r1, [r3, #4]
    2360:	4a08      	ldr	r2, [pc, #32]	; (2384 <gpio_set+0x40>)
    2362:	400a      	ands	r2, r1
    2364:	605a      	str	r2, [r3, #4]
    2366:	6859      	ldr	r1, [r3, #4]
    2368:	2280      	movs	r2, #128	; 0x80
    236a:	00d2      	lsls	r2, r2, #3
    236c:	430a      	orrs	r2, r1
    236e:	605a      	str	r2, [r3, #4]
    2370:	1200      	asrs	r0, r0, #8
    2372:	2301      	movs	r3, #1
    2374:	4083      	lsls	r3, r0
    2376:	1c18      	adds	r0, r3, #0
    2378:	bd10      	pop	{r4, pc}
    237a:	46c0      	nop			; (mov r8, r8)
    237c:	100003d8 	.word	0x100003d8
    2380:	40048000 	.word	0x40048000
    2384:	fffffbff 	.word	0xfffffbff

00002388 <gpio_init>:
    2388:	b510      	push	{r4, lr}
    238a:	1c04      	adds	r4, r0, #0
    238c:	8001      	strh	r1, [r0, #0]
    238e:	1c4b      	adds	r3, r1, #1
    2390:	d00b      	beq.n	23aa <gpio_init+0x22>
    2392:	1c08      	adds	r0, r1, #0
    2394:	f7ff ffd6 	bl	2344 <gpio_set>
    2398:	4b04      	ldr	r3, [pc, #16]	; (23ac <gpio_init+0x24>)
    239a:	6060      	str	r0, [r4, #4]
    239c:	60e3      	str	r3, [r4, #12]
    239e:	4b04      	ldr	r3, [pc, #16]	; (23b0 <gpio_init+0x28>)
    23a0:	6123      	str	r3, [r4, #16]
    23a2:	4b04      	ldr	r3, [pc, #16]	; (23b4 <gpio_init+0x2c>)
    23a4:	6163      	str	r3, [r4, #20]
    23a6:	4b04      	ldr	r3, [pc, #16]	; (23b8 <gpio_init+0x30>)
    23a8:	60a3      	str	r3, [r4, #8]
    23aa:	bd10      	pop	{r4, pc}
    23ac:	a0002200 	.word	0xa0002200
    23b0:	a0002280 	.word	0xa0002280
    23b4:	a0002100 	.word	0xa0002100
    23b8:	a0002000 	.word	0xa0002000

000023bc <gpio_mode>:
    23bc:	b508      	push	{r3, lr}
    23be:	2300      	movs	r3, #0
    23c0:	5ec0      	ldrsh	r0, [r0, r3]
    23c2:	f000 f811 	bl	23e8 <pin_mode>
    23c6:	bd08      	pop	{r3, pc}

000023c8 <gpio_dir>:
    23c8:	2900      	cmp	r1, #0
    23ca:	d007      	beq.n	23dc <gpio_dir+0x14>
    23cc:	2901      	cmp	r1, #1
    23ce:	d104      	bne.n	23da <gpio_dir+0x12>
    23d0:	6883      	ldr	r3, [r0, #8]
    23d2:	6842      	ldr	r2, [r0, #4]
    23d4:	6819      	ldr	r1, [r3, #0]
    23d6:	430a      	orrs	r2, r1
    23d8:	601a      	str	r2, [r3, #0]
    23da:	4770      	bx	lr
    23dc:	6883      	ldr	r3, [r0, #8]
    23de:	6841      	ldr	r1, [r0, #4]
    23e0:	681a      	ldr	r2, [r3, #0]
    23e2:	438a      	bics	r2, r1
    23e4:	601a      	str	r2, [r3, #0]
    23e6:	e7f8      	b.n	23da <gpio_dir+0x12>

000023e8 <pin_mode>:
    23e8:	23a2      	movs	r3, #162	; 0xa2
    23ea:	011b      	lsls	r3, r3, #4
    23ec:	4298      	cmp	r0, r3
    23ee:	d011      	beq.n	2414 <pin_mode+0x2c>
    23f0:	4b0b      	ldr	r3, [pc, #44]	; (2420 <pin_mode+0x38>)
    23f2:	4298      	cmp	r0, r3
    23f4:	d00e      	beq.n	2414 <pin_mode+0x2c>
    23f6:	23ff      	movs	r3, #255	; 0xff
    23f8:	4018      	ands	r0, r3
    23fa:	4b0a      	ldr	r3, [pc, #40]	; (2424 <pin_mode+0x3c>)
    23fc:	18c0      	adds	r0, r0, r3
    23fe:	6802      	ldr	r2, [r0, #0]
    2400:	2904      	cmp	r1, #4
    2402:	d008      	beq.n	2416 <pin_mode+0x2e>
    2404:	2318      	movs	r3, #24
    2406:	439a      	bics	r2, r3
    2408:	2303      	movs	r3, #3
    240a:	4019      	ands	r1, r3
    240c:	00cb      	lsls	r3, r1, #3
    240e:	1c11      	adds	r1, r2, #0
    2410:	4319      	orrs	r1, r3
    2412:	6001      	str	r1, [r0, #0]
    2414:	4770      	bx	lr
    2416:	2380      	movs	r3, #128	; 0x80
    2418:	00db      	lsls	r3, r3, #3
    241a:	4313      	orrs	r3, r2
    241c:	6003      	str	r3, [r0, #0]
    241e:	e7f9      	b.n	2414 <pin_mode+0x2c>
    2420:	00000b1c 	.word	0x00000b1c
    2424:	40044000 	.word	0x40044000

00002428 <serial_baud>:
    2428:	b5f8      	push	{r3, r4, r5, r6, r7, lr}
    242a:	4b0e      	ldr	r3, [pc, #56]	; (2464 <serial_baud+0x3c>)
    242c:	6807      	ldr	r7, [r0, #0]
    242e:	681e      	ldr	r6, [r3, #0]
    2430:	1c0d      	adds	r5, r1, #0
    2432:	0936      	lsrs	r6, r6, #4
    2434:	1c30      	adds	r0, r6, #0
    2436:	f000 fb97 	bl	2b68 <__aeabi_uidiv>
    243a:	4c0b      	ldr	r4, [pc, #44]	; (2468 <serial_baud+0x40>)
    243c:	23f0      	movs	r3, #240	; 0xf0
    243e:	22ff      	movs	r2, #255	; 0xff
    2440:	3801      	subs	r0, #1
    2442:	6238      	str	r0, [r7, #32]
    2444:	50e2      	str	r2, [r4, r3]
    2446:	58e0      	ldr	r0, [r4, r3]
    2448:	6a39      	ldr	r1, [r7, #32]
    244a:	3001      	adds	r0, #1
    244c:	3101      	adds	r1, #1
    244e:	4370      	muls	r0, r6
    2450:	4369      	muls	r1, r5
    2452:	58e7      	ldr	r7, [r4, r3]
    2454:	f000 fb88 	bl	2b68 <__aeabi_uidiv>
    2458:	43ff      	mvns	r7, r7
    245a:	183f      	adds	r7, r7, r0
    245c:	23f4      	movs	r3, #244	; 0xf4
    245e:	50e7      	str	r7, [r4, r3]
    2460:	bdf8      	pop	{r3, r4, r5, r6, r7, pc}
    2462:	46c0      	nop			; (mov r8, r8)
    2464:	100003f4 	.word	0x100003f4
    2468:	40048000 	.word	0x40048000

0000246c <serial_format>:
    246c:	b530      	push	{r4, r5, lr}
    246e:	3b01      	subs	r3, #1
    2470:	3907      	subs	r1, #7
    2472:	2a01      	cmp	r2, #1
    2474:	d00f      	beq.n	2496 <serial_format+0x2a>
    2476:	3a02      	subs	r2, #2
    2478:	4254      	negs	r4, r2
    247a:	4162      	adcs	r2, r4
    247c:	0152      	lsls	r2, r2, #5
    247e:	6800      	ldr	r0, [r0, #0]
    2480:	2401      	movs	r4, #1
    2482:	6805      	ldr	r5, [r0, #0]
    2484:	0089      	lsls	r1, r1, #2
    2486:	43a5      	bics	r5, r4
    2488:	019b      	lsls	r3, r3, #6
    248a:	430c      	orrs	r4, r1
    248c:	431c      	orrs	r4, r3
    248e:	4314      	orrs	r4, r2
    2490:	6005      	str	r5, [r0, #0]
    2492:	6004      	str	r4, [r0, #0]
    2494:	bd30      	pop	{r4, r5, pc}
    2496:	2230      	movs	r2, #48	; 0x30
    2498:	e7f1      	b.n	247e <serial_format+0x12>
    249a:	46c0      	nop			; (mov r8, r8)

0000249c <serial_init>:
    249c:	b5f0      	push	{r4, r5, r6, r7, lr}
    249e:	464d      	mov	r5, r9
    24a0:	4644      	mov	r4, r8
    24a2:	465f      	mov	r7, r11
    24a4:	4656      	mov	r6, r10
    24a6:	b4f0      	push	{r4, r5, r6, r7}
    24a8:	4c84      	ldr	r4, [pc, #528]	; (26bc <serial_init+0x220>)
    24aa:	b087      	sub	sp, #28
    24ac:	9103      	str	r1, [sp, #12]
    24ae:	7821      	ldrb	r1, [r4, #0]
    24b0:	1c05      	adds	r5, r0, #0
    24b2:	9204      	str	r2, [sp, #16]
    24b4:	2900      	cmp	r1, #0
    24b6:	d100      	bne.n	24ba <serial_init+0x1e>
    24b8:	e0cf      	b.n	265a <serial_init+0x1be>
    24ba:	9c03      	ldr	r4, [sp, #12]
    24bc:	4880      	ldr	r0, [pc, #512]	; (26c0 <serial_init+0x224>)
    24be:	1224      	asrs	r4, r4, #8
    24c0:	9f04      	ldr	r7, [sp, #16]
    24c2:	b226      	sxth	r6, r4
    24c4:	4683      	mov	r11, r0
    24c6:	123f      	asrs	r7, r7, #8
    24c8:	46a1      	mov	r9, r4
    24ca:	9601      	str	r6, [sp, #4]
    24cc:	22ff      	movs	r2, #255	; 0xff
    24ce:	2600      	movs	r6, #0
    24d0:	4c7c      	ldr	r4, [pc, #496]	; (26c4 <serial_init+0x228>)
    24d2:	487d      	ldr	r0, [pc, #500]	; (26c8 <serial_init+0x22c>)
    24d4:	468c      	mov	r12, r1
    24d6:	46ba      	mov	r10, r7
    24d8:	4659      	mov	r1, r11
    24da:	2300      	movs	r3, #0
    24dc:	46ab      	mov	r11, r5
    24de:	4690      	mov	r8, r2
    24e0:	9705      	str	r7, [sp, #20]
    24e2:	1c35      	adds	r5, r6, #0
    24e4:	5ce2      	ldrb	r2, [r4, r3]
    24e6:	4646      	mov	r6, r8
    24e8:	0092      	lsls	r2, r2, #2
    24ea:	5817      	ldr	r7, [r2, r0]
    24ec:	18e2      	adds	r2, r4, r3
    24ee:	7852      	ldrb	r2, [r2, #1]
    24f0:	4096      	lsls	r6, r2
    24f2:	4037      	ands	r7, r6
    24f4:	5cce      	ldrb	r6, [r1, r3]
    24f6:	40d7      	lsrs	r7, r2
    24f8:	00b6      	lsls	r6, r6, #2
    24fa:	5836      	ldr	r6, [r6, r0]
    24fc:	1c3a      	adds	r2, r7, #0
    24fe:	9f01      	ldr	r7, [sp, #4]
    2500:	9602      	str	r6, [sp, #8]
    2502:	18ce      	adds	r6, r1, r3
    2504:	7876      	ldrb	r6, [r6, #1]
    2506:	42ba      	cmp	r2, r7
    2508:	d100      	bne.n	250c <serial_init+0x70>
    250a:	e094      	b.n	2636 <serial_init+0x19a>
    250c:	3302      	adds	r3, #2
    250e:	3501      	adds	r5, #1
    2510:	2b06      	cmp	r3, #6
    2512:	d1e7      	bne.n	24e4 <serial_init+0x48>
    2514:	465d      	mov	r5, r11
    2516:	468b      	mov	r11, r1
    2518:	4661      	mov	r1, r12
    251a:	4652      	mov	r2, r10
    251c:	4648      	mov	r0, r9
    251e:	b292      	uxth	r2, r2
    2520:	b286      	uxth	r6, r0
    2522:	4692      	mov	r10, r2
    2524:	2300      	movs	r3, #0
    2526:	2701      	movs	r7, #1
    2528:	1c08      	adds	r0, r1, #0
    252a:	4118      	asrs	r0, r3
    252c:	2201      	movs	r2, #1
    252e:	4207      	tst	r7, r0
    2530:	d100      	bne.n	2534 <serial_init+0x98>
    2532:	e0a7      	b.n	2684 <serial_init+0x1e8>
    2534:	3301      	adds	r3, #1
    2536:	2b03      	cmp	r3, #3
    2538:	d1f6      	bne.n	2528 <serial_init+0x8c>
    253a:	4864      	ldr	r0, [pc, #400]	; (26cc <serial_init+0x230>)
    253c:	f7ff fbee 	bl	1d1c <error>
    2540:	2305      	movs	r3, #5
    2542:	425b      	negs	r3, r3
    2544:	4699      	mov	r9, r3
    2546:	2380      	movs	r3, #128	; 0x80
    2548:	4f5c      	ldr	r7, [pc, #368]	; (26bc <serial_init+0x220>)
    254a:	019b      	lsls	r3, r3, #6
    254c:	9301      	str	r3, [sp, #4]
    254e:	4b60      	ldr	r3, [pc, #384]	; (26d0 <serial_init+0x234>)
    2550:	7839      	ldrb	r1, [r7, #0]
    2552:	2704      	movs	r7, #4
    2554:	9700      	str	r7, [sp, #0]
    2556:	2004      	movs	r0, #4
    2558:	2200      	movs	r2, #0
    255a:	469c      	mov	r12, r3
    255c:	27ff      	movs	r7, #255	; 0xff
    255e:	2301      	movs	r3, #1
    2560:	9002      	str	r0, [sp, #8]
    2562:	4690      	mov	r8, r2
    2564:	9705      	str	r7, [sp, #20]
    2566:	425b      	negs	r3, r3
    2568:	4647      	mov	r7, r8
    256a:	9805      	ldr	r0, [sp, #20]
    256c:	4339      	orrs	r1, r7
    256e:	4f53      	ldr	r7, [pc, #332]	; (26bc <serial_init+0x220>)
    2570:	4662      	mov	r2, r12
    2572:	005b      	lsls	r3, r3, #1
    2574:	7128      	strb	r0, [r5, #4]
    2576:	7039      	strb	r1, [r7, #0]
    2578:	602a      	str	r2, [r5, #0]
    257a:	18e2      	adds	r2, r4, r3
    257c:	7811      	ldrb	r1, [r2, #0]
    257e:	7852      	ldrb	r2, [r2, #1]
    2580:	4851      	ldr	r0, [pc, #324]	; (26c8 <serial_init+0x22c>)
    2582:	b236      	sxth	r6, r6
    2584:	4694      	mov	r12, r2
    2586:	4096      	lsls	r6, r2
    2588:	0089      	lsls	r1, r1, #2
    258a:	22ff      	movs	r2, #255	; 0xff
    258c:	1809      	adds	r1, r1, r0
    258e:	1c14      	adds	r4, r2, #0
    2590:	4660      	mov	r0, r12
    2592:	680f      	ldr	r7, [r1, #0]
    2594:	4084      	lsls	r4, r0
    2596:	46a4      	mov	r12, r4
    2598:	4660      	mov	r0, r12
    259a:	1c3c      	adds	r4, r7, #0
    259c:	4384      	bics	r4, r0
    259e:	4334      	orrs	r4, r6
    25a0:	600c      	str	r4, [r1, #0]
    25a2:	445b      	add	r3, r11
    25a4:	7819      	ldrb	r1, [r3, #0]
    25a6:	4c48      	ldr	r4, [pc, #288]	; (26c8 <serial_init+0x22c>)
    25a8:	0089      	lsls	r1, r1, #2
    25aa:	1909      	adds	r1, r1, r4
    25ac:	6808      	ldr	r0, [r1, #0]
    25ae:	785b      	ldrb	r3, [r3, #1]
    25b0:	4656      	mov	r6, r10
    25b2:	b234      	sxth	r4, r6
    25b4:	409c      	lsls	r4, r3
    25b6:	409a      	lsls	r2, r3
    25b8:	1c03      	adds	r3, r0, #0
    25ba:	4393      	bics	r3, r2
    25bc:	4323      	orrs	r3, r4
    25be:	600b      	str	r3, [r1, #0]
    25c0:	9f00      	ldr	r7, [sp, #0]
    25c2:	4b44      	ldr	r3, [pc, #272]	; (26d4 <serial_init+0x238>)
    25c4:	4e44      	ldr	r6, [pc, #272]	; (26d8 <serial_init+0x23c>)
    25c6:	2280      	movs	r2, #128	; 0x80
    25c8:	2194      	movs	r1, #148	; 0x94
    25ca:	2401      	movs	r4, #1
    25cc:	505c      	str	r4, [r3, r1]
    25ce:	50b7      	str	r7, [r6, r2]
    25d0:	5898      	ldr	r0, [r3, r2]
    25d2:	1c07      	adds	r7, r0, #0
    25d4:	9801      	ldr	r0, [sp, #4]
    25d6:	4307      	orrs	r7, r0
    25d8:	509f      	str	r7, [r3, r2]
    25da:	685a      	ldr	r2, [r3, #4]
    25dc:	464f      	mov	r7, r9
    25de:	403a      	ands	r2, r7
    25e0:	605a      	str	r2, [r3, #4]
    25e2:	685a      	ldr	r2, [r3, #4]
    25e4:	9802      	ldr	r0, [sp, #8]
    25e6:	4302      	orrs	r2, r0
    25e8:	605a      	str	r2, [r3, #4]
    25ea:	5859      	ldr	r1, [r3, r1]
    25ec:	4b3b      	ldr	r3, [pc, #236]	; (26dc <serial_init+0x240>)
    25ee:	6818      	ldr	r0, [r3, #0]
    25f0:	f000 faba 	bl	2b68 <__aeabi_uidiv>
    25f4:	4b3a      	ldr	r3, [pc, #232]	; (26e0 <serial_init+0x244>)
    25f6:	2196      	movs	r1, #150	; 0x96
    25f8:	6018      	str	r0, [r3, #0]
    25fa:	0189      	lsls	r1, r1, #6
    25fc:	1c28      	adds	r0, r5, #0
    25fe:	f7ff ff13 	bl	2428 <serial_baud>
    2602:	2200      	movs	r2, #0
    2604:	2301      	movs	r3, #1
    2606:	1c28      	adds	r0, r5, #0
    2608:	2108      	movs	r1, #8
    260a:	f7ff ff2f 	bl	246c <serial_format>
    260e:	682b      	ldr	r3, [r5, #0]
    2610:	2282      	movs	r2, #130	; 0x82
    2612:	9f00      	ldr	r7, [sp, #0]
    2614:	0112      	lsls	r2, r2, #4
    2616:	609a      	str	r2, [r3, #8]
    2618:	6037      	str	r7, [r6, #0]
    261a:	681a      	ldr	r2, [r3, #0]
    261c:	9e03      	ldr	r6, [sp, #12]
    261e:	4322      	orrs	r2, r4
    2620:	601a      	str	r2, [r3, #0]
    2622:	4b30      	ldr	r3, [pc, #192]	; (26e4 <serial_init+0x248>)
    2624:	429e      	cmp	r6, r3
    2626:	d021      	beq.n	266c <serial_init+0x1d0>
    2628:	b007      	add	sp, #28
    262a:	bc3c      	pop	{r2, r3, r4, r5}
    262c:	4690      	mov	r8, r2
    262e:	4699      	mov	r9, r3
    2630:	46a2      	mov	r10, r4
    2632:	46ab      	mov	r11, r5
    2634:	bdf0      	pop	{r4, r5, r6, r7, pc}
    2636:	4642      	mov	r2, r8
    2638:	9f02      	ldr	r7, [sp, #8]
    263a:	40b2      	lsls	r2, r6
    263c:	403a      	ands	r2, r7
    263e:	40f2      	lsrs	r2, r6
    2640:	1c16      	adds	r6, r2, #0
    2642:	9a05      	ldr	r2, [sp, #20]
    2644:	4296      	cmp	r6, r2
    2646:	d000      	beq.n	264a <serial_init+0x1ae>
    2648:	e760      	b.n	250c <serial_init+0x70>
    264a:	1c2e      	adds	r6, r5, #0
    264c:	4b26      	ldr	r3, [pc, #152]	; (26e8 <serial_init+0x24c>)
    264e:	465d      	mov	r5, r11
    2650:	712e      	strb	r6, [r5, #4]
    2652:	03b6      	lsls	r6, r6, #14
    2654:	18f6      	adds	r6, r6, r3
    2656:	602e      	str	r6, [r5, #0]
    2658:	e7e6      	b.n	2628 <serial_init+0x18c>
    265a:	9e03      	ldr	r6, [sp, #12]
    265c:	4f18      	ldr	r7, [pc, #96]	; (26c0 <serial_init+0x224>)
    265e:	1236      	asrs	r6, r6, #8
    2660:	1212      	asrs	r2, r2, #8
    2662:	46b1      	mov	r9, r6
    2664:	4692      	mov	r10, r2
    2666:	4c17      	ldr	r4, [pc, #92]	; (26c4 <serial_init+0x228>)
    2668:	46bb      	mov	r11, r7
    266a:	e756      	b.n	251a <serial_init+0x7e>
    266c:	4b1f      	ldr	r3, [pc, #124]	; (26ec <serial_init+0x250>)
    266e:	9f04      	ldr	r7, [sp, #16]
    2670:	429f      	cmp	r7, r3
    2672:	d1d9      	bne.n	2628 <serial_init+0x18c>
    2674:	4b1e      	ldr	r3, [pc, #120]	; (26f0 <serial_init+0x254>)
    2676:	1c29      	adds	r1, r5, #0
    2678:	2208      	movs	r2, #8
    267a:	481e      	ldr	r0, [pc, #120]	; (26f4 <serial_init+0x258>)
    267c:	601c      	str	r4, [r3, #0]
    267e:	f003 fbf8 	bl	5e72 <memcpy>
    2682:	e7d1      	b.n	2628 <serial_init+0x18c>
    2684:	b2df      	uxtb	r7, r3
    2686:	9705      	str	r7, [sp, #20]
    2688:	0398      	lsls	r0, r3, #14
    268a:	4f17      	ldr	r7, [pc, #92]	; (26e8 <serial_init+0x24c>)
    268c:	4684      	mov	r12, r0
    268e:	44bc      	add	r12, r7
    2690:	1c17      	adds	r7, r2, #0
    2692:	409f      	lsls	r7, r3
    2694:	b2ff      	uxtb	r7, r7
    2696:	200e      	movs	r0, #14
    2698:	18c0      	adds	r0, r0, r3
    269a:	46b8      	mov	r8, r7
    269c:	1c17      	adds	r7, r2, #0
    269e:	4087      	lsls	r7, r0
    26a0:	9701      	str	r7, [sp, #4]
    26a2:	1cd8      	adds	r0, r3, #3
    26a4:	1c17      	adds	r7, r2, #0
    26a6:	4087      	lsls	r7, r0
    26a8:	9702      	str	r7, [sp, #8]
    26aa:	43ff      	mvns	r7, r7
    26ac:	46b9      	mov	r9, r7
    26ae:	9f05      	ldr	r7, [sp, #20]
    26b0:	3703      	adds	r7, #3
    26b2:	b2ff      	uxtb	r7, r7
    26b4:	40ba      	lsls	r2, r7
    26b6:	9200      	str	r2, [sp, #0]
    26b8:	e756      	b.n	2568 <serial_init+0xcc>
    26ba:	46c0      	nop			; (mov r8, r8)
    26bc:	100003f0 	.word	0x100003f0
    26c0:	00007a3c 	.word	0x00007a3c
    26c4:	00007a44 	.word	0x00007a44
    26c8:	4000c000 	.word	0x4000c000
    26cc:	00007a4c 	.word	0x00007a4c
    26d0:	40060000 	.word	0x40060000
    26d4:	40048000 	.word	0x40048000
    26d8:	e000e100 	.word	0xe000e100
    26dc:	100000c4 	.word	0x100000c4
    26e0:	100003f4 	.word	0x100003f4
    26e4:	0000073c 	.word	0x0000073c
    26e8:	40064000 	.word	0x40064000
    26ec:	00001278 	.word	0x00001278
    26f0:	100003dc 	.word	0x100003dc
    26f4:	10000414 	.word	0x10000414

000026f8 <serial_irq_handler>:
    26f8:	4b03      	ldr	r3, [pc, #12]	; (2708 <serial_irq_handler+0x10>)
    26fa:	6019      	str	r1, [r3, #0]
    26fc:	7901      	ldrb	r1, [r0, #4]
    26fe:	4b03      	ldr	r3, [pc, #12]	; (270c <serial_irq_handler+0x14>)
    2700:	0089      	lsls	r1, r1, #2
    2702:	50ca      	str	r2, [r1, r3]
    2704:	4770      	bx	lr
    2706:	46c0      	nop			; (mov r8, r8)
    2708:	100003ec 	.word	0x100003ec
    270c:	100003e0 	.word	0x100003e0

00002710 <serial_getc>:
    2710:	6802      	ldr	r2, [r0, #0]
    2712:	2101      	movs	r1, #1
    2714:	6893      	ldr	r3, [r2, #8]
    2716:	4219      	tst	r1, r3
    2718:	d0fc      	beq.n	2714 <serial_getc+0x4>
    271a:	6950      	ldr	r0, [r2, #20]
    271c:	4770      	bx	lr
    271e:	46c0      	nop			; (mov r8, r8)

00002720 <serial_putc>:
    2720:	6802      	ldr	r2, [r0, #0]
    2722:	2004      	movs	r0, #4
    2724:	6893      	ldr	r3, [r2, #8]
    2726:	4218      	tst	r0, r3
    2728:	d0fc      	beq.n	2724 <serial_putc+0x4>
    272a:	61d1      	str	r1, [r2, #28]
    272c:	4770      	bx	lr
    272e:	46c0      	nop			; (mov r8, r8)

00002730 <us_ticker_init>:
    2730:	4b17      	ldr	r3, [pc, #92]	; (2790 <us_ticker_init+0x60>)
    2732:	b570      	push	{r4, r5, r6, lr}
    2734:	681c      	ldr	r4, [r3, #0]
    2736:	2c00      	cmp	r4, #0
    2738:	d128      	bne.n	278c <us_ticker_init+0x5c>
    273a:	2601      	movs	r6, #1
    273c:	601e      	str	r6, [r3, #0]
    273e:	4b15      	ldr	r3, [pc, #84]	; (2794 <us_ticker_init+0x64>)
    2740:	4915      	ldr	r1, [pc, #84]	; (2798 <us_ticker_init+0x68>)
    2742:	6818      	ldr	r0, [r3, #0]
    2744:	f000 fa10 	bl	2b68 <__aeabi_uidiv>
    2748:	4b14      	ldr	r3, [pc, #80]	; (279c <us_ticker_init+0x6c>)
    274a:	1c01      	adds	r1, r0, #0
    274c:	6018      	str	r0, [r3, #0]
    274e:	2080      	movs	r0, #128	; 0x80
    2750:	0600      	lsls	r0, r0, #24
    2752:	f000 fa09 	bl	2b68 <__aeabi_uidiv>
    2756:	4b12      	ldr	r3, [pc, #72]	; (27a0 <us_ticker_init+0x70>)
    2758:	2280      	movs	r2, #128	; 0x80
    275a:	6018      	str	r0, [r3, #0]
    275c:	4b11      	ldr	r3, [pc, #68]	; (27a4 <us_ticker_init+0x74>)
    275e:	2580      	movs	r5, #128	; 0x80
    2760:	5899      	ldr	r1, [r3, r2]
    2762:	00ed      	lsls	r5, r5, #3
    2764:	4329      	orrs	r1, r5
    2766:	5099      	str	r1, [r3, r2]
    2768:	6859      	ldr	r1, [r3, #4]
    276a:	200a      	movs	r0, #10
    276c:	430a      	orrs	r2, r1
    276e:	605a      	str	r2, [r3, #4]
    2770:	4b0d      	ldr	r3, [pc, #52]	; (27a8 <us_ticker_init+0x78>)
    2772:	2201      	movs	r2, #1
    2774:	4252      	negs	r2, r2
    2776:	601a      	str	r2, [r3, #0]
    2778:	2280      	movs	r2, #128	; 0x80
    277a:	0612      	lsls	r2, r2, #24
    277c:	609e      	str	r6, [r3, #8]
    277e:	490b      	ldr	r1, [pc, #44]	; (27ac <us_ticker_init+0x7c>)
    2780:	611a      	str	r2, [r3, #16]
    2782:	619c      	str	r4, [r3, #24]
    2784:	f000 f86c 	bl	2860 <NVIC_SetVector>
    2788:	4b09      	ldr	r3, [pc, #36]	; (27b0 <us_ticker_init+0x80>)
    278a:	601d      	str	r5, [r3, #0]
    278c:	bd70      	pop	{r4, r5, r6, pc}
    278e:	46c0      	nop			; (mov r8, r8)
    2790:	100003f8 	.word	0x100003f8
    2794:	100000c8 	.word	0x100000c8
    2798:	000f4240 	.word	0x000f4240
    279c:	1000041c 	.word	0x1000041c
    27a0:	10000420 	.word	0x10000420
    27a4:	40048000 	.word	0x40048000
    27a8:	40004000 	.word	0x40004000
    27ac:	000028c1 	.word	0x000028c1
    27b0:	e000e100 	.word	0xe000e100

000027b4 <us_ticker_read>:
    27b4:	b508      	push	{r3, lr}
    27b6:	4b09      	ldr	r3, [pc, #36]	; (27dc <us_ticker_read+0x28>)
    27b8:	681b      	ldr	r3, [r3, #0]
    27ba:	2b00      	cmp	r3, #0
    27bc:	d101      	bne.n	27c2 <us_ticker_read+0xe>
    27be:	f7ff ffb7 	bl	2730 <us_ticker_init>
    27c2:	4b07      	ldr	r3, [pc, #28]	; (27e0 <us_ticker_read+0x2c>)
    27c4:	4807      	ldr	r0, [pc, #28]	; (27e4 <us_ticker_read+0x30>)
    27c6:	685b      	ldr	r3, [r3, #4]
    27c8:	1ac0      	subs	r0, r0, r3
    27ca:	4b07      	ldr	r3, [pc, #28]	; (27e8 <us_ticker_read+0x34>)
    27cc:	6819      	ldr	r1, [r3, #0]
    27ce:	f000 f9cb 	bl	2b68 <__aeabi_uidiv>
    27d2:	4b06      	ldr	r3, [pc, #24]	; (27ec <us_ticker_read+0x38>)
    27d4:	681b      	ldr	r3, [r3, #0]
    27d6:	18c0      	adds	r0, r0, r3
    27d8:	bd08      	pop	{r3, pc}
    27da:	46c0      	nop			; (mov r8, r8)
    27dc:	100003f8 	.word	0x100003f8
    27e0:	40004000 	.word	0x40004000
    27e4:	7fffffff 	.word	0x7fffffff
    27e8:	1000041c 	.word	0x1000041c
    27ec:	100003fc 	.word	0x100003fc

000027f0 <us_ticker_set_interrupt>:
    27f0:	b510      	push	{r4, lr}
    27f2:	1c04      	adds	r4, r0, #0
    27f4:	f7ff ffde 	bl	27b4 <us_ticker_read>
    27f8:	4b06      	ldr	r3, [pc, #24]	; (2814 <us_ticker_set_interrupt+0x24>)
    27fa:	1a24      	subs	r4, r4, r0
    27fc:	6818      	ldr	r0, [r3, #0]
    27fe:	4b06      	ldr	r3, [pc, #24]	; (2818 <us_ticker_set_interrupt+0x28>)
    2800:	4360      	muls	r0, r4
    2802:	2480      	movs	r4, #128	; 0x80
    2804:	0624      	lsls	r4, r4, #24
    2806:	4304      	orrs	r4, r0
    2808:	611c      	str	r4, [r3, #16]
    280a:	6999      	ldr	r1, [r3, #24]
    280c:	2201      	movs	r2, #1
    280e:	430a      	orrs	r2, r1
    2810:	619a      	str	r2, [r3, #24]
    2812:	bd10      	pop	{r4, pc}
    2814:	1000041c 	.word	0x1000041c
    2818:	40004000 	.word	0x40004000

0000281c <us_ticker_disable_interrupt>:
    281c:	4b02      	ldr	r3, [pc, #8]	; (2828 <us_ticker_disable_interrupt+0xc>)
    281e:	2101      	movs	r1, #1
    2820:	699a      	ldr	r2, [r3, #24]
    2822:	438a      	bics	r2, r1
    2824:	619a      	str	r2, [r3, #24]
    2826:	4770      	bx	lr
    2828:	40004000 	.word	0x40004000

0000282c <us_ticker_clear_interrupt>:
    282c:	4b09      	ldr	r3, [pc, #36]	; (2854 <us_ticker_clear_interrupt+0x28>)
    282e:	2201      	movs	r2, #1
    2830:	69d9      	ldr	r1, [r3, #28]
    2832:	420a      	tst	r2, r1
    2834:	d000      	beq.n	2838 <us_ticker_clear_interrupt+0xc>
    2836:	61da      	str	r2, [r3, #28]
    2838:	4b06      	ldr	r3, [pc, #24]	; (2854 <us_ticker_clear_interrupt+0x28>)
    283a:	2201      	movs	r2, #1
    283c:	68d9      	ldr	r1, [r3, #12]
    283e:	420a      	tst	r2, r1
    2840:	d006      	beq.n	2850 <us_ticker_clear_interrupt+0x24>
    2842:	60da      	str	r2, [r3, #12]
    2844:	4b04      	ldr	r3, [pc, #16]	; (2858 <us_ticker_clear_interrupt+0x2c>)
    2846:	4a05      	ldr	r2, [pc, #20]	; (285c <us_ticker_clear_interrupt+0x30>)
    2848:	6819      	ldr	r1, [r3, #0]
    284a:	6812      	ldr	r2, [r2, #0]
    284c:	1852      	adds	r2, r2, r1
    284e:	601a      	str	r2, [r3, #0]
    2850:	4770      	bx	lr
    2852:	46c0      	nop			; (mov r8, r8)
    2854:	40004000 	.word	0x40004000
    2858:	100003fc 	.word	0x100003fc
    285c:	10000420 	.word	0x10000420

00002860 <NVIC_SetVector>:
    2860:	4b0b      	ldr	r3, [pc, #44]	; (2890 <NVIC_SetVector+0x30>)
    2862:	b530      	push	{r4, r5, lr}
    2864:	689c      	ldr	r4, [r3, #8]
    2866:	689b      	ldr	r3, [r3, #8]
    2868:	1c22      	adds	r2, r4, #0
    286a:	2b00      	cmp	r3, #0
    286c:	d10b      	bne.n	2886 <NVIC_SetVector+0x26>
    286e:	2580      	movs	r5, #128	; 0x80
    2870:	056d      	lsls	r5, r5, #21
    2872:	195a      	adds	r2, r3, r5
    2874:	591d      	ldr	r5, [r3, r4]
    2876:	3304      	adds	r3, #4
    2878:	6015      	str	r5, [r2, #0]
    287a:	2bc0      	cmp	r3, #192	; 0xc0
    287c:	d1f7      	bne.n	286e <NVIC_SetVector+0xe>
    287e:	2280      	movs	r2, #128	; 0x80
    2880:	4b03      	ldr	r3, [pc, #12]	; (2890 <NVIC_SetVector+0x30>)
    2882:	0552      	lsls	r2, r2, #21
    2884:	609a      	str	r2, [r3, #8]
    2886:	3010      	adds	r0, #16
    2888:	0080      	lsls	r0, r0, #2
    288a:	5081      	str	r1, [r0, r2]
    288c:	bd30      	pop	{r4, r5, pc}
    288e:	46c0      	nop			; (mov r8, r8)
    2890:	e000ed00 	.word	0xe000ed00

00002894 <mbed_die>:
    2894:	b500      	push	{lr}
    2896:	b087      	sub	sp, #28
    2898:	b672      	cpsid	i
    289a:	4908      	ldr	r1, [pc, #32]	; (28bc <mbed_die+0x28>)
    289c:	4668      	mov	r0, sp
    289e:	f7ff fa55 	bl	1d4c <gpio_init_out>
    28a2:	9b03      	ldr	r3, [sp, #12]
    28a4:	9a01      	ldr	r2, [sp, #4]
    28a6:	2096      	movs	r0, #150	; 0x96
    28a8:	601a      	str	r2, [r3, #0]
    28aa:	f7ff fa93 	bl	1dd4 <wait_ms>
    28ae:	9b04      	ldr	r3, [sp, #16]
    28b0:	9a01      	ldr	r2, [sp, #4]
    28b2:	2096      	movs	r0, #150	; 0x96
    28b4:	601a      	str	r2, [r3, #0]
    28b6:	f7ff fa8d 	bl	1dd4 <wait_ms>
    28ba:	e7f2      	b.n	28a2 <mbed_die+0xe>
    28bc:	00001470 	.word	0x00001470

000028c0 <us_ticker_irq_handler>:
    28c0:	b508      	push	{r3, lr}
    28c2:	4802      	ldr	r0, [pc, #8]	; (28cc <us_ticker_irq_handler+0xc>)
    28c4:	f000 f8ae 	bl	2a24 <ticker_irq_handler>
    28c8:	bd08      	pop	{r3, pc}
    28ca:	46c0      	nop			; (mov r8, r8)
    28cc:	00007a74 	.word	0x00007a74

000028d0 <mbed::FileLike::~FileLike()>:
    28d0:	4b07      	ldr	r3, [pc, #28]	; (28f0 <mbed::FileLike::~FileLike()+0x20>)
    28d2:	b510      	push	{r4, lr}
    28d4:	1c1a      	adds	r2, r3, #0
    28d6:	3208      	adds	r2, #8
    28d8:	3334      	adds	r3, #52	; 0x34
    28da:	1c04      	adds	r4, r0, #0
    28dc:	6002      	str	r2, [r0, #0]
    28de:	6043      	str	r3, [r0, #4]
    28e0:	3004      	adds	r0, #4
    28e2:	f000 f8c5 	bl	2a70 <mbed::FileBase::~FileBase()>
    28e6:	1c20      	adds	r0, r4, #0
    28e8:	f7ff fa96 	bl	1e18 <mbed::FileHandle::~FileHandle()>
    28ec:	1c20      	adds	r0, r4, #0
    28ee:	bd10      	pop	{r4, pc}
    28f0:	00007a80 	.word	0x00007a80

000028f4 <non-virtual thunk to mbed::FileLike::~FileLike()>:
    28f4:	b408      	push	{r3}
    28f6:	4b02      	ldr	r3, [pc, #8]	; (2900 <non-virtual thunk to mbed::FileLike::~FileLike()+0xc>)
    28f8:	469c      	mov	r12, r3
    28fa:	3804      	subs	r0, #4
    28fc:	bc08      	pop	{r3}
    28fe:	4760      	bx	r12
    2900:	000028d1 	.word	0x000028d1

00002904 <mbed::FileLike::~FileLike()>:
    2904:	4b09      	ldr	r3, [pc, #36]	; (292c <mbed::FileLike::~FileLike()+0x28>)
    2906:	b510      	push	{r4, lr}
    2908:	1c1a      	adds	r2, r3, #0
    290a:	3208      	adds	r2, #8
    290c:	3334      	adds	r3, #52	; 0x34
    290e:	1c04      	adds	r4, r0, #0
    2910:	6002      	str	r2, [r0, #0]
    2912:	6043      	str	r3, [r0, #4]
    2914:	3004      	adds	r0, #4
    2916:	f000 f8ab 	bl	2a70 <mbed::FileBase::~FileBase()>
    291a:	1c20      	adds	r0, r4, #0
    291c:	f7ff fa7c 	bl	1e18 <mbed::FileHandle::~FileHandle()>
    2920:	1c20      	adds	r0, r4, #0
    2922:	f000 f913 	bl	2b4c <operator delete(void*)>
    2926:	1c20      	adds	r0, r4, #0
    2928:	bd10      	pop	{r4, pc}
    292a:	46c0      	nop			; (mov r8, r8)
    292c:	00007a80 	.word	0x00007a80

00002930 <non-virtual thunk to mbed::FileLike::~FileLike()>:
    2930:	b408      	push	{r3}
    2932:	4b02      	ldr	r3, [pc, #8]	; (293c <non-virtual thunk to mbed::FileLike::~FileLike()+0xc>)
    2934:	469c      	mov	r12, r3
    2936:	3804      	subs	r0, #4
    2938:	bc08      	pop	{r3}
    293a:	4760      	bx	r12
    293c:	00002905 	.word	0x00002905

00002940 <mbed::FileLike::FileLike(char const*)>:
    2940:	4b07      	ldr	r3, [pc, #28]	; (2960 <mbed::FileLike::FileLike(char const*)+0x20>)
    2942:	b510      	push	{r4, lr}
    2944:	2200      	movs	r2, #0
    2946:	1c04      	adds	r4, r0, #0
    2948:	c008      	stmia	r0!, {r3}
    294a:	f000 f8cb 	bl	2ae4 <mbed::FileBase::FileBase(char const*, mbed::PathType)>
    294e:	4b05      	ldr	r3, [pc, #20]	; (2964 <mbed::FileLike::FileLike(char const*)+0x24>)
    2950:	1c20      	adds	r0, r4, #0
    2952:	1c1a      	adds	r2, r3, #0
    2954:	3208      	adds	r2, #8
    2956:	3334      	adds	r3, #52	; 0x34
    2958:	6022      	str	r2, [r4, #0]
    295a:	6063      	str	r3, [r4, #4]
    295c:	bd10      	pop	{r4, pc}
    295e:	46c0      	nop			; (mov r8, r8)
    2960:	00007958 	.word	0x00007958
    2964:	00007a80 	.word	0x00007a80

00002968 <mbed::FilePath::FilePath(char const*)>:
    2968:	b538      	push	{r3, r4, r5, lr}
    296a:	2300      	movs	r3, #0
    296c:	6003      	str	r3, [r0, #0]
    296e:	6043      	str	r3, [r0, #4]
    2970:	780b      	ldrb	r3, [r1, #0]
    2972:	1c04      	adds	r4, r0, #0
    2974:	2b2f      	cmp	r3, #47	; 0x2f
    2976:	d001      	beq.n	297c <mbed::FilePath::FilePath(char const*)+0x14>
    2978:	1c20      	adds	r0, r4, #0
    297a:	bd38      	pop	{r3, r4, r5, pc}
    297c:	784b      	ldrb	r3, [r1, #1]
    297e:	2b00      	cmp	r3, #0
    2980:	d0fa      	beq.n	2978 <mbed::FilePath::FilePath(char const*)+0x10>
    2982:	1c48      	adds	r0, r1, #1
    2984:	6020      	str	r0, [r4, #0]
    2986:	784b      	ldrb	r3, [r1, #1]
    2988:	2b2f      	cmp	r3, #47	; 0x2f
    298a:	d014      	beq.n	29b6 <mbed::FilePath::FilePath(char const*)+0x4e>
    298c:	2b00      	cmp	r3, #0
    298e:	d015      	beq.n	29bc <mbed::FilePath::FilePath(char const*)+0x54>
    2990:	1c03      	adds	r3, r0, #0
    2992:	e001      	b.n	2998 <mbed::FilePath::FilePath(char const*)+0x30>
    2994:	2a00      	cmp	r2, #0
    2996:	d00c      	beq.n	29b2 <mbed::FilePath::FilePath(char const*)+0x4a>
    2998:	1a5d      	subs	r5, r3, r1
    299a:	3301      	adds	r3, #1
    299c:	6023      	str	r3, [r4, #0]
    299e:	781a      	ldrb	r2, [r3, #0]
    29a0:	2a2f      	cmp	r2, #47	; 0x2f
    29a2:	d1f7      	bne.n	2994 <mbed::FilePath::FilePath(char const*)+0x2c>
    29a4:	1c29      	adds	r1, r5, #0
    29a6:	3301      	adds	r3, #1
    29a8:	6023      	str	r3, [r4, #0]
    29aa:	f000 f8ad 	bl	2b08 <mbed::FileBase::lookup(char const*, unsigned int)>
    29ae:	6060      	str	r0, [r4, #4]
    29b0:	e7e2      	b.n	2978 <mbed::FilePath::FilePath(char const*)+0x10>
    29b2:	1c29      	adds	r1, r5, #0
    29b4:	e7f9      	b.n	29aa <mbed::FilePath::FilePath(char const*)+0x42>
    29b6:	1c03      	adds	r3, r0, #0
    29b8:	2100      	movs	r1, #0
    29ba:	e7f4      	b.n	29a6 <mbed::FilePath::FilePath(char const*)+0x3e>
    29bc:	2100      	movs	r1, #0
    29be:	e7f4      	b.n	29aa <mbed::FilePath::FilePath(char const*)+0x42>

000029c0 <mbed::FilePath::fileName()>:
    29c0:	6800      	ldr	r0, [r0, #0]
    29c2:	4770      	bx	lr

000029c4 <mbed::FilePath::fileSystem()>:
    29c4:	b510      	push	{r4, lr}
    29c6:	1c04      	adds	r4, r0, #0
    29c8:	6840      	ldr	r0, [r0, #4]
    29ca:	2800      	cmp	r0, #0
    29cc:	d005      	beq.n	29da <mbed::FilePath::fileSystem()+0x16>
    29ce:	f000 f8bb 	bl	2b48 <mbed::FileBase::getPathType()>
    29d2:	2801      	cmp	r0, #1
    29d4:	d101      	bne.n	29da <mbed::FilePath::fileSystem()+0x16>
    29d6:	6860      	ldr	r0, [r4, #4]
    29d8:	bd10      	pop	{r4, pc}
    29da:	2000      	movs	r0, #0
    29dc:	e7fc      	b.n	29d8 <mbed::FilePath::fileSystem()+0x14>
    29de:	46c0      	nop			; (mov r8, r8)

000029e0 <mbed::FilePath::isFile()>:
    29e0:	6840      	ldr	r0, [r0, #4]
    29e2:	b508      	push	{r3, lr}
    29e4:	2800      	cmp	r0, #0
    29e6:	d005      	beq.n	29f4 <mbed::FilePath::isFile()+0x14>
    29e8:	f000 f8ae 	bl	2b48 <mbed::FileBase::getPathType()>
    29ec:	4243      	negs	r3, r0
    29ee:	4158      	adcs	r0, r3
    29f0:	b2c0      	uxtb	r0, r0
    29f2:	bd08      	pop	{r3, pc}
    29f4:	2000      	movs	r0, #0
    29f6:	e7fc      	b.n	29f2 <mbed::FilePath::isFile()+0x12>

000029f8 <mbed::FilePath::file()>:
    29f8:	b510      	push	{r4, lr}
    29fa:	1c04      	adds	r4, r0, #0
    29fc:	6840      	ldr	r0, [r0, #4]
    29fe:	2800      	cmp	r0, #0
    2a00:	d008      	beq.n	2a14 <mbed::FilePath::file()+0x1c>
    2a02:	f000 f8a1 	bl	2b48 <mbed::FileBase::getPathType()>
    2a06:	2800      	cmp	r0, #0
    2a08:	d104      	bne.n	2a14 <mbed::FilePath::file()+0x1c>
    2a0a:	6860      	ldr	r0, [r4, #4]
    2a0c:	2800      	cmp	r0, #0
    2a0e:	d001      	beq.n	2a14 <mbed::FilePath::file()+0x1c>
    2a10:	3804      	subs	r0, #4
    2a12:	bd10      	pop	{r4, pc}
    2a14:	2000      	movs	r0, #0
    2a16:	e7fc      	b.n	2a12 <mbed::FilePath::file()+0x1a>

00002a18 <mbed::FilePath::exists()>:
    2a18:	6840      	ldr	r0, [r0, #4]
    2a1a:	1e43      	subs	r3, r0, #1
    2a1c:	4198      	sbcs	r0, r3
    2a1e:	b2c0      	uxtb	r0, r0
    2a20:	4770      	bx	lr
    2a22:	46c0      	nop			; (mov r8, r8)

00002a24 <ticker_irq_handler>:
    2a24:	b538      	push	{r3, r4, r5, lr}
    2a26:	6803      	ldr	r3, [r0, #0]
    2a28:	1c04      	adds	r4, r0, #0
    2a2a:	68db      	ldr	r3, [r3, #12]
    2a2c:	4798      	blx	r3
    2a2e:	6863      	ldr	r3, [r4, #4]
    2a30:	685b      	ldr	r3, [r3, #4]
    2a32:	e00d      	b.n	2a50 <ticker_irq_handler+0x2c>
    2a34:	681d      	ldr	r5, [r3, #0]
    2a36:	6823      	ldr	r3, [r4, #0]
    2a38:	685b      	ldr	r3, [r3, #4]
    2a3a:	4798      	blx	r3
    2a3c:	1a2d      	subs	r5, r5, r0
    2a3e:	2d00      	cmp	r5, #0
    2a40:	dc0c      	bgt.n	2a5c <ticker_irq_handler+0x38>
    2a42:	6862      	ldr	r2, [r4, #4]
    2a44:	6851      	ldr	r1, [r2, #4]
    2a46:	688b      	ldr	r3, [r1, #8]
    2a48:	6053      	str	r3, [r2, #4]
    2a4a:	6812      	ldr	r2, [r2, #0]
    2a4c:	2a00      	cmp	r2, #0
    2a4e:	d10c      	bne.n	2a6a <ticker_irq_handler+0x46>
    2a50:	2b00      	cmp	r3, #0
    2a52:	d1ef      	bne.n	2a34 <ticker_irq_handler+0x10>
    2a54:	6823      	ldr	r3, [r4, #0]
    2a56:	689b      	ldr	r3, [r3, #8]
    2a58:	4798      	blx	r3
    2a5a:	bd38      	pop	{r3, r4, r5, pc}
    2a5c:	6862      	ldr	r2, [r4, #4]
    2a5e:	6823      	ldr	r3, [r4, #0]
    2a60:	6852      	ldr	r2, [r2, #4]
    2a62:	691b      	ldr	r3, [r3, #16]
    2a64:	6810      	ldr	r0, [r2, #0]
    2a66:	4798      	blx	r3
    2a68:	e7f7      	b.n	2a5a <ticker_irq_handler+0x36>
    2a6a:	6848      	ldr	r0, [r1, #4]
    2a6c:	4790      	blx	r2
    2a6e:	e7de      	b.n	2a2e <ticker_irq_handler+0xa>

00002a70 <mbed::FileBase::~FileBase()>:
    2a70:	4b0a      	ldr	r3, [pc, #40]	; (2a9c <mbed::FileBase::~FileBase()+0x2c>)
    2a72:	6882      	ldr	r2, [r0, #8]
    2a74:	3308      	adds	r3, #8
    2a76:	6003      	str	r3, [r0, #0]
    2a78:	2a00      	cmp	r2, #0
    2a7a:	d00a      	beq.n	2a92 <mbed::FileBase::~FileBase()+0x22>
    2a7c:	4b08      	ldr	r3, [pc, #32]	; (2aa0 <mbed::FileBase::~FileBase()+0x30>)
    2a7e:	681a      	ldr	r2, [r3, #0]
    2a80:	4282      	cmp	r2, r0
    2a82:	d101      	bne.n	2a88 <mbed::FileBase::~FileBase()+0x18>
    2a84:	e006      	b.n	2a94 <mbed::FileBase::~FileBase()+0x24>
    2a86:	1c1a      	adds	r2, r3, #0
    2a88:	6853      	ldr	r3, [r2, #4]
    2a8a:	4283      	cmp	r3, r0
    2a8c:	d1fb      	bne.n	2a86 <mbed::FileBase::~FileBase()+0x16>
    2a8e:	6843      	ldr	r3, [r0, #4]
    2a90:	6053      	str	r3, [r2, #4]
    2a92:	4770      	bx	lr
    2a94:	6842      	ldr	r2, [r0, #4]
    2a96:	601a      	str	r2, [r3, #0]
    2a98:	e7fb      	b.n	2a92 <mbed::FileBase::~FileBase()+0x22>
    2a9a:	46c0      	nop			; (mov r8, r8)
    2a9c:	00007ac0 	.word	0x00007ac0
    2aa0:	10000408 	.word	0x10000408

00002aa4 <mbed::FileBase::~FileBase()>:
    2aa4:	4b0d      	ldr	r3, [pc, #52]	; (2adc <mbed::FileBase::~FileBase()+0x38>)
    2aa6:	6882      	ldr	r2, [r0, #8]
    2aa8:	3308      	adds	r3, #8
    2aaa:	b510      	push	{r4, lr}
    2aac:	1c04      	adds	r4, r0, #0
    2aae:	6003      	str	r3, [r0, #0]
    2ab0:	2a00      	cmp	r2, #0
    2ab2:	d00a      	beq.n	2aca <mbed::FileBase::~FileBase()+0x26>
    2ab4:	4b0a      	ldr	r3, [pc, #40]	; (2ae0 <mbed::FileBase::~FileBase()+0x3c>)
    2ab6:	681a      	ldr	r2, [r3, #0]
    2ab8:	4290      	cmp	r0, r2
    2aba:	d101      	bne.n	2ac0 <mbed::FileBase::~FileBase()+0x1c>
    2abc:	e00a      	b.n	2ad4 <mbed::FileBase::~FileBase()+0x30>
    2abe:	1c1a      	adds	r2, r3, #0
    2ac0:	6853      	ldr	r3, [r2, #4]
    2ac2:	429c      	cmp	r4, r3
    2ac4:	d1fb      	bne.n	2abe <mbed::FileBase::~FileBase()+0x1a>
    2ac6:	6863      	ldr	r3, [r4, #4]
    2ac8:	6053      	str	r3, [r2, #4]
    2aca:	1c20      	adds	r0, r4, #0
    2acc:	f000 f83e 	bl	2b4c <operator delete(void*)>
    2ad0:	1c20      	adds	r0, r4, #0
    2ad2:	bd10      	pop	{r4, pc}
    2ad4:	6842      	ldr	r2, [r0, #4]
    2ad6:	601a      	str	r2, [r3, #0]
    2ad8:	e7f7      	b.n	2aca <mbed::FileBase::~FileBase()+0x26>
    2ada:	46c0      	nop			; (mov r8, r8)
    2adc:	00007ac0 	.word	0x00007ac0
    2ae0:	10000408 	.word	0x10000408

00002ae4 <mbed::FileBase::FileBase(char const*, mbed::PathType)>:
    2ae4:	4b06      	ldr	r3, [pc, #24]	; (2b00 <mbed::FileBase::FileBase(char const*, mbed::PathType)+0x1c>)
    2ae6:	6081      	str	r1, [r0, #8]
    2ae8:	3308      	adds	r3, #8
    2aea:	6003      	str	r3, [r0, #0]
    2aec:	2300      	movs	r3, #0
    2aee:	6043      	str	r3, [r0, #4]
    2af0:	7302      	strb	r2, [r0, #12]
    2af2:	2900      	cmp	r1, #0
    2af4:	d003      	beq.n	2afe <mbed::FileBase::FileBase(char const*, mbed::PathType)+0x1a>
    2af6:	4b03      	ldr	r3, [pc, #12]	; (2b04 <mbed::FileBase::FileBase(char const*, mbed::PathType)+0x20>)
    2af8:	681a      	ldr	r2, [r3, #0]
    2afa:	6018      	str	r0, [r3, #0]
    2afc:	6042      	str	r2, [r0, #4]
    2afe:	4770      	bx	lr
    2b00:	00007ac0 	.word	0x00007ac0
    2b04:	10000408 	.word	0x10000408

00002b08 <mbed::FileBase::lookup(char const*, unsigned int)>:
    2b08:	b5f8      	push	{r3, r4, r5, r6, r7, lr}
    2b0a:	4b0e      	ldr	r3, [pc, #56]	; (2b44 <mbed::FileBase::lookup(char const*, unsigned int)+0x3c>)
    2b0c:	1c07      	adds	r7, r0, #0
    2b0e:	681c      	ldr	r4, [r3, #0]
    2b10:	1c0e      	adds	r6, r1, #0
    2b12:	2c00      	cmp	r4, #0
    2b14:	d011      	beq.n	2b3a <mbed::FileBase::lookup(char const*, unsigned int)+0x32>
    2b16:	68a5      	ldr	r5, [r4, #8]
    2b18:	2d00      	cmp	r5, #0
    2b1a:	d00b      	beq.n	2b34 <mbed::FileBase::lookup(char const*, unsigned int)+0x2c>
    2b1c:	1c28      	adds	r0, r5, #0
    2b1e:	1c39      	adds	r1, r7, #0
    2b20:	1c32      	adds	r2, r6, #0
    2b22:	f003 fbb2 	bl	628a <strncmp>
    2b26:	2800      	cmp	r0, #0
    2b28:	d104      	bne.n	2b34 <mbed::FileBase::lookup(char const*, unsigned int)+0x2c>
    2b2a:	1c28      	adds	r0, r5, #0
    2b2c:	f003 fba6 	bl	627c <strlen>
    2b30:	42b0      	cmp	r0, r6
    2b32:	d004      	beq.n	2b3e <mbed::FileBase::lookup(char const*, unsigned int)+0x36>
    2b34:	6864      	ldr	r4, [r4, #4]
    2b36:	2c00      	cmp	r4, #0
    2b38:	d1ed      	bne.n	2b16 <mbed::FileBase::lookup(char const*, unsigned int)+0xe>
    2b3a:	2000      	movs	r0, #0
    2b3c:	bdf8      	pop	{r3, r4, r5, r6, r7, pc}
    2b3e:	1c20      	adds	r0, r4, #0
    2b40:	e7fc      	b.n	2b3c <mbed::FileBase::lookup(char const*, unsigned int)+0x34>
    2b42:	46c0      	nop			; (mov r8, r8)
    2b44:	10000408 	.word	0x10000408

00002b48 <mbed::FileBase::getPathType()>:
    2b48:	7b00      	ldrb	r0, [r0, #12]
    2b4a:	4770      	bx	lr

00002b4c <operator delete(void*)>:
    2b4c:	b508      	push	{r3, lr}
    2b4e:	2800      	cmp	r0, #0
    2b50:	d001      	beq.n	2b56 <operator delete(void*)+0xa>
    2b52:	f7fe fea9 	bl	18a8 <__wrap_free>
    2b56:	bd08      	pop	{r3, pc}

00002b58 <__aeabi_atexit>:
    2b58:	b508      	push	{r3, lr}
    2b5a:	1c03      	adds	r3, r0, #0
    2b5c:	1c08      	adds	r0, r1, #0
    2b5e:	1c19      	adds	r1, r3, #0
    2b60:	f002 fdcc 	bl	56fc <__cxa_atexit>
    2b64:	bd08      	pop	{r3, pc}
	...

00002b68 <__aeabi_uidiv>:
    2b68:	2900      	cmp	r1, #0
    2b6a:	d034      	beq.n	2bd6 <.udivsi3_skip_div0_test+0x6a>

00002b6c <.udivsi3_skip_div0_test>:
    2b6c:	2301      	movs	r3, #1
    2b6e:	2200      	movs	r2, #0
    2b70:	b410      	push	{r4}
    2b72:	4288      	cmp	r0, r1
    2b74:	d32c      	bcc.n	2bd0 <.udivsi3_skip_div0_test+0x64>
    2b76:	2401      	movs	r4, #1
    2b78:	0724      	lsls	r4, r4, #28
    2b7a:	42a1      	cmp	r1, r4
    2b7c:	d204      	bcs.n	2b88 <.udivsi3_skip_div0_test+0x1c>
    2b7e:	4281      	cmp	r1, r0
    2b80:	d202      	bcs.n	2b88 <.udivsi3_skip_div0_test+0x1c>
    2b82:	0109      	lsls	r1, r1, #4
    2b84:	011b      	lsls	r3, r3, #4
    2b86:	e7f8      	b.n	2b7a <.udivsi3_skip_div0_test+0xe>
    2b88:	00e4      	lsls	r4, r4, #3
    2b8a:	42a1      	cmp	r1, r4
    2b8c:	d204      	bcs.n	2b98 <.udivsi3_skip_div0_test+0x2c>
    2b8e:	4281      	cmp	r1, r0
    2b90:	d202      	bcs.n	2b98 <.udivsi3_skip_div0_test+0x2c>
    2b92:	0049      	lsls	r1, r1, #1
    2b94:	005b      	lsls	r3, r3, #1
    2b96:	e7f8      	b.n	2b8a <.udivsi3_skip_div0_test+0x1e>
    2b98:	4288      	cmp	r0, r1
    2b9a:	d301      	bcc.n	2ba0 <.udivsi3_skip_div0_test+0x34>
    2b9c:	1a40      	subs	r0, r0, r1
    2b9e:	431a      	orrs	r2, r3
    2ba0:	084c      	lsrs	r4, r1, #1
    2ba2:	42a0      	cmp	r0, r4
    2ba4:	d302      	bcc.n	2bac <.udivsi3_skip_div0_test+0x40>
    2ba6:	1b00      	subs	r0, r0, r4
    2ba8:	085c      	lsrs	r4, r3, #1
    2baa:	4322      	orrs	r2, r4
    2bac:	088c      	lsrs	r4, r1, #2
    2bae:	42a0      	cmp	r0, r4
    2bb0:	d302      	bcc.n	2bb8 <.udivsi3_skip_div0_test+0x4c>
    2bb2:	1b00      	subs	r0, r0, r4
    2bb4:	089c      	lsrs	r4, r3, #2
    2bb6:	4322      	orrs	r2, r4
    2bb8:	08cc      	lsrs	r4, r1, #3
    2bba:	42a0      	cmp	r0, r4
    2bbc:	d302      	bcc.n	2bc4 <.udivsi3_skip_div0_test+0x58>
    2bbe:	1b00      	subs	r0, r0, r4
    2bc0:	08dc      	lsrs	r4, r3, #3
    2bc2:	4322      	orrs	r2, r4
    2bc4:	2800      	cmp	r0, #0
    2bc6:	d003      	beq.n	2bd0 <.udivsi3_skip_div0_test+0x64>
    2bc8:	091b      	lsrs	r3, r3, #4
    2bca:	d001      	beq.n	2bd0 <.udivsi3_skip_div0_test+0x64>
    2bcc:	0909      	lsrs	r1, r1, #4
    2bce:	e7e3      	b.n	2b98 <.udivsi3_skip_div0_test+0x2c>
    2bd0:	1c10      	adds	r0, r2, #0
    2bd2:	bc10      	pop	{r4}
    2bd4:	4770      	bx	lr
    2bd6:	2800      	cmp	r0, #0
    2bd8:	d001      	beq.n	2bde <.udivsi3_skip_div0_test+0x72>
    2bda:	2000      	movs	r0, #0
    2bdc:	43c0      	mvns	r0, r0
    2bde:	b407      	push	{r0, r1, r2}
    2be0:	4802      	ldr	r0, [pc, #8]	; (2bec <.udivsi3_skip_div0_test+0x80>)
    2be2:	a102      	add	r1, pc, #8	; (adr r1, 2bec <.udivsi3_skip_div0_test+0x80>)
    2be4:	1840      	adds	r0, r0, r1
    2be6:	9002      	str	r0, [sp, #8]
    2be8:	bd03      	pop	{r0, r1, pc}
    2bea:	46c0      	nop			; (mov r8, r8)
    2bec:	00000019 	.word	0x00000019

00002bf0 <__aeabi_uidivmod>:
    2bf0:	2900      	cmp	r1, #0
    2bf2:	d0f0      	beq.n	2bd6 <.udivsi3_skip_div0_test+0x6a>
    2bf4:	b503      	push	{r0, r1, lr}
    2bf6:	f7ff ffb9 	bl	2b6c <.udivsi3_skip_div0_test>
    2bfa:	bc0e      	pop	{r1, r2, r3}
    2bfc:	4342      	muls	r2, r0
    2bfe:	1a89      	subs	r1, r1, r2
    2c00:	4718      	bx	r3
    2c02:	46c0      	nop			; (mov r8, r8)

00002c04 <__aeabi_idiv0>:
    2c04:	4770      	bx	lr
    2c06:	46c0      	nop			; (mov r8, r8)

00002c08 <__aeabi_cdrcmple>:
    2c08:	4684      	mov	r12, r0
    2c0a:	1c10      	adds	r0, r2, #0
    2c0c:	4662      	mov	r2, r12
    2c0e:	468c      	mov	r12, r1
    2c10:	1c19      	adds	r1, r3, #0
    2c12:	4663      	mov	r3, r12
    2c14:	e000      	b.n	2c18 <__aeabi_cdcmpeq>
    2c16:	46c0      	nop			; (mov r8, r8)

00002c18 <__aeabi_cdcmpeq>:
    2c18:	b51f      	push	{r0, r1, r2, r3, r4, lr}
    2c1a:	f001 fe3b 	bl	4894 <__ledf2>
    2c1e:	2800      	cmp	r0, #0
    2c20:	d401      	bmi.n	2c26 <__aeabi_cdcmpeq+0xe>
    2c22:	2100      	movs	r1, #0
    2c24:	42c8      	cmn	r0, r1
    2c26:	bd1f      	pop	{r0, r1, r2, r3, r4, pc}

00002c28 <__aeabi_dcmpeq>:
    2c28:	b510      	push	{r4, lr}
    2c2a:	f001 fd6b 	bl	4704 <__eqdf2>
    2c2e:	4240      	negs	r0, r0
    2c30:	3001      	adds	r0, #1
    2c32:	bd10      	pop	{r4, pc}

00002c34 <__aeabi_dcmplt>:
    2c34:	b510      	push	{r4, lr}
    2c36:	f001 fe2d 	bl	4894 <__ledf2>
    2c3a:	2800      	cmp	r0, #0
    2c3c:	db01      	blt.n	2c42 <__aeabi_dcmplt+0xe>
    2c3e:	2000      	movs	r0, #0
    2c40:	bd10      	pop	{r4, pc}
    2c42:	2001      	movs	r0, #1
    2c44:	bd10      	pop	{r4, pc}
    2c46:	46c0      	nop			; (mov r8, r8)

00002c48 <__aeabi_dcmple>:
    2c48:	b510      	push	{r4, lr}
    2c4a:	f001 fe23 	bl	4894 <__ledf2>
    2c4e:	2800      	cmp	r0, #0
    2c50:	dd01      	ble.n	2c56 <__aeabi_dcmple+0xe>
    2c52:	2000      	movs	r0, #0
    2c54:	bd10      	pop	{r4, pc}
    2c56:	2001      	movs	r0, #1
    2c58:	bd10      	pop	{r4, pc}
    2c5a:	46c0      	nop			; (mov r8, r8)

00002c5c <__aeabi_dcmpgt>:
    2c5c:	b510      	push	{r4, lr}
    2c5e:	f001 fd9b 	bl	4798 <__gedf2>
    2c62:	2800      	cmp	r0, #0
    2c64:	dc01      	bgt.n	2c6a <__aeabi_dcmpgt+0xe>
    2c66:	2000      	movs	r0, #0
    2c68:	bd10      	pop	{r4, pc}
    2c6a:	2001      	movs	r0, #1
    2c6c:	bd10      	pop	{r4, pc}
    2c6e:	46c0      	nop			; (mov r8, r8)

00002c70 <__aeabi_dcmpge>:
    2c70:	b510      	push	{r4, lr}
    2c72:	f001 fd91 	bl	4798 <__gedf2>
    2c76:	2800      	cmp	r0, #0
    2c78:	da01      	bge.n	2c7e <__aeabi_dcmpge+0xe>
    2c7a:	2000      	movs	r0, #0
    2c7c:	bd10      	pop	{r4, pc}
    2c7e:	2001      	movs	r0, #1
    2c80:	bd10      	pop	{r4, pc}
    2c82:	46c0      	nop			; (mov r8, r8)

00002c84 <__aeabi_cfrcmple>:
    2c84:	4684      	mov	r12, r0
    2c86:	1c08      	adds	r0, r1, #0
    2c88:	4661      	mov	r1, r12
    2c8a:	e7ff      	b.n	2c8c <__aeabi_cfcmpeq>

00002c8c <__aeabi_cfcmpeq>:
    2c8c:	b51f      	push	{r0, r1, r2, r3, r4, lr}
    2c8e:	f000 fb47 	bl	3320 <__lesf2>
    2c92:	2800      	cmp	r0, #0
    2c94:	d401      	bmi.n	2c9a <__aeabi_cfcmpeq+0xe>
    2c96:	2100      	movs	r1, #0
    2c98:	42c8      	cmn	r0, r1
    2c9a:	bd1f      	pop	{r0, r1, r2, r3, r4, pc}

00002c9c <__aeabi_fcmpeq>:
    2c9c:	b510      	push	{r4, lr}
    2c9e:	f000 facd 	bl	323c <__eqsf2>
    2ca2:	4240      	negs	r0, r0
    2ca4:	3001      	adds	r0, #1
    2ca6:	bd10      	pop	{r4, pc}

00002ca8 <__aeabi_fcmplt>:
    2ca8:	b510      	push	{r4, lr}
    2caa:	f000 fb39 	bl	3320 <__lesf2>
    2cae:	2800      	cmp	r0, #0
    2cb0:	db01      	blt.n	2cb6 <__aeabi_fcmplt+0xe>
    2cb2:	2000      	movs	r0, #0
    2cb4:	bd10      	pop	{r4, pc}
    2cb6:	2001      	movs	r0, #1
    2cb8:	bd10      	pop	{r4, pc}
    2cba:	46c0      	nop			; (mov r8, r8)

00002cbc <__aeabi_fcmple>:
    2cbc:	b510      	push	{r4, lr}
    2cbe:	f000 fb2f 	bl	3320 <__lesf2>
    2cc2:	2800      	cmp	r0, #0
    2cc4:	dd01      	ble.n	2cca <__aeabi_fcmple+0xe>
    2cc6:	2000      	movs	r0, #0
    2cc8:	bd10      	pop	{r4, pc}
    2cca:	2001      	movs	r0, #1
    2ccc:	bd10      	pop	{r4, pc}
    2cce:	46c0      	nop			; (mov r8, r8)

00002cd0 <__aeabi_fcmpgt>:
    2cd0:	b510      	push	{r4, lr}
    2cd2:	f000 fadd 	bl	3290 <__gesf2>
    2cd6:	2800      	cmp	r0, #0
    2cd8:	dc01      	bgt.n	2cde <__aeabi_fcmpgt+0xe>
    2cda:	2000      	movs	r0, #0
    2cdc:	bd10      	pop	{r4, pc}
    2cde:	2001      	movs	r0, #1
    2ce0:	bd10      	pop	{r4, pc}
    2ce2:	46c0      	nop			; (mov r8, r8)

00002ce4 <__aeabi_fcmpge>:
    2ce4:	b510      	push	{r4, lr}
    2ce6:	f000 fad3 	bl	3290 <__gesf2>
    2cea:	2800      	cmp	r0, #0
    2cec:	da01      	bge.n	2cf2 <__aeabi_fcmpge+0xe>
    2cee:	2000      	movs	r0, #0
    2cf0:	bd10      	pop	{r4, pc}
    2cf2:	2001      	movs	r0, #1
    2cf4:	bd10      	pop	{r4, pc}
    2cf6:	46c0      	nop			; (mov r8, r8)

00002cf8 <__aeabi_f2uiz>:
    2cf8:	219e      	movs	r1, #158	; 0x9e
    2cfa:	b510      	push	{r4, lr}
    2cfc:	05c9      	lsls	r1, r1, #23
    2cfe:	1c04      	adds	r4, r0, #0
    2d00:	f7ff fff0 	bl	2ce4 <__aeabi_fcmpge>
    2d04:	2800      	cmp	r0, #0
    2d06:	d103      	bne.n	2d10 <__aeabi_f2uiz+0x18>
    2d08:	1c20      	adds	r0, r4, #0
    2d0a:	f000 fdef 	bl	38ec <__aeabi_f2iz>
    2d0e:	bd10      	pop	{r4, pc}
    2d10:	219e      	movs	r1, #158	; 0x9e
    2d12:	05c9      	lsls	r1, r1, #23
    2d14:	1c20      	adds	r0, r4, #0
    2d16:	f000 fc79 	bl	360c <__aeabi_fsub>
    2d1a:	f000 fde7 	bl	38ec <__aeabi_f2iz>
    2d1e:	2380      	movs	r3, #128	; 0x80
    2d20:	061b      	lsls	r3, r3, #24
    2d22:	18c0      	adds	r0, r0, r3
    2d24:	e7f3      	b.n	2d0e <__aeabi_f2uiz+0x16>
    2d26:	46c0      	nop			; (mov r8, r8)

00002d28 <__aeabi_fadd>:
    2d28:	b5f8      	push	{r3, r4, r5, r6, r7, lr}
    2d2a:	0243      	lsls	r3, r0, #9
    2d2c:	0044      	lsls	r4, r0, #1
    2d2e:	0fc5      	lsrs	r5, r0, #31
    2d30:	024e      	lsls	r6, r1, #9
    2d32:	0048      	lsls	r0, r1, #1
    2d34:	0e24      	lsrs	r4, r4, #24
    2d36:	1c2a      	adds	r2, r5, #0
    2d38:	099b      	lsrs	r3, r3, #6
    2d3a:	0e00      	lsrs	r0, r0, #24
    2d3c:	0fc9      	lsrs	r1, r1, #31
    2d3e:	09b6      	lsrs	r6, r6, #6
    2d40:	428d      	cmp	r5, r1
    2d42:	d056      	beq.n	2df2 <__aeabi_fadd+0xca>
    2d44:	1a22      	subs	r2, r4, r0
    2d46:	2a00      	cmp	r2, #0
    2d48:	dc00      	bgt.n	2d4c <__aeabi_fadd+0x24>
    2d4a:	e083      	b.n	2e54 <__aeabi_fadd+0x12c>
    2d4c:	2800      	cmp	r0, #0
    2d4e:	d11a      	bne.n	2d86 <__aeabi_fadd+0x5e>
    2d50:	2e00      	cmp	r6, #0
    2d52:	d000      	beq.n	2d56 <__aeabi_fadd+0x2e>
    2d54:	e06f      	b.n	2e36 <__aeabi_fadd+0x10e>
    2d56:	0758      	lsls	r0, r3, #29
    2d58:	d004      	beq.n	2d64 <__aeabi_fadd+0x3c>
    2d5a:	220f      	movs	r2, #15
    2d5c:	401a      	ands	r2, r3
    2d5e:	2a04      	cmp	r2, #4
    2d60:	d000      	beq.n	2d64 <__aeabi_fadd+0x3c>
    2d62:	3304      	adds	r3, #4
    2d64:	0159      	lsls	r1, r3, #5
    2d66:	d537      	bpl.n	2dd8 <__aeabi_fadd+0xb0>
    2d68:	3401      	adds	r4, #1
    2d6a:	2cff      	cmp	r4, #255	; 0xff
    2d6c:	d100      	bne.n	2d70 <__aeabi_fadd+0x48>
    2d6e:	e07d      	b.n	2e6c <__aeabi_fadd+0x144>
    2d70:	019b      	lsls	r3, r3, #6
    2d72:	0a5b      	lsrs	r3, r3, #9
    2d74:	b2e0      	uxtb	r0, r4
    2d76:	1c2a      	adds	r2, r5, #0
    2d78:	025b      	lsls	r3, r3, #9
    2d7a:	05c4      	lsls	r4, r0, #23
    2d7c:	0a58      	lsrs	r0, r3, #9
    2d7e:	07d2      	lsls	r2, r2, #31
    2d80:	4320      	orrs	r0, r4
    2d82:	4310      	orrs	r0, r2
    2d84:	bdf8      	pop	{r3, r4, r5, r6, r7, pc}
    2d86:	2cff      	cmp	r4, #255	; 0xff
    2d88:	d0e5      	beq.n	2d56 <__aeabi_fadd+0x2e>
    2d8a:	2180      	movs	r1, #128	; 0x80
    2d8c:	04c9      	lsls	r1, r1, #19
    2d8e:	430e      	orrs	r6, r1
    2d90:	2a1b      	cmp	r2, #27
    2d92:	dd00      	ble.n	2d96 <__aeabi_fadd+0x6e>
    2d94:	e127      	b.n	2fe6 <__aeabi_fadd+0x2be>
    2d96:	1c31      	adds	r1, r6, #0
    2d98:	2020      	movs	r0, #32
    2d9a:	40d1      	lsrs	r1, r2
    2d9c:	1a82      	subs	r2, r0, r2
    2d9e:	4096      	lsls	r6, r2
    2da0:	1e72      	subs	r2, r6, #1
    2da2:	4196      	sbcs	r6, r2
    2da4:	430e      	orrs	r6, r1
    2da6:	1b9b      	subs	r3, r3, r6
    2da8:	0158      	lsls	r0, r3, #5
    2daa:	d5d4      	bpl.n	2d56 <__aeabi_fadd+0x2e>
    2dac:	019b      	lsls	r3, r3, #6
    2dae:	099f      	lsrs	r7, r3, #6
    2db0:	1c38      	adds	r0, r7, #0
    2db2:	f002 fc85 	bl	56c0 <__clzsi2>
    2db6:	1f42      	subs	r2, r0, #5
    2db8:	4097      	lsls	r7, r2
    2dba:	4294      	cmp	r4, r2
    2dbc:	dc5a      	bgt.n	2e74 <__aeabi_fadd+0x14c>
    2dbe:	1b14      	subs	r4, r2, r4
    2dc0:	231f      	movs	r3, #31
    2dc2:	1b1b      	subs	r3, r3, r4
    2dc4:	1c3a      	adds	r2, r7, #0
    2dc6:	409f      	lsls	r7, r3
    2dc8:	1c61      	adds	r1, r4, #1
    2dca:	1c3b      	adds	r3, r7, #0
    2dcc:	40ca      	lsrs	r2, r1
    2dce:	1e5f      	subs	r7, r3, #1
    2dd0:	41bb      	sbcs	r3, r7
    2dd2:	4313      	orrs	r3, r2
    2dd4:	2400      	movs	r4, #0
    2dd6:	e7be      	b.n	2d56 <__aeabi_fadd+0x2e>
    2dd8:	08db      	lsrs	r3, r3, #3
    2dda:	b2e0      	uxtb	r0, r4
    2ddc:	1c2a      	adds	r2, r5, #0
    2dde:	2cff      	cmp	r4, #255	; 0xff
    2de0:	d104      	bne.n	2dec <__aeabi_fadd+0xc4>
    2de2:	2b00      	cmp	r3, #0
    2de4:	d079      	beq.n	2eda <__aeabi_fadd+0x1b2>
    2de6:	2180      	movs	r1, #128	; 0x80
    2de8:	03c9      	lsls	r1, r1, #15
    2dea:	430b      	orrs	r3, r1
    2dec:	025b      	lsls	r3, r3, #9
    2dee:	0a5b      	lsrs	r3, r3, #9
    2df0:	e7c2      	b.n	2d78 <__aeabi_fadd+0x50>
    2df2:	1a21      	subs	r1, r4, r0
    2df4:	2900      	cmp	r1, #0
    2df6:	dd41      	ble.n	2e7c <__aeabi_fadd+0x154>
    2df8:	2800      	cmp	r0, #0
    2dfa:	d022      	beq.n	2e42 <__aeabi_fadd+0x11a>
    2dfc:	2cff      	cmp	r4, #255	; 0xff
    2dfe:	d0aa      	beq.n	2d56 <__aeabi_fadd+0x2e>
    2e00:	2080      	movs	r0, #128	; 0x80
    2e02:	04c0      	lsls	r0, r0, #19
    2e04:	4306      	orrs	r6, r0
    2e06:	291b      	cmp	r1, #27
    2e08:	dd00      	ble.n	2e0c <__aeabi_fadd+0xe4>
    2e0a:	e0ea      	b.n	2fe2 <__aeabi_fadd+0x2ba>
    2e0c:	1c30      	adds	r0, r6, #0
    2e0e:	2720      	movs	r7, #32
    2e10:	40c8      	lsrs	r0, r1
    2e12:	1a79      	subs	r1, r7, r1
    2e14:	408e      	lsls	r6, r1
    2e16:	1e71      	subs	r1, r6, #1
    2e18:	418e      	sbcs	r6, r1
    2e1a:	4306      	orrs	r6, r0
    2e1c:	199b      	adds	r3, r3, r6
    2e1e:	0159      	lsls	r1, r3, #5
    2e20:	d599      	bpl.n	2d56 <__aeabi_fadd+0x2e>
    2e22:	3401      	adds	r4, #1
    2e24:	2cff      	cmp	r4, #255	; 0xff
    2e26:	d057      	beq.n	2ed8 <__aeabi_fadd+0x1b0>
    2e28:	4970      	ldr	r1, [pc, #448]	; (2fec <__aeabi_fadd+0x2c4>)
    2e2a:	2201      	movs	r2, #1
    2e2c:	401a      	ands	r2, r3
    2e2e:	400b      	ands	r3, r1
    2e30:	085b      	lsrs	r3, r3, #1
    2e32:	4313      	orrs	r3, r2
    2e34:	e78f      	b.n	2d56 <__aeabi_fadd+0x2e>
    2e36:	3a01      	subs	r2, #1
    2e38:	2a00      	cmp	r2, #0
    2e3a:	d0b4      	beq.n	2da6 <__aeabi_fadd+0x7e>
    2e3c:	2cff      	cmp	r4, #255	; 0xff
    2e3e:	d1a7      	bne.n	2d90 <__aeabi_fadd+0x68>
    2e40:	e789      	b.n	2d56 <__aeabi_fadd+0x2e>
    2e42:	2e00      	cmp	r6, #0
    2e44:	d100      	bne.n	2e48 <__aeabi_fadd+0x120>
    2e46:	e786      	b.n	2d56 <__aeabi_fadd+0x2e>
    2e48:	3901      	subs	r1, #1
    2e4a:	2900      	cmp	r1, #0
    2e4c:	d0e6      	beq.n	2e1c <__aeabi_fadd+0xf4>
    2e4e:	2cff      	cmp	r4, #255	; 0xff
    2e50:	d1d9      	bne.n	2e06 <__aeabi_fadd+0xde>
    2e52:	e780      	b.n	2d56 <__aeabi_fadd+0x2e>
    2e54:	2a00      	cmp	r2, #0
    2e56:	d11d      	bne.n	2e94 <__aeabi_fadd+0x16c>
    2e58:	1c62      	adds	r2, r4, #1
    2e5a:	b2d2      	uxtb	r2, r2
    2e5c:	2a01      	cmp	r2, #1
    2e5e:	dd4d      	ble.n	2efc <__aeabi_fadd+0x1d4>
    2e60:	1b9f      	subs	r7, r3, r6
    2e62:	017a      	lsls	r2, r7, #5
    2e64:	d525      	bpl.n	2eb2 <__aeabi_fadd+0x18a>
    2e66:	1af7      	subs	r7, r6, r3
    2e68:	1c0d      	adds	r5, r1, #0
    2e6a:	e7a1      	b.n	2db0 <__aeabi_fadd+0x88>
    2e6c:	1c2a      	adds	r2, r5, #0
    2e6e:	20ff      	movs	r0, #255	; 0xff
    2e70:	2300      	movs	r3, #0
    2e72:	e781      	b.n	2d78 <__aeabi_fadd+0x50>
    2e74:	4b5d      	ldr	r3, [pc, #372]	; (2fec <__aeabi_fadd+0x2c4>)
    2e76:	1aa4      	subs	r4, r4, r2
    2e78:	403b      	ands	r3, r7
    2e7a:	e76c      	b.n	2d56 <__aeabi_fadd+0x2e>
    2e7c:	2900      	cmp	r1, #0
    2e7e:	d146      	bne.n	2f0e <__aeabi_fadd+0x1e6>
    2e80:	1c61      	adds	r1, r4, #1
    2e82:	b2c8      	uxtb	r0, r1
    2e84:	2801      	cmp	r0, #1
    2e86:	dd2a      	ble.n	2ede <__aeabi_fadd+0x1b6>
    2e88:	29ff      	cmp	r1, #255	; 0xff
    2e8a:	d025      	beq.n	2ed8 <__aeabi_fadd+0x1b0>
    2e8c:	18f3      	adds	r3, r6, r3
    2e8e:	085b      	lsrs	r3, r3, #1
    2e90:	1c0c      	adds	r4, r1, #0
    2e92:	e760      	b.n	2d56 <__aeabi_fadd+0x2e>
    2e94:	2c00      	cmp	r4, #0
    2e96:	d013      	beq.n	2ec0 <__aeabi_fadd+0x198>
    2e98:	28ff      	cmp	r0, #255	; 0xff
    2e9a:	d018      	beq.n	2ece <__aeabi_fadd+0x1a6>
    2e9c:	2480      	movs	r4, #128	; 0x80
    2e9e:	04e4      	lsls	r4, r4, #19
    2ea0:	4252      	negs	r2, r2
    2ea2:	4323      	orrs	r3, r4
    2ea4:	2a1b      	cmp	r2, #27
    2ea6:	dd4d      	ble.n	2f44 <__aeabi_fadd+0x21c>
    2ea8:	2301      	movs	r3, #1
    2eaa:	1af3      	subs	r3, r6, r3
    2eac:	1c04      	adds	r4, r0, #0
    2eae:	1c0d      	adds	r5, r1, #0
    2eb0:	e77a      	b.n	2da8 <__aeabi_fadd+0x80>
    2eb2:	2f00      	cmp	r7, #0
    2eb4:	d000      	beq.n	2eb8 <__aeabi_fadd+0x190>
    2eb6:	e77b      	b.n	2db0 <__aeabi_fadd+0x88>
    2eb8:	2200      	movs	r2, #0
    2eba:	2000      	movs	r0, #0
    2ebc:	2300      	movs	r3, #0
    2ebe:	e795      	b.n	2dec <__aeabi_fadd+0xc4>
    2ec0:	2b00      	cmp	r3, #0
    2ec2:	d03b      	beq.n	2f3c <__aeabi_fadd+0x214>
    2ec4:	43d2      	mvns	r2, r2
    2ec6:	2a00      	cmp	r2, #0
    2ec8:	d0ef      	beq.n	2eaa <__aeabi_fadd+0x182>
    2eca:	28ff      	cmp	r0, #255	; 0xff
    2ecc:	d1ea      	bne.n	2ea4 <__aeabi_fadd+0x17c>
    2ece:	1c33      	adds	r3, r6, #0
    2ed0:	24ff      	movs	r4, #255	; 0xff
    2ed2:	1c0d      	adds	r5, r1, #0
    2ed4:	e73f      	b.n	2d56 <__aeabi_fadd+0x2e>
    2ed6:	2200      	movs	r2, #0
    2ed8:	20ff      	movs	r0, #255	; 0xff
    2eda:	2300      	movs	r3, #0
    2edc:	e74c      	b.n	2d78 <__aeabi_fadd+0x50>
    2ede:	2c00      	cmp	r4, #0
    2ee0:	d15a      	bne.n	2f98 <__aeabi_fadd+0x270>
    2ee2:	2b00      	cmp	r3, #0
    2ee4:	d077      	beq.n	2fd6 <__aeabi_fadd+0x2ae>
    2ee6:	2e00      	cmp	r6, #0
    2ee8:	d100      	bne.n	2eec <__aeabi_fadd+0x1c4>
    2eea:	e734      	b.n	2d56 <__aeabi_fadd+0x2e>
    2eec:	199b      	adds	r3, r3, r6
    2eee:	0158      	lsls	r0, r3, #5
    2ef0:	d400      	bmi.n	2ef4 <__aeabi_fadd+0x1cc>
    2ef2:	e730      	b.n	2d56 <__aeabi_fadd+0x2e>
    2ef4:	4a3d      	ldr	r2, [pc, #244]	; (2fec <__aeabi_fadd+0x2c4>)
    2ef6:	2401      	movs	r4, #1
    2ef8:	4013      	ands	r3, r2
    2efa:	e72c      	b.n	2d56 <__aeabi_fadd+0x2e>
    2efc:	2c00      	cmp	r4, #0
    2efe:	d115      	bne.n	2f2c <__aeabi_fadd+0x204>
    2f00:	2b00      	cmp	r3, #0
    2f02:	d12f      	bne.n	2f64 <__aeabi_fadd+0x23c>
    2f04:	2e00      	cmp	r6, #0
    2f06:	d0d7      	beq.n	2eb8 <__aeabi_fadd+0x190>
    2f08:	1c33      	adds	r3, r6, #0
    2f0a:	1c0d      	adds	r5, r1, #0
    2f0c:	e723      	b.n	2d56 <__aeabi_fadd+0x2e>
    2f0e:	2c00      	cmp	r4, #0
    2f10:	d121      	bne.n	2f56 <__aeabi_fadd+0x22e>
    2f12:	2b00      	cmp	r3, #0
    2f14:	d053      	beq.n	2fbe <__aeabi_fadd+0x296>
    2f16:	43c9      	mvns	r1, r1
    2f18:	2900      	cmp	r1, #0
    2f1a:	d004      	beq.n	2f26 <__aeabi_fadd+0x1fe>
    2f1c:	28ff      	cmp	r0, #255	; 0xff
    2f1e:	d04b      	beq.n	2fb8 <__aeabi_fadd+0x290>
    2f20:	291b      	cmp	r1, #27
    2f22:	dd4f      	ble.n	2fc4 <__aeabi_fadd+0x29c>
    2f24:	2301      	movs	r3, #1
    2f26:	199b      	adds	r3, r3, r6
    2f28:	1c04      	adds	r4, r0, #0
    2f2a:	e778      	b.n	2e1e <__aeabi_fadd+0xf6>
    2f2c:	2b00      	cmp	r3, #0
    2f2e:	d122      	bne.n	2f76 <__aeabi_fadd+0x24e>
    2f30:	2e00      	cmp	r6, #0
    2f32:	d0d0      	beq.n	2ed6 <__aeabi_fadd+0x1ae>
    2f34:	1c33      	adds	r3, r6, #0
    2f36:	1c0d      	adds	r5, r1, #0
    2f38:	24ff      	movs	r4, #255	; 0xff
    2f3a:	e70c      	b.n	2d56 <__aeabi_fadd+0x2e>
    2f3c:	1c33      	adds	r3, r6, #0
    2f3e:	1c04      	adds	r4, r0, #0
    2f40:	1c0d      	adds	r5, r1, #0
    2f42:	e708      	b.n	2d56 <__aeabi_fadd+0x2e>
    2f44:	1c1c      	adds	r4, r3, #0
    2f46:	2520      	movs	r5, #32
    2f48:	40d4      	lsrs	r4, r2
    2f4a:	1aaa      	subs	r2, r5, r2
    2f4c:	4093      	lsls	r3, r2
    2f4e:	1e5a      	subs	r2, r3, #1
    2f50:	4193      	sbcs	r3, r2
    2f52:	4323      	orrs	r3, r4
    2f54:	e7a9      	b.n	2eaa <__aeabi_fadd+0x182>
    2f56:	28ff      	cmp	r0, #255	; 0xff
    2f58:	d02e      	beq.n	2fb8 <__aeabi_fadd+0x290>
    2f5a:	2480      	movs	r4, #128	; 0x80
    2f5c:	04e4      	lsls	r4, r4, #19
    2f5e:	4249      	negs	r1, r1
    2f60:	4323      	orrs	r3, r4
    2f62:	e7dd      	b.n	2f20 <__aeabi_fadd+0x1f8>
    2f64:	2e00      	cmp	r6, #0
    2f66:	d100      	bne.n	2f6a <__aeabi_fadd+0x242>
    2f68:	e6f5      	b.n	2d56 <__aeabi_fadd+0x2e>
    2f6a:	1b9a      	subs	r2, r3, r6
    2f6c:	0150      	lsls	r0, r2, #5
    2f6e:	d534      	bpl.n	2fda <__aeabi_fadd+0x2b2>
    2f70:	1af3      	subs	r3, r6, r3
    2f72:	1c0d      	adds	r5, r1, #0
    2f74:	e6ef      	b.n	2d56 <__aeabi_fadd+0x2e>
    2f76:	24ff      	movs	r4, #255	; 0xff
    2f78:	2e00      	cmp	r6, #0
    2f7a:	d100      	bne.n	2f7e <__aeabi_fadd+0x256>
    2f7c:	e6eb      	b.n	2d56 <__aeabi_fadd+0x2e>
    2f7e:	2280      	movs	r2, #128	; 0x80
    2f80:	08db      	lsrs	r3, r3, #3
    2f82:	03d2      	lsls	r2, r2, #15
    2f84:	4213      	tst	r3, r2
    2f86:	d004      	beq.n	2f92 <__aeabi_fadd+0x26a>
    2f88:	08f6      	lsrs	r6, r6, #3
    2f8a:	4216      	tst	r6, r2
    2f8c:	d101      	bne.n	2f92 <__aeabi_fadd+0x26a>
    2f8e:	1c33      	adds	r3, r6, #0
    2f90:	1c0d      	adds	r5, r1, #0
    2f92:	00db      	lsls	r3, r3, #3
    2f94:	24ff      	movs	r4, #255	; 0xff
    2f96:	e6de      	b.n	2d56 <__aeabi_fadd+0x2e>
    2f98:	2b00      	cmp	r3, #0
    2f9a:	d00d      	beq.n	2fb8 <__aeabi_fadd+0x290>
    2f9c:	24ff      	movs	r4, #255	; 0xff
    2f9e:	2e00      	cmp	r6, #0
    2fa0:	d100      	bne.n	2fa4 <__aeabi_fadd+0x27c>
    2fa2:	e6d8      	b.n	2d56 <__aeabi_fadd+0x2e>
    2fa4:	2280      	movs	r2, #128	; 0x80
    2fa6:	08db      	lsrs	r3, r3, #3
    2fa8:	03d2      	lsls	r2, r2, #15
    2faa:	4213      	tst	r3, r2
    2fac:	d0f1      	beq.n	2f92 <__aeabi_fadd+0x26a>
    2fae:	08f6      	lsrs	r6, r6, #3
    2fb0:	4216      	tst	r6, r2
    2fb2:	d1ee      	bne.n	2f92 <__aeabi_fadd+0x26a>
    2fb4:	1c33      	adds	r3, r6, #0
    2fb6:	e7ec      	b.n	2f92 <__aeabi_fadd+0x26a>
    2fb8:	1c33      	adds	r3, r6, #0
    2fba:	24ff      	movs	r4, #255	; 0xff
    2fbc:	e6cb      	b.n	2d56 <__aeabi_fadd+0x2e>
    2fbe:	1c33      	adds	r3, r6, #0
    2fc0:	1c04      	adds	r4, r0, #0
    2fc2:	e6c8      	b.n	2d56 <__aeabi_fadd+0x2e>
    2fc4:	1c1c      	adds	r4, r3, #0
    2fc6:	2720      	movs	r7, #32
    2fc8:	40cc      	lsrs	r4, r1
    2fca:	1a79      	subs	r1, r7, r1
    2fcc:	408b      	lsls	r3, r1
    2fce:	1e59      	subs	r1, r3, #1
    2fd0:	418b      	sbcs	r3, r1
    2fd2:	4323      	orrs	r3, r4
    2fd4:	e7a7      	b.n	2f26 <__aeabi_fadd+0x1fe>
    2fd6:	1c33      	adds	r3, r6, #0
    2fd8:	e6bd      	b.n	2d56 <__aeabi_fadd+0x2e>
    2fda:	1e13      	subs	r3, r2, #0
    2fdc:	d000      	beq.n	2fe0 <__aeabi_fadd+0x2b8>
    2fde:	e6ba      	b.n	2d56 <__aeabi_fadd+0x2e>
    2fe0:	e76a      	b.n	2eb8 <__aeabi_fadd+0x190>
    2fe2:	2601      	movs	r6, #1
    2fe4:	e71a      	b.n	2e1c <__aeabi_fadd+0xf4>
    2fe6:	2601      	movs	r6, #1
    2fe8:	e6dd      	b.n	2da6 <__aeabi_fadd+0x7e>
    2fea:	46c0      	nop			; (mov r8, r8)
    2fec:	fbffffff 	.word	0xfbffffff

00002ff0 <__aeabi_fdiv>:
    2ff0:	b5f0      	push	{r4, r5, r6, r7, lr}
    2ff2:	465f      	mov	r7, r11
    2ff4:	4656      	mov	r6, r10
    2ff6:	464d      	mov	r5, r9
    2ff8:	4644      	mov	r4, r8
    2ffa:	b4f0      	push	{r4, r5, r6, r7}
    2ffc:	0246      	lsls	r6, r0, #9
    2ffe:	0045      	lsls	r5, r0, #1
    3000:	0fc0      	lsrs	r0, r0, #31
    3002:	b085      	sub	sp, #20
    3004:	1c0f      	adds	r7, r1, #0
    3006:	0a76      	lsrs	r6, r6, #9
    3008:	0e2d      	lsrs	r5, r5, #24
    300a:	4680      	mov	r8, r0
    300c:	d041      	beq.n	3092 <__aeabi_fdiv+0xa2>
    300e:	2dff      	cmp	r5, #255	; 0xff
    3010:	d026      	beq.n	3060 <__aeabi_fdiv+0x70>
    3012:	2480      	movs	r4, #128	; 0x80
    3014:	0424      	lsls	r4, r4, #16
    3016:	2100      	movs	r1, #0
    3018:	4326      	orrs	r6, r4
    301a:	00f6      	lsls	r6, r6, #3
    301c:	3d7f      	subs	r5, #127	; 0x7f
    301e:	4689      	mov	r9, r1
    3020:	468b      	mov	r11, r1
    3022:	0ff9      	lsrs	r1, r7, #31
    3024:	027c      	lsls	r4, r7, #9
    3026:	0078      	lsls	r0, r7, #1
    3028:	0a64      	lsrs	r4, r4, #9
    302a:	0e00      	lsrs	r0, r0, #24
    302c:	9100      	str	r1, [sp, #0]
    302e:	468a      	mov	r10, r1
    3030:	d03c      	beq.n	30ac <__aeabi_fdiv+0xbc>
    3032:	28ff      	cmp	r0, #255	; 0xff
    3034:	d034      	beq.n	30a0 <__aeabi_fdiv+0xb0>
    3036:	2380      	movs	r3, #128	; 0x80
    3038:	041b      	lsls	r3, r3, #16
    303a:	431c      	orrs	r4, r3
    303c:	2300      	movs	r3, #0
    303e:	00e4      	lsls	r4, r4, #3
    3040:	387f      	subs	r0, #127	; 0x7f
    3042:	9301      	str	r3, [sp, #4]
    3044:	9f00      	ldr	r7, [sp, #0]
    3046:	4643      	mov	r3, r8
    3048:	9a01      	ldr	r2, [sp, #4]
    304a:	407b      	eors	r3, r7
    304c:	4649      	mov	r1, r9
    304e:	469c      	mov	r12, r3
    3050:	4311      	orrs	r1, r2
    3052:	290f      	cmp	r1, #15
    3054:	d900      	bls.n	3058 <__aeabi_fdiv+0x68>
    3056:	e071      	b.n	313c <__aeabi_fdiv+0x14c>
    3058:	4f76      	ldr	r7, [pc, #472]	; (3234 <__aeabi_fdiv+0x244>)
    305a:	0089      	lsls	r1, r1, #2
    305c:	587f      	ldr	r7, [r7, r1]
    305e:	46bf      	mov	pc, r7
    3060:	2e00      	cmp	r6, #0
    3062:	d13e      	bne.n	30e2 <__aeabi_fdiv+0xf2>
    3064:	2208      	movs	r2, #8
    3066:	2302      	movs	r3, #2
    3068:	4691      	mov	r9, r2
    306a:	469b      	mov	r11, r3
    306c:	e7d9      	b.n	3022 <__aeabi_fdiv+0x32>
    306e:	465a      	mov	r2, r11
    3070:	1c34      	adds	r4, r6, #0
    3072:	46c2      	mov	r10, r8
    3074:	9201      	str	r2, [sp, #4]
    3076:	9901      	ldr	r1, [sp, #4]
    3078:	2902      	cmp	r1, #2
    307a:	d037      	beq.n	30ec <__aeabi_fdiv+0xfc>
    307c:	2903      	cmp	r1, #3
    307e:	d100      	bne.n	3082 <__aeabi_fdiv+0x92>
    3080:	e0cf      	b.n	3222 <__aeabi_fdiv+0x232>
    3082:	2901      	cmp	r1, #1
    3084:	d000      	beq.n	3088 <__aeabi_fdiv+0x98>
    3086:	e0ab      	b.n	31e0 <__aeabi_fdiv+0x1f0>
    3088:	4653      	mov	r3, r10
    308a:	400b      	ands	r3, r1
    308c:	2200      	movs	r2, #0
    308e:	2600      	movs	r6, #0
    3090:	e032      	b.n	30f8 <__aeabi_fdiv+0x108>
    3092:	2e00      	cmp	r6, #0
    3094:	d119      	bne.n	30ca <__aeabi_fdiv+0xda>
    3096:	2104      	movs	r1, #4
    3098:	2201      	movs	r2, #1
    309a:	4689      	mov	r9, r1
    309c:	4693      	mov	r11, r2
    309e:	e7c0      	b.n	3022 <__aeabi_fdiv+0x32>
    30a0:	1c22      	adds	r2, r4, #0
    30a2:	1e53      	subs	r3, r2, #1
    30a4:	419a      	sbcs	r2, r3
    30a6:	3202      	adds	r2, #2
    30a8:	9201      	str	r2, [sp, #4]
    30aa:	e7cb      	b.n	3044 <__aeabi_fdiv+0x54>
    30ac:	2701      	movs	r7, #1
    30ae:	9701      	str	r7, [sp, #4]
    30b0:	2c00      	cmp	r4, #0
    30b2:	d0c7      	beq.n	3044 <__aeabi_fdiv+0x54>
    30b4:	1c20      	adds	r0, r4, #0
    30b6:	f002 fb03 	bl	56c0 <__clzsi2>
    30ba:	1f43      	subs	r3, r0, #5
    30bc:	409c      	lsls	r4, r3
    30be:	2376      	movs	r3, #118	; 0x76
    30c0:	425b      	negs	r3, r3
    30c2:	2100      	movs	r1, #0
    30c4:	1a18      	subs	r0, r3, r0
    30c6:	9101      	str	r1, [sp, #4]
    30c8:	e7bc      	b.n	3044 <__aeabi_fdiv+0x54>
    30ca:	1c30      	adds	r0, r6, #0
    30cc:	f002 faf8 	bl	56c0 <__clzsi2>
    30d0:	2576      	movs	r5, #118	; 0x76
    30d2:	1f43      	subs	r3, r0, #5
    30d4:	409e      	lsls	r6, r3
    30d6:	426d      	negs	r5, r5
    30d8:	2300      	movs	r3, #0
    30da:	1a2d      	subs	r5, r5, r0
    30dc:	4699      	mov	r9, r3
    30de:	469b      	mov	r11, r3
    30e0:	e79f      	b.n	3022 <__aeabi_fdiv+0x32>
    30e2:	230c      	movs	r3, #12
    30e4:	2103      	movs	r1, #3
    30e6:	4699      	mov	r9, r3
    30e8:	468b      	mov	r11, r1
    30ea:	e79a      	b.n	3022 <__aeabi_fdiv+0x32>
    30ec:	46d4      	mov	r12, r10
    30ee:	2301      	movs	r3, #1
    30f0:	4667      	mov	r7, r12
    30f2:	403b      	ands	r3, r7
    30f4:	22ff      	movs	r2, #255	; 0xff
    30f6:	2600      	movs	r6, #0
    30f8:	0276      	lsls	r6, r6, #9
    30fa:	05d2      	lsls	r2, r2, #23
    30fc:	0a70      	lsrs	r0, r6, #9
    30fe:	07db      	lsls	r3, r3, #31
    3100:	4310      	orrs	r0, r2
    3102:	4318      	orrs	r0, r3
    3104:	b005      	add	sp, #20
    3106:	bc3c      	pop	{r2, r3, r4, r5}
    3108:	4690      	mov	r8, r2
    310a:	4699      	mov	r9, r3
    310c:	46a2      	mov	r10, r4
    310e:	46ab      	mov	r11, r5
    3110:	bdf0      	pop	{r4, r5, r6, r7, pc}
    3112:	2680      	movs	r6, #128	; 0x80
    3114:	2300      	movs	r3, #0
    3116:	03f6      	lsls	r6, r6, #15
    3118:	22ff      	movs	r2, #255	; 0xff
    311a:	e7ed      	b.n	30f8 <__aeabi_fdiv+0x108>
    311c:	2200      	movs	r2, #0
    311e:	2600      	movs	r6, #0
    3120:	e7ea      	b.n	30f8 <__aeabi_fdiv+0x108>
    3122:	2080      	movs	r0, #128	; 0x80
    3124:	03c0      	lsls	r0, r0, #15
    3126:	4206      	tst	r6, r0
    3128:	d03b      	beq.n	31a2 <__aeabi_fdiv+0x1b2>
    312a:	4204      	tst	r4, r0
    312c:	d139      	bne.n	31a2 <__aeabi_fdiv+0x1b2>
    312e:	1c06      	adds	r6, r0, #0
    3130:	4326      	orrs	r6, r4
    3132:	0276      	lsls	r6, r6, #9
    3134:	0a76      	lsrs	r6, r6, #9
    3136:	9b00      	ldr	r3, [sp, #0]
    3138:	22ff      	movs	r2, #255	; 0xff
    313a:	e7dd      	b.n	30f8 <__aeabi_fdiv+0x108>
    313c:	1a28      	subs	r0, r5, r0
    313e:	9003      	str	r0, [sp, #12]
    3140:	0176      	lsls	r6, r6, #5
    3142:	0164      	lsls	r4, r4, #5
    3144:	42a6      	cmp	r6, r4
    3146:	d339      	bcc.n	31bc <__aeabi_fdiv+0x1cc>
    3148:	1b36      	subs	r6, r6, r4
    314a:	221a      	movs	r2, #26
    314c:	2301      	movs	r3, #1
    314e:	2001      	movs	r0, #1
    3150:	1c31      	adds	r1, r6, #0
    3152:	005b      	lsls	r3, r3, #1
    3154:	0076      	lsls	r6, r6, #1
    3156:	2900      	cmp	r1, #0
    3158:	db01      	blt.n	315e <__aeabi_fdiv+0x16e>
    315a:	42b4      	cmp	r4, r6
    315c:	d801      	bhi.n	3162 <__aeabi_fdiv+0x172>
    315e:	1b36      	subs	r6, r6, r4
    3160:	4303      	orrs	r3, r0
    3162:	3a01      	subs	r2, #1
    3164:	2a00      	cmp	r2, #0
    3166:	dcf3      	bgt.n	3150 <__aeabi_fdiv+0x160>
    3168:	1e74      	subs	r4, r6, #1
    316a:	41a6      	sbcs	r6, r4
    316c:	1c34      	adds	r4, r6, #0
    316e:	431c      	orrs	r4, r3
    3170:	9a03      	ldr	r2, [sp, #12]
    3172:	327f      	adds	r2, #127	; 0x7f
    3174:	2a00      	cmp	r2, #0
    3176:	dd27      	ble.n	31c8 <__aeabi_fdiv+0x1d8>
    3178:	0763      	lsls	r3, r4, #29
    317a:	d004      	beq.n	3186 <__aeabi_fdiv+0x196>
    317c:	230f      	movs	r3, #15
    317e:	4023      	ands	r3, r4
    3180:	2b04      	cmp	r3, #4
    3182:	d000      	beq.n	3186 <__aeabi_fdiv+0x196>
    3184:	3404      	adds	r4, #4
    3186:	0127      	lsls	r7, r4, #4
    3188:	d503      	bpl.n	3192 <__aeabi_fdiv+0x1a2>
    318a:	4b2b      	ldr	r3, [pc, #172]	; (3238 <__aeabi_fdiv+0x248>)
    318c:	9a03      	ldr	r2, [sp, #12]
    318e:	401c      	ands	r4, r3
    3190:	3280      	adds	r2, #128	; 0x80
    3192:	2afe      	cmp	r2, #254	; 0xfe
    3194:	dd0b      	ble.n	31ae <__aeabi_fdiv+0x1be>
    3196:	2301      	movs	r3, #1
    3198:	4661      	mov	r1, r12
    319a:	400b      	ands	r3, r1
    319c:	22ff      	movs	r2, #255	; 0xff
    319e:	2600      	movs	r6, #0
    31a0:	e7aa      	b.n	30f8 <__aeabi_fdiv+0x108>
    31a2:	4306      	orrs	r6, r0
    31a4:	0276      	lsls	r6, r6, #9
    31a6:	0a76      	lsrs	r6, r6, #9
    31a8:	4643      	mov	r3, r8
    31aa:	22ff      	movs	r2, #255	; 0xff
    31ac:	e7a4      	b.n	30f8 <__aeabi_fdiv+0x108>
    31ae:	01a4      	lsls	r4, r4, #6
    31b0:	2301      	movs	r3, #1
    31b2:	4667      	mov	r7, r12
    31b4:	0a66      	lsrs	r6, r4, #9
    31b6:	b2d2      	uxtb	r2, r2
    31b8:	403b      	ands	r3, r7
    31ba:	e79d      	b.n	30f8 <__aeabi_fdiv+0x108>
    31bc:	9f03      	ldr	r7, [sp, #12]
    31be:	221b      	movs	r2, #27
    31c0:	3f01      	subs	r7, #1
    31c2:	9703      	str	r7, [sp, #12]
    31c4:	2300      	movs	r3, #0
    31c6:	e7c2      	b.n	314e <__aeabi_fdiv+0x15e>
    31c8:	237e      	movs	r3, #126	; 0x7e
    31ca:	9f03      	ldr	r7, [sp, #12]
    31cc:	425b      	negs	r3, r3
    31ce:	1bdb      	subs	r3, r3, r7
    31d0:	2b1b      	cmp	r3, #27
    31d2:	dd07      	ble.n	31e4 <__aeabi_fdiv+0x1f4>
    31d4:	2301      	movs	r3, #1
    31d6:	4661      	mov	r1, r12
    31d8:	400b      	ands	r3, r1
    31da:	2200      	movs	r2, #0
    31dc:	2600      	movs	r6, #0
    31de:	e78b      	b.n	30f8 <__aeabi_fdiv+0x108>
    31e0:	46d4      	mov	r12, r10
    31e2:	e7c5      	b.n	3170 <__aeabi_fdiv+0x180>
    31e4:	1c22      	adds	r2, r4, #0
    31e6:	40da      	lsrs	r2, r3
    31e8:	9b03      	ldr	r3, [sp, #12]
    31ea:	339e      	adds	r3, #158	; 0x9e
    31ec:	409c      	lsls	r4, r3
    31ee:	1c23      	adds	r3, r4, #0
    31f0:	1e5c      	subs	r4, r3, #1
    31f2:	41a3      	sbcs	r3, r4
    31f4:	4313      	orrs	r3, r2
    31f6:	075a      	lsls	r2, r3, #29
    31f8:	d004      	beq.n	3204 <__aeabi_fdiv+0x214>
    31fa:	220f      	movs	r2, #15
    31fc:	401a      	ands	r2, r3
    31fe:	2a04      	cmp	r2, #4
    3200:	d000      	beq.n	3204 <__aeabi_fdiv+0x214>
    3202:	3304      	adds	r3, #4
    3204:	015f      	lsls	r7, r3, #5
    3206:	d505      	bpl.n	3214 <__aeabi_fdiv+0x224>
    3208:	2301      	movs	r3, #1
    320a:	4661      	mov	r1, r12
    320c:	400b      	ands	r3, r1
    320e:	2201      	movs	r2, #1
    3210:	2600      	movs	r6, #0
    3212:	e771      	b.n	30f8 <__aeabi_fdiv+0x108>
    3214:	019e      	lsls	r6, r3, #6
    3216:	4662      	mov	r2, r12
    3218:	2301      	movs	r3, #1
    321a:	4013      	ands	r3, r2
    321c:	0a76      	lsrs	r6, r6, #9
    321e:	2200      	movs	r2, #0
    3220:	e76a      	b.n	30f8 <__aeabi_fdiv+0x108>
    3222:	2680      	movs	r6, #128	; 0x80
    3224:	03f6      	lsls	r6, r6, #15
    3226:	4326      	orrs	r6, r4
    3228:	0276      	lsls	r6, r6, #9
    322a:	0a76      	lsrs	r6, r6, #9
    322c:	4653      	mov	r3, r10
    322e:	22ff      	movs	r2, #255	; 0xff
    3230:	e762      	b.n	30f8 <__aeabi_fdiv+0x108>
    3232:	46c0      	nop			; (mov r8, r8)
    3234:	00007ad0 	.word	0x00007ad0
    3238:	f7ffffff 	.word	0xf7ffffff

0000323c <__eqsf2>:
    323c:	024a      	lsls	r2, r1, #9
    323e:	0243      	lsls	r3, r0, #9
    3240:	b570      	push	{r4, r5, r6, lr}
    3242:	0a5c      	lsrs	r4, r3, #9
    3244:	0a55      	lsrs	r5, r2, #9
    3246:	0043      	lsls	r3, r0, #1
    3248:	004a      	lsls	r2, r1, #1
    324a:	0e1b      	lsrs	r3, r3, #24
    324c:	0fc6      	lsrs	r6, r0, #31
    324e:	0e12      	lsrs	r2, r2, #24
    3250:	0fc9      	lsrs	r1, r1, #31
    3252:	2bff      	cmp	r3, #255	; 0xff
    3254:	d005      	beq.n	3262 <__eqsf2+0x26>
    3256:	2aff      	cmp	r2, #255	; 0xff
    3258:	d008      	beq.n	326c <__eqsf2+0x30>
    325a:	2001      	movs	r0, #1
    325c:	4293      	cmp	r3, r2
    325e:	d00b      	beq.n	3278 <__eqsf2+0x3c>
    3260:	bd70      	pop	{r4, r5, r6, pc}
    3262:	2001      	movs	r0, #1
    3264:	2c00      	cmp	r4, #0
    3266:	d1fb      	bne.n	3260 <__eqsf2+0x24>
    3268:	2aff      	cmp	r2, #255	; 0xff
    326a:	d1f6      	bne.n	325a <__eqsf2+0x1e>
    326c:	2001      	movs	r0, #1
    326e:	2d00      	cmp	r5, #0
    3270:	d1f6      	bne.n	3260 <__eqsf2+0x24>
    3272:	2001      	movs	r0, #1
    3274:	4293      	cmp	r3, r2
    3276:	d1f3      	bne.n	3260 <__eqsf2+0x24>
    3278:	42ac      	cmp	r4, r5
    327a:	d1f1      	bne.n	3260 <__eqsf2+0x24>
    327c:	428e      	cmp	r6, r1
    327e:	d005      	beq.n	328c <__eqsf2+0x50>
    3280:	2b00      	cmp	r3, #0
    3282:	d1ed      	bne.n	3260 <__eqsf2+0x24>
    3284:	1c20      	adds	r0, r4, #0
    3286:	1e44      	subs	r4, r0, #1
    3288:	41a0      	sbcs	r0, r4
    328a:	e7e9      	b.n	3260 <__eqsf2+0x24>
    328c:	2000      	movs	r0, #0
    328e:	e7e7      	b.n	3260 <__eqsf2+0x24>

00003290 <__gesf2>:
    3290:	024a      	lsls	r2, r1, #9
    3292:	0243      	lsls	r3, r0, #9
    3294:	b5f0      	push	{r4, r5, r6, r7, lr}
    3296:	0a5c      	lsrs	r4, r3, #9
    3298:	0a55      	lsrs	r5, r2, #9
    329a:	0043      	lsls	r3, r0, #1
    329c:	004a      	lsls	r2, r1, #1
    329e:	0e1b      	lsrs	r3, r3, #24
    32a0:	0fc6      	lsrs	r6, r0, #31
    32a2:	0e12      	lsrs	r2, r2, #24
    32a4:	0fc9      	lsrs	r1, r1, #31
    32a6:	2bff      	cmp	r3, #255	; 0xff
    32a8:	d031      	beq.n	330e <__gesf2+0x7e>
    32aa:	2aff      	cmp	r2, #255	; 0xff
    32ac:	d034      	beq.n	3318 <__gesf2+0x88>
    32ae:	2b00      	cmp	r3, #0
    32b0:	d116      	bne.n	32e0 <__gesf2+0x50>
    32b2:	4260      	negs	r0, r4
    32b4:	4160      	adcs	r0, r4
    32b6:	4684      	mov	r12, r0
    32b8:	2a00      	cmp	r2, #0
    32ba:	d014      	beq.n	32e6 <__gesf2+0x56>
    32bc:	2800      	cmp	r0, #0
    32be:	d120      	bne.n	3302 <__gesf2+0x72>
    32c0:	428e      	cmp	r6, r1
    32c2:	d117      	bne.n	32f4 <__gesf2+0x64>
    32c4:	4293      	cmp	r3, r2
    32c6:	dc15      	bgt.n	32f4 <__gesf2+0x64>
    32c8:	db04      	blt.n	32d4 <__gesf2+0x44>
    32ca:	42ac      	cmp	r4, r5
    32cc:	d812      	bhi.n	32f4 <__gesf2+0x64>
    32ce:	2000      	movs	r0, #0
    32d0:	42ac      	cmp	r4, r5
    32d2:	d212      	bcs.n	32fa <__gesf2+0x6a>
    32d4:	4270      	negs	r0, r6
    32d6:	4170      	adcs	r0, r6
    32d8:	4240      	negs	r0, r0
    32da:	2301      	movs	r3, #1
    32dc:	4318      	orrs	r0, r3
    32de:	e00c      	b.n	32fa <__gesf2+0x6a>
    32e0:	2a00      	cmp	r2, #0
    32e2:	d1ed      	bne.n	32c0 <__gesf2+0x30>
    32e4:	4694      	mov	r12, r2
    32e6:	426f      	negs	r7, r5
    32e8:	416f      	adcs	r7, r5
    32ea:	4660      	mov	r0, r12
    32ec:	2800      	cmp	r0, #0
    32ee:	d105      	bne.n	32fc <__gesf2+0x6c>
    32f0:	2f00      	cmp	r7, #0
    32f2:	d0e5      	beq.n	32c0 <__gesf2+0x30>
    32f4:	4270      	negs	r0, r6
    32f6:	2301      	movs	r3, #1
    32f8:	4318      	orrs	r0, r3
    32fa:	bdf0      	pop	{r4, r5, r6, r7, pc}
    32fc:	2000      	movs	r0, #0
    32fe:	2f00      	cmp	r7, #0
    3300:	d1fb      	bne.n	32fa <__gesf2+0x6a>
    3302:	4248      	negs	r0, r1
    3304:	4148      	adcs	r0, r1
    3306:	4240      	negs	r0, r0
    3308:	2301      	movs	r3, #1
    330a:	4318      	orrs	r0, r3
    330c:	e7f5      	b.n	32fa <__gesf2+0x6a>
    330e:	2c00      	cmp	r4, #0
    3310:	d0cb      	beq.n	32aa <__gesf2+0x1a>
    3312:	2002      	movs	r0, #2
    3314:	4240      	negs	r0, r0
    3316:	e7f0      	b.n	32fa <__gesf2+0x6a>
    3318:	2d00      	cmp	r5, #0
    331a:	d0c8      	beq.n	32ae <__gesf2+0x1e>
    331c:	e7f9      	b.n	3312 <__gesf2+0x82>
    331e:	46c0      	nop			; (mov r8, r8)

00003320 <__lesf2>:
    3320:	024a      	lsls	r2, r1, #9
    3322:	0243      	lsls	r3, r0, #9
    3324:	b5f0      	push	{r4, r5, r6, r7, lr}
    3326:	0a5c      	lsrs	r4, r3, #9
    3328:	0a55      	lsrs	r5, r2, #9
    332a:	0043      	lsls	r3, r0, #1
    332c:	004a      	lsls	r2, r1, #1
    332e:	0e1b      	lsrs	r3, r3, #24
    3330:	0fc6      	lsrs	r6, r0, #31
    3332:	0e12      	lsrs	r2, r2, #24
    3334:	0fc9      	lsrs	r1, r1, #31
    3336:	2bff      	cmp	r3, #255	; 0xff
    3338:	d027      	beq.n	338a <__lesf2+0x6a>
    333a:	2aff      	cmp	r2, #255	; 0xff
    333c:	d029      	beq.n	3392 <__lesf2+0x72>
    333e:	2b00      	cmp	r3, #0
    3340:	d010      	beq.n	3364 <__lesf2+0x44>
    3342:	2a00      	cmp	r2, #0
    3344:	d115      	bne.n	3372 <__lesf2+0x52>
    3346:	4694      	mov	r12, r2
    3348:	426f      	negs	r7, r5
    334a:	416f      	adcs	r7, r5
    334c:	4660      	mov	r0, r12
    334e:	2800      	cmp	r0, #0
    3350:	d015      	beq.n	337e <__lesf2+0x5e>
    3352:	2000      	movs	r0, #0
    3354:	2f00      	cmp	r7, #0
    3356:	d104      	bne.n	3362 <__lesf2+0x42>
    3358:	4248      	negs	r0, r1
    335a:	4148      	adcs	r0, r1
    335c:	4240      	negs	r0, r0
    335e:	2301      	movs	r3, #1
    3360:	4318      	orrs	r0, r3
    3362:	bdf0      	pop	{r4, r5, r6, r7, pc}
    3364:	4260      	negs	r0, r4
    3366:	4160      	adcs	r0, r4
    3368:	4684      	mov	r12, r0
    336a:	2a00      	cmp	r2, #0
    336c:	d0ec      	beq.n	3348 <__lesf2+0x28>
    336e:	2800      	cmp	r0, #0
    3370:	d1f2      	bne.n	3358 <__lesf2+0x38>
    3372:	428e      	cmp	r6, r1
    3374:	d011      	beq.n	339a <__lesf2+0x7a>
    3376:	4270      	negs	r0, r6
    3378:	2301      	movs	r3, #1
    337a:	4318      	orrs	r0, r3
    337c:	e7f1      	b.n	3362 <__lesf2+0x42>
    337e:	2f00      	cmp	r7, #0
    3380:	d0f7      	beq.n	3372 <__lesf2+0x52>
    3382:	4270      	negs	r0, r6
    3384:	2301      	movs	r3, #1
    3386:	4318      	orrs	r0, r3
    3388:	e7eb      	b.n	3362 <__lesf2+0x42>
    338a:	2002      	movs	r0, #2
    338c:	2c00      	cmp	r4, #0
    338e:	d1e8      	bne.n	3362 <__lesf2+0x42>
    3390:	e7d3      	b.n	333a <__lesf2+0x1a>
    3392:	2002      	movs	r0, #2
    3394:	2d00      	cmp	r5, #0
    3396:	d1e4      	bne.n	3362 <__lesf2+0x42>
    3398:	e7d1      	b.n	333e <__lesf2+0x1e>
    339a:	4293      	cmp	r3, r2
    339c:	dceb      	bgt.n	3376 <__lesf2+0x56>
    339e:	db04      	blt.n	33aa <__lesf2+0x8a>
    33a0:	42ac      	cmp	r4, r5
    33a2:	d8e8      	bhi.n	3376 <__lesf2+0x56>
    33a4:	2000      	movs	r0, #0
    33a6:	42ac      	cmp	r4, r5
    33a8:	d2db      	bcs.n	3362 <__lesf2+0x42>
    33aa:	4270      	negs	r0, r6
    33ac:	4170      	adcs	r0, r6
    33ae:	4240      	negs	r0, r0
    33b0:	2301      	movs	r3, #1
    33b2:	4318      	orrs	r0, r3
    33b4:	e7d5      	b.n	3362 <__lesf2+0x42>
    33b6:	46c0      	nop			; (mov r8, r8)

000033b8 <__aeabi_fmul>:
    33b8:	b5f0      	push	{r4, r5, r6, r7, lr}
    33ba:	465f      	mov	r7, r11
    33bc:	4656      	mov	r6, r10
    33be:	464d      	mov	r5, r9
    33c0:	4644      	mov	r4, r8
    33c2:	b4f0      	push	{r4, r5, r6, r7}
    33c4:	0244      	lsls	r4, r0, #9
    33c6:	0046      	lsls	r6, r0, #1
    33c8:	b083      	sub	sp, #12
    33ca:	1c0f      	adds	r7, r1, #0
    33cc:	0a64      	lsrs	r4, r4, #9
    33ce:	0e36      	lsrs	r6, r6, #24
    33d0:	0fc5      	lsrs	r5, r0, #31
    33d2:	2e00      	cmp	r6, #0
    33d4:	d041      	beq.n	345a <__aeabi_fmul+0xa2>
    33d6:	2eff      	cmp	r6, #255	; 0xff
    33d8:	d022      	beq.n	3420 <__aeabi_fmul+0x68>
    33da:	2380      	movs	r3, #128	; 0x80
    33dc:	041b      	lsls	r3, r3, #16
    33de:	2000      	movs	r0, #0
    33e0:	431c      	orrs	r4, r3
    33e2:	00e4      	lsls	r4, r4, #3
    33e4:	3e7f      	subs	r6, #127	; 0x7f
    33e6:	4682      	mov	r10, r0
    33e8:	4680      	mov	r8, r0
    33ea:	1c39      	adds	r1, r7, #0
    33ec:	004b      	lsls	r3, r1, #1
    33ee:	027f      	lsls	r7, r7, #9
    33f0:	0fc9      	lsrs	r1, r1, #31
    33f2:	0a7f      	lsrs	r7, r7, #9
    33f4:	0e1b      	lsrs	r3, r3, #24
    33f6:	468b      	mov	r11, r1
    33f8:	d03b      	beq.n	3472 <__aeabi_fmul+0xba>
    33fa:	2bff      	cmp	r3, #255	; 0xff
    33fc:	d034      	beq.n	3468 <__aeabi_fmul+0xb0>
    33fe:	2280      	movs	r2, #128	; 0x80
    3400:	0412      	lsls	r2, r2, #16
    3402:	4317      	orrs	r7, r2
    3404:	00ff      	lsls	r7, r7, #3
    3406:	3b7f      	subs	r3, #127	; 0x7f
    3408:	2100      	movs	r1, #0
    340a:	465a      	mov	r2, r11
    340c:	406a      	eors	r2, r5
    340e:	9201      	str	r2, [sp, #4]
    3410:	4652      	mov	r2, r10
    3412:	430a      	orrs	r2, r1
    3414:	2a0f      	cmp	r2, #15
    3416:	d863      	bhi.n	34e0 <__aeabi_fmul+0x128>
    3418:	487a      	ldr	r0, [pc, #488]	; (3604 <__aeabi_fmul+0x24c>)
    341a:	0092      	lsls	r2, r2, #2
    341c:	5882      	ldr	r2, [r0, r2]
    341e:	4697      	mov	pc, r2
    3420:	2c00      	cmp	r4, #0
    3422:	d13f      	bne.n	34a4 <__aeabi_fmul+0xec>
    3424:	2208      	movs	r2, #8
    3426:	2302      	movs	r3, #2
    3428:	4692      	mov	r10, r2
    342a:	4698      	mov	r8, r3
    342c:	e7dd      	b.n	33ea <__aeabi_fmul+0x32>
    342e:	9501      	str	r5, [sp, #4]
    3430:	4640      	mov	r0, r8
    3432:	2802      	cmp	r0, #2
    3434:	d12a      	bne.n	348c <__aeabi_fmul+0xd4>
    3436:	9a01      	ldr	r2, [sp, #4]
    3438:	2501      	movs	r5, #1
    343a:	4015      	ands	r5, r2
    343c:	23ff      	movs	r3, #255	; 0xff
    343e:	2400      	movs	r4, #0
    3440:	0264      	lsls	r4, r4, #9
    3442:	05db      	lsls	r3, r3, #23
    3444:	0a60      	lsrs	r0, r4, #9
    3446:	07ed      	lsls	r5, r5, #31
    3448:	4318      	orrs	r0, r3
    344a:	4328      	orrs	r0, r5
    344c:	b003      	add	sp, #12
    344e:	bc3c      	pop	{r2, r3, r4, r5}
    3450:	4690      	mov	r8, r2
    3452:	4699      	mov	r9, r3
    3454:	46a2      	mov	r10, r4
    3456:	46ab      	mov	r11, r5
    3458:	bdf0      	pop	{r4, r5, r6, r7, pc}
    345a:	2c00      	cmp	r4, #0
    345c:	d127      	bne.n	34ae <__aeabi_fmul+0xf6>
    345e:	2004      	movs	r0, #4
    3460:	2201      	movs	r2, #1
    3462:	4682      	mov	r10, r0
    3464:	4690      	mov	r8, r2
    3466:	e7c0      	b.n	33ea <__aeabi_fmul+0x32>
    3468:	1c39      	adds	r1, r7, #0
    346a:	1e4a      	subs	r2, r1, #1
    346c:	4191      	sbcs	r1, r2
    346e:	3102      	adds	r1, #2
    3470:	e7cb      	b.n	340a <__aeabi_fmul+0x52>
    3472:	2101      	movs	r1, #1
    3474:	2f00      	cmp	r7, #0
    3476:	d0c8      	beq.n	340a <__aeabi_fmul+0x52>
    3478:	1c38      	adds	r0, r7, #0
    347a:	f002 f921 	bl	56c0 <__clzsi2>
    347e:	1f43      	subs	r3, r0, #5
    3480:	409f      	lsls	r7, r3
    3482:	2376      	movs	r3, #118	; 0x76
    3484:	425b      	negs	r3, r3
    3486:	1a1b      	subs	r3, r3, r0
    3488:	2100      	movs	r1, #0
    348a:	e7be      	b.n	340a <__aeabi_fmul+0x52>
    348c:	2803      	cmp	r0, #3
    348e:	d100      	bne.n	3492 <__aeabi_fmul+0xda>
    3490:	e0ae      	b.n	35f0 <__aeabi_fmul+0x238>
    3492:	2801      	cmp	r0, #1
    3494:	d14f      	bne.n	3536 <__aeabi_fmul+0x17e>
    3496:	9801      	ldr	r0, [sp, #4]
    3498:	4642      	mov	r2, r8
    349a:	4010      	ands	r0, r2
    349c:	b2c5      	uxtb	r5, r0
    349e:	2300      	movs	r3, #0
    34a0:	2400      	movs	r4, #0
    34a2:	e7cd      	b.n	3440 <__aeabi_fmul+0x88>
    34a4:	230c      	movs	r3, #12
    34a6:	2003      	movs	r0, #3
    34a8:	469a      	mov	r10, r3
    34aa:	4680      	mov	r8, r0
    34ac:	e79d      	b.n	33ea <__aeabi_fmul+0x32>
    34ae:	1c20      	adds	r0, r4, #0
    34b0:	f002 f906 	bl	56c0 <__clzsi2>
    34b4:	2676      	movs	r6, #118	; 0x76
    34b6:	1f43      	subs	r3, r0, #5
    34b8:	409c      	lsls	r4, r3
    34ba:	4276      	negs	r6, r6
    34bc:	2300      	movs	r3, #0
    34be:	1a36      	subs	r6, r6, r0
    34c0:	469a      	mov	r10, r3
    34c2:	4698      	mov	r8, r3
    34c4:	e791      	b.n	33ea <__aeabi_fmul+0x32>
    34c6:	2480      	movs	r4, #128	; 0x80
    34c8:	2500      	movs	r5, #0
    34ca:	03e4      	lsls	r4, r4, #15
    34cc:	23ff      	movs	r3, #255	; 0xff
    34ce:	e7b7      	b.n	3440 <__aeabi_fmul+0x88>
    34d0:	465b      	mov	r3, r11
    34d2:	1c3c      	adds	r4, r7, #0
    34d4:	9301      	str	r3, [sp, #4]
    34d6:	4688      	mov	r8, r1
    34d8:	e7aa      	b.n	3430 <__aeabi_fmul+0x78>
    34da:	1c3c      	adds	r4, r7, #0
    34dc:	4688      	mov	r8, r1
    34de:	e7a7      	b.n	3430 <__aeabi_fmul+0x78>
    34e0:	0c25      	lsrs	r5, r4, #16
    34e2:	0424      	lsls	r4, r4, #16
    34e4:	0c3a      	lsrs	r2, r7, #16
    34e6:	0c24      	lsrs	r4, r4, #16
    34e8:	043f      	lsls	r7, r7, #16
    34ea:	18f6      	adds	r6, r6, r3
    34ec:	0c3f      	lsrs	r7, r7, #16
    34ee:	1c21      	adds	r1, r4, #0
    34f0:	1c23      	adds	r3, r4, #0
    34f2:	4379      	muls	r1, r7
    34f4:	4353      	muls	r3, r2
    34f6:	436f      	muls	r7, r5
    34f8:	4355      	muls	r5, r2
    34fa:	18fb      	adds	r3, r7, r3
    34fc:	0c0a      	lsrs	r2, r1, #16
    34fe:	189b      	adds	r3, r3, r2
    3500:	46b1      	mov	r9, r6
    3502:	429f      	cmp	r7, r3
    3504:	d902      	bls.n	350c <__aeabi_fmul+0x154>
    3506:	2280      	movs	r2, #128	; 0x80
    3508:	0252      	lsls	r2, r2, #9
    350a:	18ad      	adds	r5, r5, r2
    350c:	0409      	lsls	r1, r1, #16
    350e:	041a      	lsls	r2, r3, #16
    3510:	0c09      	lsrs	r1, r1, #16
    3512:	1852      	adds	r2, r2, r1
    3514:	0194      	lsls	r4, r2, #6
    3516:	0c1b      	lsrs	r3, r3, #16
    3518:	1e61      	subs	r1, r4, #1
    351a:	418c      	sbcs	r4, r1
    351c:	0e92      	lsrs	r2, r2, #26
    351e:	18ed      	adds	r5, r5, r3
    3520:	4314      	orrs	r4, r2
    3522:	01ad      	lsls	r5, r5, #6
    3524:	432c      	orrs	r4, r5
    3526:	0123      	lsls	r3, r4, #4
    3528:	d505      	bpl.n	3536 <__aeabi_fmul+0x17e>
    352a:	2201      	movs	r2, #1
    352c:	0863      	lsrs	r3, r4, #1
    352e:	2001      	movs	r0, #1
    3530:	4014      	ands	r4, r2
    3532:	4481      	add	r9, r0
    3534:	431c      	orrs	r4, r3
    3536:	464b      	mov	r3, r9
    3538:	337f      	adds	r3, #127	; 0x7f
    353a:	2b00      	cmp	r3, #0
